(lp0
((lp1
(S'431'
p2
S'203'
p3
F208.16480315660942
tp4
a(g3
S'414'
p5
F110.55925503297553
tp6
a(g5
S'929'
p7
F239.98185478459206
tp8
aF33.52235477845063
S'2012-03-02 09:53:11'
p9
S'2012-03-02 09:54:11'
p10
I35
F558.7059129741771
F557.1175271500466
tp11
a((lp12
(S'414'
p13
g7
F63.138534126572225
tp14
a(g7
S'414'
p15
F303.12038890948725
tp16
a(g15
S'393'
p17
F82.01156142123234
tp18
a(g17
S'414'
p19
F124.80947035168708
tp20
aF18.927411351489212
g10
S'2012-03-02 09:56:00'
p21
I33
F573.0799548089789
F215.53142425599225
tp22
a((lp23
(S'393'
p24
g19
F42.79790893098517
tp25
a(g19
g7
F303.12038890948725
tp26
a(g7
S'842'
p27
F138.91582185729666
tp28
a(g27
S'1027'
p29
F108.42347341772006
tp30
a(g29
S'887'
p31
F43.365812298614834
tp32
aF28.29437357396018
g21
S'2012-03-02 09:57:21'
p33
I0
F636.623405414104
F39.28753914575026
tp34
a((lp35
(S'1027'
p36
g31
F1017.6978631502822
tp37
a(g31
S'1027'
p38
F974.3320508593303
tp39
a(g38
S'842'
p40
F108.42347341772006
tp41
a(g40
g29
F414.9605507177332
tp42
aF150.92483628870394
g33
S'2012-03-02 09:58:21'
p43
I22
F2515.413938145066
F374.4542142427012
tp44
a((lp45
(S'842'
p46
g29
F306.53707731280997
tp47
a(g29
g31
F974.3320508593303
tp48
a(g31
S'820'
p49
F1042.7797147525323
tp50
a(g49
S'970'
p51
F27.0474930834899
tp52
aF49.779451821349326
g43
S'2012-03-02 10:01:11'
p53
I29
F2350.6963360081627
F945.3588325917967
tp54
a((lp55
(S'820'
p56
g51
F274.7853350005943
tp57
a(g51
S'774'
p58
F377.3364418971982
tp59
a(g58
S'895'
p60
F268.4210662990969
tp61
a(g60
S'1016'
p62
F364.23495779569595
tp63
a(g62
S'1150'
p64
F476.5728920163904
tp65
a(g64
S'1062'
p66
F194.7563084101235
tp67
a(g66
S'974'
p68
F183.41867360754313
tp69
a(g68
S'991'
p70
F187.53116232424307
tp71
aF48.99067026001864
g53
S'2012-03-02 10:04:02'
p72
I42
F2327.0568373508854
F1828.4428203645862
tp73
a((lp74
(S'974'
p75
g70
F843.6950382790288
tp76
a(g70
S'974'
p77
F656.1638760738123
tp78
a(g77
S'833'
p79
F480.1669052301094
tp80
a(g79
S'852'
p81
F363.99526731937345
tp82
a(g81
S'1107'
p83
F264.7955081021066
tp84
a(g83
S'791'
p85
F326.2912684472279
tp86
aF44.772831815364285
g72
S'2012-03-02 10:07:58'
p87
I0
F2935.1078634516584
F1522.3048795286932
tp88
a((lp89
(S'1107'
p90
g85
F100.15692177860483
tp91
a(g85
S'936'
p92
F263.909236928096
tp93
a(g92
S'873'
p94
F117.95681148015007
tp95
a(g94
S'817'
p96
F214.99477288859876
tp97
a(g96
S'909'
p98
F286.06989179438705
tp99
a(g98
S'1139'
p100
F384.6361930519455
tp101
a(g100
S'1160'
p102
F999.898841596365
tp103
a(g102
S'847'
p104
F352.8185604851902
tp105
a(g104
S'1160'
p106
F27.59055834238783
tp107
aF32.015904330241455
g87
S'2012-03-02 10:13:07'
p108
I0
F2748.031788345725
F1482.882146941927
tp109
a((lp110
(S'847'
p111
g106
F380.4091188233194
tp112
a(g106
g104
F352.8185604851902
tp113
a(g104
S'1041'
p114
F692.7516666069633
tp115
a(g114
S'847'
p116
F197.07750866784872
tp117
aF18.72757909134602
g108
S'2012-03-02 10:18:19'
p118
I0
F1623.0568545833216
F41.580921249889315
tp119
a((lp120
(S'1041'
p121
g116
F495.67415794475994
tp122
a(g116
g114
F692.7516666069633
tp123
a(g114
S'827'
p124
F226.3576043315024
tp125
aF29.96011967046831
g118
S'2012-03-02 10:21:09'
p126
I0
F1414.7834288832257
F36.322933982601285
tp127
a((lp128
(g121
g121
F0.0
tp129
aF0.23553597276159136
g126
S'2012-03-02 10:27:09'
p130
I1
F23.553597276159135
F29.312801376020786
tp131
a((lp132
(g121
g124
F892.3158186796746
tp133
a(g124
S'1041'
p134
F689.5118116434894
tp135
a(g134
g116
F230.45508573530785
tp136
aF108.73696296350832
g130
S'2012-03-02 10:28:09'
p137
I3
F1812.282716058472
F25.466569550195253
tp138
a((lp139
(g121
g121
F0.0
tp140
aF0.8959484405635265
g137
S'2012-03-02 10:29:09'
p141
I1
F14.932474009392108
F16.169851898431386
tp142
a((lp143
(g121
g116
F447.36410686867146
tp144
a(g116
g114
F692.7516666069633
tp145
a(g114
g124
F222.52258937710428
tp146
aF81.75830177116435
g141
S'2012-03-02 10:30:09'
p147
I1
F1362.6383628527392
F20.33022163595032
tp148
a((lp149
(g121
g121
F0.0
tp150
aF0.3844950788658681
g147
S'2012-03-02 10:31:10'
p151
I0
F6.515055503004986
F8.375269194494088
tp152
a((lp153
(g121
g121
F0.0
tp154
aF0.6855157140793049
g151
S'2012-03-02 10:32:10'
p155
I1
F11.425261901321749
F11.405359807604533
tp156
a((lp157
(g121
g124
F916.9446073965923
tp158
a(g124
g134
F689.5118116434894
tp159
a(g134
g116
F692.7516666069633
tp160
a(g116
g114
F462.97098934338123
tp161
aF82.86537224971279
g155
S'2012-03-02 10:34:10'
p162
I1
F2762.1790749904267
F10.625246944123035
tp163
a((lp164
(g111
g114
F229.78067726972498
tp165
a(g114
g116
F232.01796936574766
tp166
aF9.235972932709453
g162
S'2012-03-02 10:37:10'
p167
I1
F461.79864663547266
F20.309957382775195
tp168
a((lp169
(g121
g121
F0.0
tp170
aF0.07170064247683501
g167
S'2012-03-02 10:40:54'
p171
I1
F4.4613733096697334
F14.433696783270054
tp172
a((lp173
(g121
g116
F465.1950705569785
tp174
a(g116
g106
F59.821847369137934
tp175
aF630.0203015113397
g171
S'2012-03-02 10:40:57'
p176
I0
F525.0169179261164
F0.989634847088583
tp177
a((lp178
(g111
g106
F412.640407844326
tp179
a(g106
g104
F352.8185604851902
tp180
a(g104
g114
F692.7516666069633
tp181
a(g114
g124
F208.9272361051869
tp182
aF19.486027064123373
g176
S'2012-03-02 10:46:05'
p183
I0
F1667.1378710416664
F15.45990825356765
tp184
a((lp185
(g121
g124
F898.4390477286273
tp186
a(g124
g134
F689.5118116434894
tp187
a(g134
g116
F692.7516666069633
tp188
a(g116
g106
F48.95306606769165
tp189
aF69.88966776140316
g183
S'2012-03-02 10:48:05'
p190
I0
F2329.6555920467717
F24.412412604842398
tp191
a((lp192
(g111
g111
F0.0
tp193
aF0.3294618874355521
g190
S'2012-03-02 10:49:05'
p194
I0
F5.491031457259202
F18.109469091691246
tp195
a((lp196
(g111
g106
F407.26265800113856
tp197
a(g106
g104
F352.8185604851902
tp198
a(g104
g114
F692.7516666069633
tp199
a(g114
g116
F165.90118124943515
tp200
aF26.73138825153128
g194
S'2012-03-02 10:52:43'
p201
I0
F1618.7340663427274
F47.87781905990532
tp202
a((lp203
(g121
g116
F526.8504853625852
tp204
a(g116
g114
F692.7516666069633
tp205
a(g114
g124
F160.34018544896773
tp206
aF71.99699151748781
g201
S'2012-03-02 10:53:52'
p207
I0
F1379.9423374185164
F7.254306897523745
tp208
a((lp209
(g121
g121
F0.0
tp210
aF0.1108414412038628
g207
S'2012-03-02 10:54:52'
p211
I0
F1.8473573533977132
F6.856808623547644
tp212
a((lp213
(g121
g124
F848.0046397247232
tp214
a(g124
g134
F689.5118116434894
tp215
a(g134
g116
F187.57886423221828
tp216
aF17.395919148911904
g211
S'2012-03-02 11:00:49'
p217
I0
F1725.0953156004307
F29.713575615363226
tp218
a((lp219
(g121
g121
F0.0
tp220
aF0.03659582286174733
g217
S'2012-03-02 11:01:54'
p221
I0
F0.660757912781549
F1.9598935885039581
tp222
a((lp223
(g121
g121
F0.0
tp224
aF0.07187945277296891
g221
S'2012-03-02 11:04:54'
p225
I0
F3.5939726386484447
F6.137523158111193
tp226
a((lp227
(g121
g121
F0.0
tp228
aF0.05213630349378043
g225
S'2012-03-02 11:07:55'
p229
I0
F2.6212974812150716
F7.702623951800262
tp230
a((lp231
(g121
g121
F0.0
tp232
aF0.21426271023410717
g229
S'2012-03-02 11:13:18'
p233
I0
F19.22412650156017
F20.068447808853414
tp234
a((lp235
(g121
g121
F0.0
tp236
aF11.7097899684594
g233
S'2012-03-02 11:13:31'
p237
I0
F42.28535266388117
F42.573824289974134
tp238
a((lp239
(g121
g116
F476.5570640113901
tp240
a(g116
g106
F33.398041185718824
tp241
aF30.09571112638675
g237
S'2012-03-02 11:14:32'
p242
I12
F509.9551051971089
F24.562735169139984
tp243
a((lp244
(g111
g106
F386.21660166567744
tp245
a(g106
S'1139'
p246
F999.898841596365
tp247
a(g246
S'909'
p248
F384.6361930519455
tp249
a(g248
S'817'
p250
F286.06989179438705
tp251
a(g250
S'873'
p252
F214.99477288859876
tp253
a(g252
S'936'
p254
F117.95681148015007
tp255
a(g254
S'838'
p256
F69.57670137976064
tp257
aF45.87388253826313
g242
S'2012-03-02 11:17:45'
p258
I0
F2459.349813856885
F1433.6957423094293
tp259
a((lp260
(S'936'
p261
g256
F760.4613071739807
tp262
a(g256
S'936'
p263
F690.8846058389883
tp264
a(g263
S'791'
p265
F263.909236928096
tp266
a(g265
S'852'
p267
F337.0780255202255
tp268
aF77.77262559642786
g258
S'2012-03-02 11:19:20'
p269
I0
F2052.3331754612905
F81.98290029987432
tp270
a((lp271
(S'791'
p272
g272
F0.0
tp273
aF32.24146184771971
g269
S'2012-03-02 11:20:20'
p274
I44
F537.3576974619953
F537.7681227866699
tp275
a((lp276
(g272
g267
F52.30335043275929
tp277
a(g267
g83
F264.7955081021066
tp278
a(g83
S'1044'
p279
F190.77982886524313
tp280
aF57.136352332512274
g274
S'2012-03-02 11:20:52'
p281
I27
F507.8786874001091
F55.270946945593806
tp282
a((lp283
(g90
g279
F469.2039601328516
tp284
a(g279
S'778'
p285
F302.5121384580218
tp286
a(g285
S'963'
p287
F513.8652496215955
tp288
a(g287
S'994'
p289
F521.73314507341
tp290
a(g289
S'814'
p291
F352.23767639402104
tp292
aF8.905369771875876
g281
S'2012-03-02 11:35:25'
p293
I14
F2159.5521696798996
F1395.96754837781
tp294
a((lp295
(S'994'
p296
g291
F23.12472292847402
tp297
a(g291
S'792'
p298
F350.26427291339104
tp299
a(g298
S'1013'
p300
F441.0365406997711
tp301
a(g300
S'1376'
p302
F3427.8290189273157
tp303
a(g302
S'1300'
p304
F38.829505799381074
tp305
aF61.64761048226399
g293
S'2012-03-02 11:39:35'
p306
I24
F4281.084061268332
F4161.003691589744
tp307
a((lp308
(S'1376'
p309
g304
F265.8935410927663
tp310
a(g304
S'1378'
p311
F45.17677596929864
tp312
aF74.6568760948956
g306
S'2012-03-02 11:39:50'
p313
I44
F311.070317062065
F29.558804613372445
tp314
a((lp315
(S'1300'
p316
g311
F150.37581532560472
tp317
a(g311
S'1300'
p318
F195.5525912949026
tp319
a(g318
S'1328'
p320
F1023.4121880864786
tp321
a(g320
S'1384'
p322
F573.9604384116748
tp323
a(g322
S'1336'
p324
F270.0346910770018
tp325
a(g324
S'1268'
p326
F155.42560320927745
tp327
a(g326
S'1336'
p328
F266.5562949577174
tp329
aF49.41220541929984
g313
S'2012-03-02 11:43:02'
p330
I0
F2635.317622362658
F1601.1006372424472
tp331
a((lp332
(S'1268'
p333
g328
F111.13069175319424
tp334
a(g328
S'1384'
p335
F270.0346910770018
tp336
a(g335
S'1382'
p337
F446.6556103196644
tp338
a(g337
S'1284'
p339
F400.6414476384751
tp340
aF232.76130457042146
g330
S'2012-03-02 11:43:21'
p341
I0
F1228.4624407883355
F88.93931064919111
tp342
a((lp343
(S'1382'
p344
g339
F670.1692611585116
tp345
a(g339
S'1402'
p346
F532.13818844487
tp347
a(g346
S'451'
p348
F391.4745659135401
tp349
a(g348
S'268'
p350
F230.77345257950506
tp351
a(g350
S'451'
p352
F140.30940500249116
tp353
aF31.024182206825024
g341
S'2012-03-02 11:47:09'
p354
I50
F1964.864873098918
F1422.0821182229397
tp355
a((lp356
(S'268'
p357
g352
F90.46404757706625
tp358
a(g352
S'1402'
p359
F391.4745659135401
tp360
a(g359
S'1264'
p361
F381.4026240433355
tp362
aF53.586697502106745
g354
S'2012-03-02 11:48:07'
p363
I0
F863.3412375339419
F380.38106565246557
tp364
a((lp365
(S'1402'
p366
g361
F609.6371050934857
tp367
a(g361
S'1402'
p368
F228.23448105151797
tp369
a(g368
S'1284'
p370
F532.13818844487
tp371
a(g370
S'871'
p372
F37.546090106385904
tp373
aF32.90390333056192
g363
S'2012-03-02 11:50:41'
p374
I0
F1407.5558646962597
F690.1953921787897
tp375
a((lp376
(S'1284'
p377
g372
F768.6563816586723
tp378
a(g372
S'1382'
p379
F803.5379876651724
tp380
a(g379
S'1264'
p381
F491.1492433133898
tp382
a(g381
S'1344'
p383
F368.4326560017038
tp384
a(g383
S'1240'
p385
F250.84804103369407
tp386
aF160.95745858035798
g374
S'2012-03-02 11:51:41'
p387
I27
F2682.6243096726325
F844.4907364831449
tp388
a((lp389
(S'1344'
p390
g385
F30.2407123840573
tp391
a(g385
S'1377'
p392
F450.20487229242497
tp393
a(g392
S'1328'
p394
F328.35338240576175
tp395
a(g394
S'1300'
p396
F42.51830510811298
tp397
aF40.32555499849059
g387
S'2012-03-02 11:52:57'
p398
I44
F851.3172721903569
F477.99361862377185
tp399
a((lp400
(S'1328'
p401
g396
F980.8938829785731
tp402
a(g396
g311
F41.04223046509742
tp403
aF27.05125006174422
g398
S'2012-03-02 11:55:13'
p404
I42
F1021.9361134436705
F1022.3457307748785
tp405
a((lp406
(g316
g311
F154.5103608298061
tp407
a(g311
S'1373'
p408
F1248.079896567967
tp409
a(g408
S'1292'
p410
F27.771781069408316
tp411
aF37.31379230783951
g404
S'2012-03-02 11:57:31'
p412
I44
F1430.3620384671813
F1374.5065101782595
tp413
a((lp414
(S'1373'
p415
g410
F796.2174264892062
tp416
a(g410
S'873'
p417
F325.02351885534756
tp418
aF44.84963781378215
g412
S'2012-03-02 11:59:01'
p419
I0
F1121.240945344554
F834.8811927130953
tp420
a((lp421
(S'1292'
p422
g417
F5256.000347324655
tp423
a(g417
S'1154'
p424
F344.1081090526021
tp425
aF84.00162684565886
g419
S'2012-03-02 12:03:01'
p426
I57
F5600.108456377257
F4920.182596400434
tp427
a((lp428
(S'873'
p429
g424
F1003.7723068282816
tp430
a(g424
S'967'
p431
F633.0663908294133
tp432
a(g431
S'900'
p433
F217.51739317672622
tp434
a(g433
S'809'
p435
F177.22145297986563
tp436
aF121.89465262885722
g426
S'2012-03-02 12:04:01'
p437
I81
F2031.5775438142869
F1317.8585570517491
tp438
a((lp439
(S'900'
p440
g435
F852.015699410357
tp441
a(g435
S'900'
p442
F270.35991691294726
tp443
aF1.6962855662316942
g437
S'2012-03-02 12:43:43'
p444
I74
F1122.3756163233043
F582.3827725313054
tp445
a((lp446
(S'809'
p447
g442
F404.43432974030816
tp448
a(g442
S'1082'
p449
F405.2662958943754
tp450
a(g449
S'796'
p451
F137.28505847111882
tp452
a(g451
S'1032'
p453
F361.8967412680692
tp454
a(g453
S'1068'
p455
F287.5482508719534
tp456
a(g455
S'883'
p457
F115.05830496594493
tp458
a(g457
S'852'
p459
F493.65453187260397
tp460
aF37.27003120705985
g444
S'2012-03-02 12:47:16'
p461
I59
F2205.1435130843743
F991.0916892413499
tp462
a((lp463
(S'883'
p464
g459
F822.9394273175449
tp465
a(g459
S'883'
p466
F329.28489559744986
tp467
a(g466
S'1068'
p468
F115.05830496594493
tp469
a(g468
S'1032'
p470
F287.5482508719534
tp471
a(g470
S'838'
p472
F227.63652122124267
tp473
a(g472
S'1154'
p474
F11.16495966594466
tp475
aF92.24394992434699
g461
S'2012-03-02 12:48:26'
p476
I0
F1793.6323596400805
F568.5623403218046
tp477
a((lp478
(S'838'
p479
g474
F397.4378296616123
tp480
a(g474
S'1010'
p481
F507.7471347885134
tp482
a(g481
S'906'
p483
F1626.56736988427
tp484
a(g483
S'1010'
p485
F227.32133922378952
tp486
aF32.04085556390151
g476
S'2012-03-02 12:53:36'
p487
I12
F2759.073673558185
F2254.142697277273
tp488
a((lp489
(S'906'
p490
g485
F1399.246030781333
tp491
a(g485
S'827'
p492
F266.8104465605856
tp493
a(g492
g134
F689.5118116434894
tp494
a(g134
g116
F692.7516666069633
tp495
a(g116
g106
F73.69793579292663
tp496
aF204.35026198158317
g487
S'2012-03-02 12:54:31'
p497
I0
F3122.0178913852983
F25.644093471698152
tp498
a((lp499
(g111
g111
F0.0
tp500
aF10.724610962269107
g497
S'2012-03-02 12:55:44'
p501
I7
F217.47127784601244
F217.4973396283965
tp502
a((lp503
(g111
g111
F0.0
tp504
aF4.234816208062673
g501
S'2012-03-02 12:56:28'
p505
I29
F51.75886476521045
F267.06991226033756
tp506
a((lp507
(g111
g106
F9.890482093677633
tp508
a(g106
g104
F352.8185604851902
tp509
a(g104
g114
F692.7516666069633
tp510
a(g114
g124
F53.07479834937772
tp511
aF75.29675145522172
g505
S'2012-03-02 12:57:21'
p512
I0
F1108.5355075352088
F420.7368931517522
tp513
a((lp514
(g121
g121
F0.0
tp515
aF16.60265882628941
g512
S'2012-03-02 12:57:36'
p516
I0
F69.17774510953922
F69.44061157380288
tp517
a((lp518
(g121
g124
F673.408864884527
tp519
a(g124
S'909'
p520
F390.24923028502263
tp521
a(g520
g250
F286.06989179438705
tp522
a(g250
g252
F123.52258195886357
tp523
aF88.39503413536802
g516
S'2012-03-02 12:58:36'
p524
I37
F1473.2505689228003
F782.8547557176738
tp525
a((lp526
(S'817'
p527
g252
F338.51735484730517
tp528
a(g252
g254
F117.95681148015007
tp529
a(g254
g265
F263.909236928096
tp530
a(g265
S'1107'
p531
F103.72799176468529
tp532
aF74.17002555182128
g524
S'2012-03-02 12:59:16'
p533
I31
F824.1113950202365
F290.95770508159643
tp534
a((lp535
(g272
g531
F329.8623384328421
tp536
a(g531
g85
F226.13434667854332
tp537
a(g85
g92
F263.909236928096
tp538
a(g92
g265
F81.51264399001187
tp539
aF135.212784904424
g533
S'2012-03-02 12:59:40'
p540
I0
F901.4185660294933
F84.83540677973683
tp541
a((lp542
(g261
g265
F345.4218809173156
tp543
a(g265
g267
F252.5830223782035
tp544
a(g267
g466
F101.14379388043241
tp545
aF41.9489218305571
g540
S'2012-03-02 13:00:40'
p546
I44
F699.1486971759516
F633.4214629050081
tp547
a((lp548
(S'852'
p549
g466
F228.14110172556454
tp550
a(g466
g468
F115.05830496594493
tp551
a(g468
g470
F287.5482508719534
tp552
a(g470
S'796'
p553
F253.67345016236987
tp554
aF53.06526646354997
g546
S'2012-03-02 13:01:40'
p555
I27
F884.4211077258328
F277.70967277795194
tp556
a((lp557
(S'1032'
p558
g553
F615.570191364686
tp559
a(g553
S'988'
p560
F37.46020309095503
tp561
a(g560
S'777'
p562
F428.69502991180303
tp563
a(g562
S'1185'
p564
F465.5645320107461
tp565
a(g564
S'1073'
p566
F401.933419412357
tp567
a(g566
S'987'
p568
F585.3164976896943
tp569
a(g568
S'1189'
p570
F541.0596802687863
tp571
a(g570
S'887'
p572
F211.8840444636607
tp573
a(g572
g49
F68.72443874053008
tp574
aF33.469110617816035
g555
S'2012-03-02 13:07:41'
p575
I18
F3356.2080369532187
F2873.805218045228
tp576
a((lp577
(S'887'
p578
g49
F974.0552760937292
tp579
a(g49
g51
F247.7378419176489
tp580
a(g51
S'1069'
p581
F300.1901722143531
tp582
a(g581
S'860'
p583
F231.70867622577373
tp584
a(g583
S'1030'
p585
F230.54817177966603
tp586
a(g585
S'1215'
p587
F229.64658602255514
tp588
a(g587
S'799'
p589
F251.24471002425415
tp590
aF35.64045447148888
g575
S'2012-03-02 13:11:50'
p591
I18
F2465.1314342779806
F1518.697327832599
tp592
a((lp593
(S'1215'
p594
g589
F467.8458851913175
tp595
a(g589
S'921'
p596
F138.23991683994163
tp597
a(g596
S'927'
p598
F195.5482192140499
tp599
a(g598
S'1135'
p600
F240.4485615059529
tp601
a(g600
S'982'
p602
F339.72920780052175
tp603
aF57.843284255656066
g591
S'2012-03-02 13:13:16'
p604
I0
F1381.8117905517838
F461.8283472122883
tp605
a((lp606
(S'1135'
p607
g602
F860.3875703346608
tp608
a(g602
S'1135'
p609
F520.658362716069
tp610
a(g609
S'927'
p611
F240.4485615059529
tp612
a(g611
S'959'
p613
F106.9390388791336
tp614
a(g613
S'1213'
p615
F281.7053715297655
tp616
aF120.6083342979349
g604
S'2012-03-02 13:14:16'
p617
I0
F2010.1389049655818
F75.59582578423434
tp618
a((lp619
(S'959'
p620
g615
F440.97891271387056
tp621
a(g615
S'959'
p622
F159.27354120793285
tp623
a(g622
S'927'
p624
F106.9390388791336
tp625
a(g624
S'921'
p626
F195.5482192140499
tp627
a(g626
S'813'
p628
F182.17650096521103
tp629
a(g628
S'955'
p630
F56.66466961496389
tp631
a(g630
S'844'
p632
F135.70247565144197
tp633
a(g632
S'1045'
p634
F161.05814139702346
tp635
a(g634
S'1218'
p636
F380.2508287917065
tp637
a(g636
S'1191'
p638
F103.34486290292645
tp639
aF115.31623148029563
g617
S'2012-03-02 13:15:16'
p640
I35
F1921.9371913382604
F599.116437637886
tp641
a((lp642
(S'1218'
p643
g638
F368.09909093924625
tp644
a(g638
S'1218'
p645
F264.7542280364345
tp646
a(g645
S'1045'
p647
F197.82320751260932
tp648
aF90.6192574350862
g640
S'2012-03-02 13:15:49'
p649
I51
F830.67652648829
F235.70668038492403
tp650
a((lp651
(g643
g647
F578.0740363021326
tp652
a(g647
g636
F380.2508287917065
tp653
a(g636
g638
F264.7542280364345
tp654
a(g638
S'1124'
p655
F348.66405624127844
tp656
a(g655
S'1135'
p657
F281.5363174119469
tp658
aF65.40986353353526
g649
S'2012-03-02 13:17:31'
p659
I0
F1853.2794667834992
F344.5203652226577
tp660
a((lp661
(S'1124'
p662
g657
F583.2368600730532
tp663
a(g657
g611
F240.4485615059529
tp664
a(g611
g613
F106.9390388791336
tp665
a(g613
g615
F334.6079926821748
tp666
aF54.22424799172777
g659
S'2012-03-02 13:18:55'
p667
I24
F1265.2324531403146
F537.9275924419031
tp668
a((lp669
(g620
g615
F493.88153385835415
tp670
a(g615
g622
F159.27354120793285
tp671
a(g622
S'806'
p672
F197.56237677218394
tp673
a(g672
S'1020'
p674
F287.06067533326984
tp675
aF74.4727501421503
g667
S'2012-03-02 13:19:50'
p676
I0
F1137.7781271717408
F65.52031754397112
tp677
a((lp678
(S'806'
p679
g674
F424.57030244406866
tp680
a(g674
S'1170'
p681
F201.74042609344684
tp682
a(g681
S'1066'
p683
F134.29559832461862
tp684
a(g683
S'1213'
p685
F126.00604095646439
tp686
a(g685
g622
F133.26947301716973
tp687
aF20.39763681671537
g676
S'2012-03-02 13:22:50'
p688
I33
F1019.8818408357683
F581.076067212372
tp689
a((lp690
(S'1213'
p691
g622
F26.004068191612586
tp692
a(g622
g624
F106.9390388791336
tp693
a(g624
g626
F195.5482192140499
tp694
a(g626
S'799'
p695
F206.35289399839843
tp696
aF1925.4391930195004
g688
S'2012-03-02 13:22:51'
p697
I0
F534.8442202831945
F1.234263686108017
tp698
a((lp699
(S'921'
p700
g695
F344.5928108268086
tp701
a(g695
S'1207'
p702
F101.1060544565955
tp703
a(g702
S'806'
p704
F141.0377369821515
tp705
a(g704
S'959'
p706
F197.56237677218394
tp707
a(g706
S'1170'
p708
F135.9977572931447
tp709
a(g708
g683
F134.29559832461862
tp710
a(g683
g685
F44.00833711634497
tp711
aF197.7481209189326
g697
S'2012-03-02 13:23:11'
p712
I0
F1098.6006717718478
F21.756900323205418
tp713
a((lp714
(S'1066'
p715
g685
F170.0143780723522
tp716
a(g685
g622
F159.27354120793285
tp717
a(g622
g624
F106.9390388791336
tp718
a(g624
g600
F240.4485615059529
tp719
a(g600
S'1124'
p720
F864.7731774810748
tp721
a(g720
S'1009'
p722
F343.5463299595581
tp723
a(g722
S'1007'
p724
F181.89916111234763
tp725
aF62.006825646550574
g712
S'2012-03-02 13:25:11'
p726
I29
F2066.894188218352
F1271.2906946427638
tp727
a((lp728
(S'1009'
p729
g729
F0.0
tp730
aF7.409026240903976
g726
S'2012-03-02 13:26:56'
p731
I83
F216.0965986930326
F216.1207527487913
tp732
a((lp733
(g729
g724
F647.1577761272321
tp734
a(g724
S'814'
p735
F399.2836900504582
tp736
a(g735
S'994'
p737
F375.362399322151
tp738
a(g737
S'963'
p739
F36.30499366359134
tp740
aF48.15772378888402
g731
S'2012-03-02 13:28:45'
p741
I46
F1458.1088591634327
F1382.1192858597026
tp742
a((lp743
(g296
g739
F558.0381387320042
tp744
a(g739
S'778'
p745
F79.53703719585783
tp746
aF25.789557677980937
g741
S'2012-03-02 13:30:14'
p747
I0
F637.575175927862
F1036.2712885713556
tp748
a((lp749
(S'963'
p750
g745
F593.4022867855798
tp751
a(g745
S'833'
p752
F579.573448966089
tp753
a(g752
S'1128'
p754
F304.26348633257396
tp755
a(g754
S'903'
p756
F276.93091669774793
tp757
a(g756
S'777'
p758
F350.9006773558848
tp759
a(g758
g564
F465.5645320107461
tp760
a(g564
g566
F401.933419412357
tp761
a(g566
g568
F585.3164976896943
tp762
a(g568
g570
F541.0596802687863
tp763
a(g570
g572
F211.8840444636607
tp764
a(g572
g38
F974.3320508593303
tp765
a(g38
g40
F108.42347341772006
tp766
a(g40
S'929'
p767
F138.91582185729666
tp768
a(g767
g15
F303.12038890948725
tp769
a(g15
g17
F82.01156142123234
tp770
a(g17
S'263'
p771
F445.7984204400668
tp772
a(g771
S'1115'
p773
F441.86847376905
tp774
aF3.311581109808907
g747
S'2012-03-02 15:33:32'
p775
I35
F6805.299180657304
F5922.922043600355
tp776
a((lp777
(S'263'
p778
g773
F914.2891305489285
tp779
a(g773
S'842'
p780
F509.6129296096181
tp781
a(g780
g29
F187.4710149055198
tp782
aF42.3426501476689
g775
S'2012-03-02 15:35:49'
p783
I35
F1611.3730750640664
F1226.4603884627725
tp784
a((lp785
(g46
g29
F79.04754148929203
tp786
a(g29
g31
F974.3320508593303
tp787
a(g31
S'1189'
p788
F211.8840444636607
tp789
a(g788
S'987'
p790
F541.0596802687863
tp791
a(g790
S'1229'
p792
F828.6057404004235
tp793
a(g792
S'895'
p794
F187.2073226897733
tp795
aF26.665855560673386
g783
S'2012-03-02 15:42:10'
p796
I0
F2822.1363801712664
F1860.7894764330692
tp797
a((lp798
(S'1229'
p799
g799
F0.0
tp800
aF11.198663630679144
g796
S'2012-03-02 15:43:32'
p801
I42
F255.0806715876916
F255.074927275997
tp802
a((lp803
(g799
g794
F181.49642796063407
tp804
a(g794
S'973'
p805
F444.35669521011835
tp806
a(g805
S'1191'
p807
F405.97801206731145
tp808
aF64.0446911527074
g801
S'2012-03-02 15:44:30'
p809
I25
F1031.8311352380638
F219.57221046768078
tp810
a((lp811
(S'973'
p812
g807
F818.3871455604474
tp813
a(g807
g655
F348.66405624127844
tp814
a(g655
g722
F493.09146169441385
tp815
aF99.60855980976837
g809
S'2012-03-02 15:45:30'
p816
I33
F1660.1426634961394
F673.8898078611883
tp817
a((lp818
(g662
g722
F836.6377914924842
tp819
a(g722
S'1122'
p820
F52.21216684106311
tp821
aF28.31734380531655
g816
S'2012-03-02 15:47:23'
p822
I33
F888.8499583335473
F784.8050990936598
tp823
a((lp824
(g729
g820
F455.21725310842703
tp825
a(g820
S'804'
p826
F936.7254302074238
tp827
a(g826
S'888'
p828
F436.4498289725836
tp829
a(g828
S'1213'
p830
F398.42229143270566
tp831
a(g830
S'1059'
p832
F375.3468968992887
tp833
aF68.88075089877606
g822
S'2012-03-02 15:49:39'
p834
I22
F2602.1617006204287
F1455.2256181722025
tp835
a((lp836
(g691
g832
F399.6945678308663
tp837
a(g832
S'1213'
p838
F24.347670935949793
tp839
a(g838
S'1066'
p840
F106.26221006673762
tp841
aF173.55418325461758
g834
S'2012-03-02 15:49:50'
p842
I0
F530.3044488335537
F82.10118221692326
tp843
a((lp844
(g691
g840
F19.743830889944764
tp845
a(g840
S'1170'
p846
F134.29559832461862
tp847
a(g846
S'1020'
p848
F201.74042609344684
tp849
a(g848
S'1145'
p850
F138.3852165812993
tp851
a(g850
S'1104'
p852
F725.1024325879025
tp853
a(g852
S'1209'
p854
F340.0113446486208
tp855
a(g854
S'1222'
p856
F529.8005662370716
tp857
a(g856
S'233'
p858
F314.42150737049457
tp859
a(g858
S'1158'
p860
F505.9919712639641
tp861
a(g860
S'371'
p862
F343.4160234801613
tp863
a(g862
S'323'
p864
F502.52151206068487
tp865
a(g864
S'195'
p866
F899.3736486026992
tp867
a(g866
S'160'
p868
F1654.504702992569
tp869
a(g868
S'348'
p870
F749.9190888032648
tp871
a(g870
S'40'
p872
F401.59962843252373
tp873
a(g872
S'400'
p874
F175.03635260490466
tp875
a(g874
S'359'
p876
F368.9484986175782
tp877
a(g876
S'149'
p878
F214.5001502809245
tp879
a(g878
S'115'
p880
F279.2751738259168
tp881
a(g880
S'448'
p882
F131.96675629555088
tp883
a(g882
S'288'
p884
F161.32840893425416
tp885
a(g884
S'46'
p886
F207.11456331019647
tp887
aF80.58803643795756
g842
S'2012-03-02 15:56:32'
p888
I42
F8998.997402238594
F3289.157193758284
tp889
a((lp890
(S'288'
p891
g886
F353.73579640340483
tp892
a(g886
S'288'
p893
F146.62123309864816
tp894
a(g893
S'448'
p895
F161.32840893425416
tp896
a(g895
S'115'
p897
F131.96675629555088
tp898
a(g897
g882
F370.9810703530968
tp899
aF246.6282208415199
g888
S'2012-03-02 15:56:49'
p900
I0
F1164.633265084955
F85.11768776450945
tp901
a((lp902
(S'115'
p903
g882
F239.01431407281305
tp904
a(g882
g884
F161.32840893425416
tp905
a(g884
S'461'
p906
F213.86956785060167
tp907
a(g906
S'76'
p908
F209.84399480520491
tp909
a(g908
S'39'
p910
F384.48890299753157
tp911
a(g910
S'85'
p912
F233.82885610286075
tp913
a(g912
S'223'
p914
F186.91338092701662
tp915
a(g914
S'249'
p916
F158.54371200493
tp917
a(g916
S'444'
p918
F192.01126587807087
tp919
a(g918
S'249'
p920
F272.22088873639416
tp921
aF92.12986195812319
g900
S'2012-03-02 15:58:17'
p922
I48
F2252.0632923096778
F750.2056796627079
tp923
a((lp924
(S'444'
p925
g920
F80.20962286219309
tp926
a(g920
S'105'
p927
F575.8476902730262
tp928
a(g927
S'157'
p929
F366.4817423643772
tp930
a(g929
S'105'
p931
F383.35065318821836
tp932
aF50.61202951276134
g922
S'2012-03-02 15:59:57'
p933
I0
F1405.8897086878148
F916.2876655132814
tp934
a((lp935
(S'157'
p936
g931
F16.868910826642434
tp937
a(g931
S'249'
p938
F575.8476902730262
tp939
a(g938
g918
F192.01126587807087
tp940
a(g918
S'456'
p941
F462.01268389214846
tp942
aF47.747510458846776
g933
S'2012-03-02 16:01:31'
p943
I0
F1246.740550869888
F981.9879816417338
tp944
a((lp945
(g925
g941
F76.51862672635981
tp946
a(g941
S'85'
p947
F200.88497800248174
tp948
a(g947
g914
F186.91338092701662
tp949
a(g914
S'85'
p950
F372.71389877063285
tp951
aF167.40617688529818
g943
S'2012-03-02 16:01:49'
p952
I68
F837.030884426491
F102.85132716045142
tp953
a((lp954
(S'223'
p955
g955
F0.0
tp956
aF18.057560259894462
g952
S'2012-03-02 16:02:00'
p957
I0
F55.17587857189974
F55.509111210209205
tp958
a((lp959
(g955
g950
F240.97639642919628
tp960
a(g950
S'39'
p961
F233.82885610286075
tp962
a(g961
S'76'
p963
F384.48890299753157
tp964
a(g963
S'461'
p965
F209.84399480520491
tp966
a(g965
S'288'
p967
F213.86956785060167
tp968
a(g967
g886
F49.4565581145425
tp969
aF79.94785657799626
g957
S'2012-03-02 16:03:00'
p970
I29
F1332.4642762999376
F599.2920398912668
tp971
a((lp972
(g891
g886
F196.07779121249243
tp973
a(g886
S'107'
p974
F327.4845229639087
tp975
a(g974
S'131'
p976
F269.0371341692761
tp977
a(g976
S'465'
p978
F101.21446295103357
tp979
aF53.62883467780265
g970
S'2012-03-02 16:04:00'
p980
I55
F893.8139112967108
F531.4641272350359
tp981
a((lp982
(S'131'
p983
g978
F938.9392313322544
tp984
a(g978
S'312'
p985
F228.23397121372273
tp986
aF70.03039215275864
g980
S'2012-03-02 16:05:00'
p987
I12
F1167.1732025459771
F754.9489676931975
tp988
a((lp989
(S'465'
p990
g985
F703.3874123343652
tp991
a(g985
S'465'
p992
F475.1534412115984
tp993
a(g992
S'222'
p994
F466.44047236001694
tp995
aF120.85577088288838
g987
S'2012-03-02 16:05:49'
p996
I77
F1644.9813259059806
F496.27287260508706
tp997
a((lp998
(g990
g990
F0.0
tp999
aF0.4213761788435484
g996
S'2012-03-02 16:05:51'
p1000
I0
F0.23409787713530467
F0.244628839019434
tp1001
a((lp1002
(g990
g990
F0.0
tp1003
aF0.144160325324813
g1000
S'2012-03-02 16:06:51'
p1004
I0
F2.402672088746883
F2.6027331325434786
tp1005
a((lp1006
(g990
g994
F192.39827870087836
tp1007
a(g994
S'148'
p1008
F469.607614717815
tp1009
a(g1008
S'222'
p1010
F462.80265001378416
tp1011
aF38.56486434625637
g1004
S'2012-03-02 16:08:36'
p1012
I0
F1124.8085434324776
F18.107328380533694
tp1013
a((lp1014
(S'148'
p1015
g1010
F6.804964705692595
tp1016
a(g1010
S'465'
p1017
F661.4755210137
tp1018
a(g1017
S'131'
p1019
F72.29826723266564
tp1020
aF33.74789253958746
g1012
S'2012-03-02 16:09:55'
p1021
I0
F740.5787529520583
F3.9033796670856047
tp1022
a((lp1023
(g990
g1019
F910.023035642702
tp1024
a(g1019
g978
F837.7247684747507
tp1025
a(g978
g994
F447.89715175594523
tp1026
aF101.33745950184914
g1021
S'2012-03-02 16:11:13'
p1027
I0
F2195.644955873398
F17.136364118071832
tp1028
a((lp1029
(g990
g994
F213.5783692714845
tp1030
a(g994
g1008
F469.607614717815
tp1031
a(g1008
S'226'
p1032
F259.562979016379
tp1033
aF39.92819137435816
g1027
S'2012-03-02 16:12:38'
p1034
I0
F942.7489630056785
F0.9821195119396361
tp1035
a((lp1036
(g1015
g1032
F207.09687518169764
tp1037
a(g1032
S'148'
p1038
F466.65985419310493
tp1039
a(g1038
g1010
F469.607614717815
tp1040
a(g1010
g1017
F249.32365869399916
tp1041
aF385.6674469255247
g1034
S'2012-03-02 16:12:51'
p1042
I0
F1392.6880027866168
F37.53138153987132
tp1043
a((lp1044
(S'222'
p1045
g1017
F412.1518623344504
tp1046
a(g1017
g985
F475.1534412115984
tp1047
a(g985
S'27'
p1048
F335.3367748423742
tp1049
a(g1048
S'423'
p1050
F360.14779166603097
tp1051
a(g1050
S'348'
p1052
F401.7062149289834
tp1053
a(g1052
S'160'
p1054
F749.9190888032648
tp1055
a(g1054
S'195'
p1056
F1654.504702992569
tp1057
a(g1056
S'323'
p1058
F899.3736486026992
tp1059
a(g1058
S'371'
p1060
F502.52151206068487
tp1061
a(g1060
S'1158'
p1062
F343.4160234801613
tp1063
a(g1062
S'233'
p1064
F505.9919712639641
tp1065
a(g1064
S'324'
p1066
F522.2079091612247
tp1067
a(g1066
S'12'
p1068
F348.33486400960794
tp1069
a(g1068
S'307'
p1070
F336.87317808984017
tp1071
a(g1070
S'101'
p1072
F516.3741780275716
tp1073
a(g1072
S'923'
p1074
F107.9101987722199
tp1075
aF127.07885040370869
g1042
S'2012-03-02 16:16:51'
p1076
I27
F8471.923360247245
F2830.9669776677133
tp1077
a((lp1078
(S'101'
p1079
g1074
F1038.2707388372792
tp1080
a(g1074
S'1066'
p1081
F407.53435205726896
tp1082
a(g1081
g685
F126.00604095646439
tp1083
a(g685
S'888'
p1084
F290.0111175950588
tp1085
aF58.79438682461278
g1076
S'2012-03-02 16:18:45'
p1086
I75
F1861.8222494460713
F974.4747976143977
tp1087
a((lp1088
(g691
g1084
F108.41117385240103
tp1089
a(g1084
S'804'
p1090
F436.4498289725836
tp1091
a(g1090
S'982'
p1092
F140.04113628613734
tp1093
a(g1092
S'1009'
p1094
F754.638799327876
tp1095
a(g1094
g724
F1.804851244763063
tp1096
aF29.150813723941237
g1086
S'2012-03-02 16:21:43'
p1097
I0
F1441.3457896837613
F1677.7891411515543
tp1098
a((lp1099
(g729
g724
F679.5503624623888
tp1100
a(g724
g735
F190.05496565855682
tp1101
aF52.17631968725674
g1097
S'2012-03-02 16:22:43'
p1102
I40
F869.6053281209456
F869.9176188577702
tp1103
a((lp1104
(S'1007'
p1105
g735
F209.228724392791
tp1106
a(g735
g737
F375.362399322151
tp1107
a(g737
S'1162'
p1108
F31.18173991386107
tp1109
aF100.76283223016777
g1102
S'2012-03-02 16:23:05'
p1110
I66
F615.7728636288031
F163.29835412584075
tp1111
a((lp1112
(g296
g1108
F396.8298214048349
tp1113
a(g1108
S'792'
p1114
F393.5275279288238
tp1115
a(g1114
S'814'
p1116
F350.26427291339104
tp1117
a(g1116
S'1007'
p1118
F399.2836900504582
tp1119
a(g1118
g735
F433.33742840845343
tp1120
aF284.14695466165847
g1110
S'2012-03-02 16:23:30'
p1121
I0
F1973.2427407059613
F80.0709173889112
tp1122
a((lp1123
(g1105
g735
F34.053738358309786
tp1124
a(g735
g737
F375.362399322151
tp1125
a(g737
g739
F521.73314507341
tp1126
a(g739
g745
F513.8652496215955
tp1127
a(g745
S'1044'
p1128
F302.5121384580218
tp1129
a(g1128
S'1107'
p1130
F278.424131296127
tp1131
a(g1130
g85
F226.13434667854332
tp1132
a(g85
g92
F263.909236928096
tp1133
a(g92
g94
F117.95681148015007
tp1134
a(g94
g96
F214.99477288859876
tp1135
a(g96
g98
F286.06989179438705
tp1136
a(g98
g100
F384.6361930519455
tp1137
a(g100
g102
F999.898841596365
tp1138
a(g102
S'1113'
p1139
F282.7294827992773
tp1140
a(g1139
S'906'
p1141
F437.97690305928205
tp1142
aF61.449271064047345
g1121
S'2012-03-02 16:28:37'
p1143
I48
F5240.25728240626
F3642.852164097714
tp1144
a((lp1145
(S'1113'
p1146
g1141
F942.1553483467384
tp1147
a(g1141
S'830'
p1148
F1055.3265253741486
tp1149
a(g1148
S'942'
p1150
F565.0355820413071
tp1151
a(g1150
S'1056'
p1152
F259.19830405018683
tp1153
a(g1152
S'1015'
p1154
F555.5730496771731
tp1155
a(g1154
S'1056'
p1156
F120.05515938952625
tp1157
aF199.84822679309028
g1143
S'2012-03-02 16:29:40'
p1158
I0
F3497.34396887908
F58.57247658532979
tp1159
a((lp1160
(S'1015'
p1161
g1156
F675.6282090666109
tp1162
a(g1156
S'942'
p1163
F301.6876440954506
tp1164
aF23.455580475889477
g1158
S'2012-03-02 16:32:10'
p1165
I7
F977.3158531620616
F374.59275609495364
tp1166
a((lp1167
(S'1056'
p1168
g1168
F0.0
tp1169
aF13.304029965744276
g1165
S'2012-03-02 16:34:10'
p1170
I12
F443.46766552480915
F443.48185052964413
tp1171
a((lp1172
(g1168
g1168
F0.0
tp1173
aF7.651960546303466
g1170
S'2012-03-02 16:35:00'
p1174
I22
F106.27722980977036
F106.27706064374905
tp1175
a((lp1176
(g1168
g1163
F11.14105281104175
tp1177
a(g1163
S'830'
p1178
F565.0355820413071
tp1179
a(g1178
S'906'
p1180
F1055.3265253741486
tp1181
a(g1180
g485
F1626.56736988427
tp1182
a(g485
S'1154'
p1183
F507.7471347885134
tp1184
a(g1183
g431
F633.0663908294133
tp1185
a(g431
S'1127'
p1186
F190.65766483400054
tp1187
a(g1186
S'988'
p1188
F152.49726409143645
tp1189
a(g1188
g562
F428.69502991180303
tp1190
a(g562
g564
F465.5645320107461
tp1191
a(g564
g566
F401.933419412357
tp1192
a(g566
g568
F585.3164976896943
tp1193
a(g568
g570
F541.0596802687863
tp1194
a(g570
g572
F211.8840444636607
tp1195
a(g572
g38
F974.3320508593303
tp1196
a(g38
g40
F108.42347341772006
tp1197
a(g40
g767
F138.91582185729666
tp1198
a(g767
g15
F303.12038890948725
tp1199
a(g15
S'203'
p1200
F110.55925503297553
tp1201
a(g1200
S'431'
p1202
F369.98613606887915
tp1203
a(g1202
S'392'
p1204
F457.83618440901
tp1205
a(g1204
S'431'
p1206
F36.37560291989022
tp1207
aF4.80650912083125
g1174
S'2012-03-02 18:38:17'
p1208
I22
F9876.041101885767
F9166.78695315836
tp1209
a((lp1210
(S'392'
p1211
g1206
F421.46058149654016
tp1212
a(g1206
g3
F369.98613606887915
tp1213
a(g3
g5
F110.55925503297553
tp1214
a(g5
g7
F303.12038890948725
tp1215
a(g7
g15
F482.5537475761018
tp1216
aF13.150754096758316
g1208
S'2012-03-02 18:45:59'
p1217
I59
F1687.6801090839838
F1645.200754847161
tp1218
a((lp1219
(S'929'
p1220
g1220
F0.0
tp1221
aF6.998912454467232
g1217
S'2012-03-02 18:46:37'
p1222
I20
F73.87740924159856
F73.78535371669206
tp1223
a((lp1224
(g1220
g15
F711.7967272170052
tp1225
a(g15
g7
F303.12038890948725
tp1226
a(g7
g27
F138.91582185729666
tp1227
a(g27
S'1115'
p1228
F67.79781249220859
tp1229
aF169.14887314283047
g1222
S'2012-03-02 18:47:03'
p1230
I5
F1221.6307504759977
F51.78209278720503
tp1231
a((lp1232
(g46
g1228
F577.4107420780215
tp1233
a(g1228
g780
F509.6129296096181
tp1234
a(g780
g767
F151.1809585993147
tp1235
aF23.33788831954469
g1230
S'2012-03-02 18:50:14'
p1236
I0
F1238.2046302869542
F366.737465305206
tp1237
a((lp1238
(g46
g767
F12.265537009282134
tp1239
a(g767
g15
F303.12038890948725
tp1240
a(g15
g1200
F249.68308257308055
tp1241
aF56.506900849184994
g1236
S'2012-03-02 18:50:50'
p1242
I1
F565.0690084918499
F46.95200036541795
tp1243
a((lp1244
(g13
g1200
F360.2423376022977
tp1245
a(g1200
g5
F110.55925503297553
tp1246
a(g5
g7
F303.12038890948725
tp1247
a(g7
g15
F198.60792274603085
tp1248
aF97.25299042907913
g1242
S'2012-03-02 18:51:26'
p1249
I27
F972.5299042907914
F145.6175112628628
tp1250
a((lp1251
(g1220
g15
F104.51246616575621
tp1252
a(g15
g1200
F110.55925503297553
tp1253
a(g1200
g1202
F369.98613606887915
tp1254
a(g1202
g1204
F457.83618440901
tp1255
a(g1204
S'270'
p1256
F95.85961614434376
tp1257
a(g1256
S'433'
p1258
F330.3168336032497
tp1259
a(g1258
S'372'
p1260
F585.0976094380715
tp1261
a(g1260
S'97'
p1262
F63.758701035611004
tp1263
a(g1262
S'413'
p1264
F1079.6824743926077
tp1265
a(g1264
S'182'
p1266
F501.6805211022033
tp1267
a(g1266
S'58'
p1268
F431.85348099167265
tp1269
aF47.51474697183313
g1249
S'2012-03-02 18:56:39'
p1270
I0
F4131.14327838438
F3084.1021545540743
tp1271
a((lp1272
(S'182'
p1273
g1268
F1481.942812843597
tp1274
a(g1268
S'182'
p1275
F1050.0893319780932
tp1276
a(g1275
S'413'
p1277
F501.6805211022033
tp1278
a(g1277
S'97'
p1279
F1079.6824743926077
tp1280
a(g1279
S'372'
p1281
F63.758701035611004
tp1282
a(g1281
S'433'
p1283
F585.0976094380715
tp1284
a(g1283
S'270'
p1285
F330.3168336032497
tp1286
a(g1285
S'392'
p1287
F95.85961614434376
tp1288
a(g1287
g1206
F411.91915076564237
tp1289
aF12.204146116641835
g1270
S'2012-03-02 19:24:11'
p1290
I66
F5600.34705130342
F2525.5048667881047
tp1291
a((lp1292
(g1211
g1206
F45.91703365252286
tp1293
a(g1206
g3
F369.98613606887915
tp1294
a(g3
g5
F110.55925503297553
tp1295
a(g5
g7
F303.12038890948725
tp1296
a(g7
g27
F138.91582185729666
tp1297
a(g27
g29
F108.42347341772006
tp1298
a(g29
g31
F974.3320508593303
tp1299
a(g31
g788
F211.8840444636607
tp1300
a(g788
g790
F541.0596802687863
tp1301
a(g790
S'1073'
p1302
F585.3164976896943
tp1303
a(g1302
S'1185'
p1304
F401.933419412357
tp1305
a(g1304
S'777'
p1306
F441.09869701746476
tp1307
aF84.65092997300349
g1290
S'2012-03-02 19:27:11'
p1308
I75
F4232.546498650175
F3305.445858916903
tp1309
a((lp1310
(S'1185'
p1311
g1306
F906.6632290092994
tp1312
a(g1306
g564
F465.5645320107461
tp1313
a(g564
g566
F401.933419412357
tp1314
a(g566
g1304
F470.1365721219712
tp1315
aF91.8121807863153
g1308
S'2012-03-02 19:28:39'
p1316
I57
F2244.297752554374
F514.7448131999513
tp1317
a((lp1318
(S'1073'
p1319
g1304
F68.20315271451226
tp1320
a(g1304
S'1061'
p1321
F373.27393365369306
tp1322
a(g1321
S'1185'
p1323
F272.42824144675103
tp1324
aF57.11242622519651
g1316
S'2012-03-02 19:29:24'
p1325
I37
F713.9053278149563
F338.08190887115524
tp1326
a((lp1327
(S'1061'
p1328
g1323
F100.84569221877061
tp1329
a(g1323
g1306
F465.5645320107461
tp1330
a(g1306
S'903'
p1331
F350.9006773558848
tp1332
a(g1331
S'1128'
p1333
F276.93091669774793
tp1334
a(g1333
S'833'
p1335
F304.26348633257396
tp1336
a(g1335
S'778'
p1337
F579.573448966089
tp1338
a(g1337
g287
F300.9099460161087
tp1339
aF59.064547024500115
g1325
S'2012-03-02 19:31:49'
p1340
I0
F2378.9886995979214
F1228.2573429878369
tp1341
a((lp1342
(S'778'
p1343
g287
F814.7751954718143
tp1344
a(g287
g745
F513.8652496215955
tp1345
a(g745
g1128
F302.5121384580218
tp1346
a(g1128
g1130
F387.84471575251627
tp1347
aF105.33898952890164
g1340
S'2012-03-02 19:32:58'
p1348
I29
F2018.997299303948
F751.4071349117492
tp1349
a((lp1350
(S'1044'
p1351
g1130
F666.2688469666264
tp1352
a(g1130
g279
F278.424131296127
tp1353
a(g279
g285
F302.5121384580218
tp1354
a(g285
g287
F497.29947303495413
tp1355
aF133.62162815150268
g1348
S'2012-03-02 19:33:45'
p1356
I0
F1744.5045897557293
F46.59586782478602
tp1357
a((lp1358
(g1343
g287
F16.565776592289637
tp1359
a(g287
g289
F521.73314507341
tp1360
a(g289
g291
F375.362399322151
tp1361
a(g291
g298
F350.26427291339104
tp1362
a(g298
S'1162'
p1363
F65.50457915132186
tp1364
aF21.558327130582114
g1356
S'2012-03-02 19:37:27'
p1365
I20
F1329.4301730525638
F1293.8226928252168
tp1366
a((lp1367
(S'792'
p1368
g1363
F328.0229487775763
tp1369
a(g1363
S'1211'
p1370
F406.8549740484425
tp1371
a(g1370
S'1162'
p1372
F334.8257646452999
tp1373
aF64.18222124827913
g1365
S'2012-03-02 19:38:27'
p1374
I22
F1069.7036874713187
F463.2785707239129
tp1375
a((lp1376
(S'1211'
p1377
g1372
F72.02920941436534
tp1378
a(g1372
S'994'
p1379
F280.94475365408175
tp1380
aF33.439638606484465
g1374
S'2012-03-02 19:39:05'
p1381
I38
F352.9739630684471
F350.5954254189293
tp1382
a((lp1383
(S'1162'
p1384
g1379
F147.06680767887613
tp1385
a(g1379
g739
F521.73314507341
tp1386
a(g739
g745
F297.8846603646813
tp1387
aF28.06503715500873
g1381
S'2012-03-02 19:41:09'
p1388
I40
F966.6846131169674
F661.2742288242737
tp1389
a((lp1390
(g750
g745
F215.98058930053477
tp1391
a(g745
g1128
F302.5121384580218
tp1392
a(g1128
g1130
F11.341478610036551
tp1393
aF33.46321303380589
g1388
S'2012-03-02 19:42:06'
p1394
I40
F529.8342063685932
F216.98770936494842
tp1395
a((lp1396
(g1351
g1130
F267.0826526868937
tp1397
a(g1130
S'852'
p1398
F193.22650043951586
tp1399
aF276.18549187584574
g1394
S'2012-03-02 19:42:12'
p1400
I0
F460.30915312640957
F0.989634847088583
tp1401
a((lp1402
(g90
g1398
F458.02200851035803
tp1403
a(g1398
S'791'
p1404
F252.5830223782035
tp1405
a(g1404
g92
F263.909236928096
tp1406
a(g92
g94
F117.95681148015007
tp1407
a(g94
S'1292'
p1408
F5581.023855259741
tp1409
a(g1408
S'1286'
p1410
F873.144134384409
tp1411
a(g1410
S'1250'
p1412
F204.88150175530103
tp1413
a(g1412
S'1261'
p1414
F299.5365199052857
tp1415
a(g1414
S'1247'
p1416
F452.9041865730224
tp1417
a(g1416
S'1261'
p1418
F486.95997903718006
tp1419
aF68.14171899444692
g1400
S'2012-03-02 19:50:07'
p1420
I0
F8990.921256211746
F6334.9443393741685
tp1421
a((lp1422
(S'1247'
p1423
g1418
F34.05579246828362
tp1424
a(g1418
S'1278'
p1425
F20.335680257931287
tp1426
aF4.256723952486384
g1420
S'2012-03-02 19:50:53'
p1427
I0
F54.39147272621491
F50.52092434885868
tp1428
a((lp1429
(S'1261'
p1430
g1425
F836.0875951514786
tp1431
a(g1425
S'1261'
p1432
F225.59212208845855
tp1433
aF19.701273103421517
g1427
S'2012-03-02 19:54:07'
p1434
I27
F1061.6797172399372
F610.493297441319
tp1435
a((lp1436
(S'1278'
p1437
g1437
F0.0
tp1438
aF0.02901491307168795
g1434
S'2012-03-02 19:54:09'
p1439
I0
F0.01611939615093775
F0.500377169757038
tp1440
a((lp1441
(g1437
g1432
F630.8472728392909
tp1442
a(g1432
g1425
F856.423275392782
tp1443
a(g1425
S'1332'
p1444
F81.93274968311337
tp1445
aF84.31540108201001
g1439
S'2012-03-02 19:55:16'
p1446
I0
F1569.2032979151863
F10.87486382554892
tp1447
a((lp1448
(g1437
g1444
F524.9423881259488
tp1449
a(g1444
S'1278'
p1450
F443.0096384527584
tp1451
a(g1450
g1432
F295.04916513296695
tp1452
aF35.80160858395297
g1446
S'2012-03-02 19:57:23'
p1453
I0
F1263.0011917116742
F547.0188644803928
tp1454
a((lp1455
(g1437
g1432
F1151.4724401944852
tp1456
a(g1432
g1425
F856.423275392782
tp1457
a(g1425
g1444
F443.0096384527584
tp1458
a(g1444
g1450
F465.2540544060773
tp1459
aF110.50709337269441
g1453
S'2012-03-02 19:58:58'
p1460
I12
F2916.1594084461026
F336.81673436690255
tp1461
a((lp1462
(S'1332'
p1463
g1450
F22.244415955665616
tp1464
a(g1450
g1444
F443.0096384527584
tp1465
a(g1444
S'1247'
p1466
F206.4110064105955
tp1467
aF142.23495405579237
g1460
S'2012-03-02 19:59:15'
p1468
I0
F671.6650608190195
F54.39282678223422
tp1469
a.