(lp0
((lp1
(S'989'
p2
S'887'
p3
F195.87664041669
tp4
a(g3
S'1189'
p5
F211.8840444636607
tp6
a(g5
S'987'
p7
F541.0596802687863
tp8
a(g7
S'1073'
p9
F585.3164976896943
tp10
a(g9
S'1185'
p11
F401.933419412357
tp12
a(g11
S'777'
p13
F387.5631260175274
tp14
aF46.47266816537432
S'2012-03-02 10:46:24'
p15
S'2012-03-02 10:49:24'
p16
I55
F2323.633408268716
F2106.296111946391
tp17
a((lp18
(S'1185'
p19
g13
F78.00140599463349
tp20
a(g13
S'903'
p21
F350.9006773558848
tp22
a(g21
S'1128'
p23
F276.93091669774793
tp24
a(g23
S'883'
p25
F413.5070559485717
tp26
a(g25
S'1068'
p27
F43.49895440820013
tp28
aF10.93007947117007
g16
S'2012-03-02 10:55:47'
p29
I0
F1162.839010405038
F588.1303213313283
tp30
a((lp31
(S'883'
p32
g27
F158.55725937410557
tp33
a(g27
S'1032'
p34
F287.5482508719534
tp35
a(g34
S'903'
p36
F505.46234075930016
tp37
a(g36
S'1158'
p38
F425.333555668877
tp39
aF381.2957741559423
g29
S'2012-03-02 10:56:00'
p40
I0
F1376.9014066742361
F5.582254579518063
tp41
a((lp42
(S'903'
p43
g38
F3911.3503179842774
tp44
a(g38
S'903'
p45
F3486.0167626901602
tp46
a(g45
S'1032'
p47
F505.46234075930016
tp48
a(g47
S'838'
p49
F227.63652122124267
tp50
a(g49
S'1082'
p51
F294.5356857427935
tp52
aF722.1429967198093
g40
S'2012-03-02 10:56:42'
p53
I0
F8425.001628397775
F44.011684990792844
tp54
a((lp55
(S'838'
p56
g51
F132.96810412661546
tp57
a(g51
S'1127'
p58
F6.8306029289612695
tp59
a(g58
S'967'
p60
F262.1481548685339
tp61
aF27.82709044089997
g53
S'2012-03-02 10:57:34'
p62
I12
F401.94686192411064
F261.60171400534387
tp63
a((lp64
(S'1127'
p65
g65
F0.0
tp66
aF3.0352300455906507
g62
S'2012-03-02 10:59:42'
p67
I0
F107.9192905098898
F380.31584263679446
tp68
a((lp69
(g65
g60
F344.8865291900156
tp70
a(g60
S'900'
p71
F217.51739317672622
tp72
a(g71
S'809'
p73
F123.48042796684001
tp74
aF20.74944253109996
g67
S'2012-03-02 11:01:41'
p75
I0
F685.8843503335819
F758.5571584252775
tp76
a((lp77
(S'900'
p78
g73
F551.3138186511076
tp79
a(g73
S'1114'
p80
F639.1126192225747
tp81
a(g80
S'993'
p82
F86.21456992258409
tp83
aF38.29923023388799
g75
S'2012-03-02 11:03:41'
p84
I42
F1276.6410077962664
F779.8565564818688
tp85
a((lp86
(S'1114'
p87
g82
F951.3670979664955
tp88
a(g82
S'1114'
p89
F865.1525280555261
tp90
a(g89
S'809'
p91
F639.1126192225747
tp92
a(g91
S'900'
p93
F274.9149699570259
tp94
aF0.9489303962473058
g84
S'2012-03-02 13:56:20'
p95
I24
F2730.5472152016223
F590.8584481389372
tp96
a((lp97
(S'809'
p98
g93
F949.7092162933333
tp99
a(g93
S'1101'
p100
F1058.824251630271
tp101
a(g100
S'996'
p102
F428.0287780151717
tp103
aF146.19373475632656
g95
S'2012-03-02 13:57:20'
p104
I53
F2436.562245938776
F843.5298775391174
tp105
a((lp106
(S'1101'
p107
g102
F1716.470433325809
tp108
a(g102
S'1101'
p109
F1288.4416554530242
tp110
a(g109
S'900'
p111
F1058.824251630271
tp112
a(g111
g73
F674.794246559625
tp113
a(g73
g80
F639.1126192225747
tp114
a(g80
g82
F865.1525280555261
tp115
a(g82
S'843'
p116
F250.35420753946457
tp117
aF389.5889965071777
g104
S'2012-03-02 13:58:20'
p118
I59
F6493.149941786294
F790.6541882939426
tp119
a((lp120
(S'993'
p121
g116
F548.8977306700313
tp122
a(g116
S'993'
p123
F298.54352314033923
tp124
a(g123
g89
F865.1525280555261
tp125
a(g89
g91
F639.1126192225747
tp126
a(g91
g93
F674.794246559625
tp127
a(g93
S'967'
p128
F217.51739317672622
tp129
a(g128
S'1154'
p130
F633.0663908294133
tp131
a(g130
S'1010'
p132
F507.7471347885134
tp133
a(g132
S'827'
p134
F266.8104465605856
tp135
a(g134
S'1041'
p136
F689.5118116434894
tp137
a(g136
S'847'
p138
F692.7516666069633
tp139
a(g138
S'1160'
p140
F257.1981991177216
tp141
aF188.73311071114526
g118
S'2012-03-02 14:00:20'
p142
I16
F6291.1036903715085
F1306.3688413512293
tp143
a((lp144
(S'847'
p145
g140
F610.0167595393948
tp146
a(g140
S'1113'
p147
F282.7294827992773
tp148
a(g147
S'906'
p149
F504.1784455245772
tp150
a(g149
S'830'
p151
F1055.3265253741486
tp152
a(g151
S'942'
p153
F565.0355820413071
tp154
a(g153
S'894'
p155
F329.934482671208
tp156
aF66.94442555899826
g142
S'2012-03-02 14:03:20'
p157
I59
F3347.2212779499127
F1300.511442413743
tp158
a((lp159
(S'942'
p160
g155
F668.8361504800484
tp161
a(g155
S'1057'
p162
F31.17655965217737
tp163
aF42.00076260793355
g157
S'2012-03-02 14:04:20'
p164
I16
F700.0127101322258
F637.463816975378
tp165
a((lp166
(S'894'
p167
g162
F341.7799292232824
tp168
a(g162
S'908'
p169
F228.0129280770048
tp170
a(g169
S'1040'
p171
F317.40151119147816
tp172
a(g171
S'924'
p173
F390.8242373664505
tp174
a(g173
S'951'
p175
F547.8429876275782
tp176
a(g175
S'978'
p177
F1557.618327029169
tp178
a(g177
S'787'
p179
F194.91903596099056
tp180
a(g179
S'1011'
p181
F271.60557515279095
tp182
a(g181
S'801'
p183
F321.910257709427
tp184
a(g183
S'865'
p185
F279.7788946582385
tp186
a(g185
S'884'
p187
F426.25271257126974
tp188
a(g187
S'969'
p189
F571.7259596354602
tp190
a(g189
S'1177'
p191
F848.8710851126325
tp192
a(g191
S'969'
p193
F73.83686362725787
tp194
aF6.328432854564112
g164
S'2012-03-02 15:04:45'
p195
I35
F6372.38030494303
F3150.9380040566057
tp196
a((lp197
(S'1177'
p198
g193
F775.0342214992542
tp199
a(g193
S'1205'
p200
F750.5078616257923
tp201
a(g200
S'1217'
p202
F451.28547162711294
tp203
a(g202
S'1008'
p204
F295.44205818266767
tp205
aF136.33617677608962
g195
S'2012-03-02 15:05:45'
p206
I46
F2272.269612934827
F589.0190670299409
tp207
a((lp208
(S'1217'
p209
g204
F700.37836166958
tp210
a(g204
S'884'
p211
F737.7586658659544
tp212
a(g211
S'865'
p213
F426.25271257126974
tp214
a(g213
S'801'
p215
F279.7788946582385
tp216
a(g215
S'1011'
p217
F321.910257709427
tp218
a(g217
S'787'
p219
F271.60557515279095
tp220
a(g219
S'978'
p221
F194.91903596099056
tp222
a(g221
S'951'
p223
F1557.618327029169
tp224
a(g223
S'924'
p225
F547.8429876275782
tp226
a(g225
S'1040'
p227
F390.8242373664505
tp228
a(g227
S'908'
p229
F317.40151119147816
tp230
a(g229
S'894'
p231
F381.46114351867436
tp232
a(g231
S'942'
p233
F338.90166780966075
tp234
a(g233
S'985'
p235
F262.1011850602843
tp236
a(g235
S'942'
p237
F349.5740942478197
tp238
aF17.453413127932684
g206
S'2012-03-02 15:30:05'
p239
I22
F7078.328657439366
F3824.9479192656577
tp240
a((lp241
(S'985'
p242
g242
F0.0
tp243
aF5.925354544075583
g239
S'2012-03-02 15:31:00'
p244
I18
F90.52624997893253
F90.5231828534703
tp245
a((lp246
(g242
g237
F521.1490292982389
tp247
a(g237
S'1056'
p248
F259.19830405018683
tp249
a(g248
S'1015'
p250
F555.5730496771731
tp251
a(g250
S'1056'
p252
F213.785694697029
tp253
aF29.51821100424053
g244
S'2012-03-02 15:34:09'
p254
I0
F1549.7060777226277
F887.5858743542935
tp255
a((lp256
(S'1015'
p257
g252
F769.3587443740221
tp258
a(g252
S'942'
p259
F259.19830405018683
tp260
a(g259
S'830'
p261
F565.0355820413071
tp262
a(g261
S'906'
p263
F1055.3265253741486
tp264
a(g263
S'1113'
p265
F504.1784455245772
tp266
a(g265
S'1160'
p267
F282.7294827992773
tp268
a(g267
S'1139'
p269
F999.898841596365
tp270
a(g269
S'909'
p271
F384.6361930519455
tp272
a(g271
S'817'
p273
F286.06989179438705
tp274
a(g273
S'873'
p275
F214.99477288859876
tp276
a(g275
S'936'
p277
F117.95681148015007
tp278
a(g277
S'791'
p279
F263.909236928096
tp280
a(g279
S'1107'
p281
F226.13434667854332
tp282
a(g281
S'1044'
p283
F278.424131296127
tp284
a(g283
S'778'
p285
F302.5121384580218
tp286
a(g285
S'963'
p287
F513.8652496215955
tp288
a(g287
S'778'
p289
F139.0794950113921
tp290
aF103.98350602696561
g254
S'2012-03-02 15:38:17'
p291
I0
F7163.308192968741
F2278.0553439719074
tp292
a((lp293
(S'963'
p294
g289
F652.9447445715947
tp295
a(g289
S'833'
p296
F579.573448966089
tp297
a(g296
S'1128'
p298
F304.26348633257396
tp299
a(g298
S'903'
p300
F276.93091669774793
tp301
a(g300
S'777'
p302
F350.9006773558848
tp303
a(g302
S'1185'
p304
F465.5645320107461
tp305
a(g304
S'1073'
p306
F401.933419412357
tp307
a(g306
S'987'
p308
F585.3164976896943
tp309
a(g308
S'1189'
p310
F5.523496255832225
tp311
aF54.34426828938779
g291
S'2012-03-02 15:42:17'
p312
I25
F3622.9512192925195
F3244.698472562804
tp313
a((lp314
(S'987'
p315
g310
F546.5831765241803
tp316
a(g310
S'887'
p317
F211.8840444636607
tp318
a(g317
S'1027'
p319
F974.3320508593303
tp320
a(g319
S'842'
p321
F108.42347341772006
tp322
a(g321
S'929'
p323
F138.91582185729666
tp324
a(g323
S'414'
p325
F303.12038890948725
tp326
a(g325
S'203'
p327
F110.55925503297553
tp328
a(g327
S'431'
p329
F369.98613606887915
tp330
a(g329
S'392'
p331
F457.83618440901
tp332
a(g331
S'270'
p333
F95.85961614434376
tp334
a(g333
S'433'
p335
F330.3168336032497
tp336
a(g335
S'372'
p337
F370.7702779256937
tp338
aF60.27880888823741
g312
S'2012-03-02 15:46:17'
p339
I72
F4018.587259215827
F3223.363661821459
tp340
a((lp341
(S'433'
p342
g337
F955.8678873218504
tp343
a(g337
S'433'
p344
F585.0976094380715
tp345
a(g344
S'270'
p346
F330.3168336032497
tp347
a(g346
S'392'
p348
F95.85961614434376
tp349
a(g348
S'1'
p350
F249.19286833474678
tp351
aF3.9207888616374174
g339
S'2012-03-02 16:20:12'
p352
I18
F2216.3348148422624
F257.4835597942072
tp353
a((lp354
(S'392'
p355
g350
F825.8219959045057
tp356
a(g350
S'190'
p357
F133.23962227802784
tp358
a(g357
S'200'
p359
F65.9676834156334
tp360
a(g359
S'323'
p361
F638.105914332198
tp362
a(g361
S'195'
p363
F899.3736486026992
tp364
a(g363
S'160'
p365
F1654.504702992569
tp366
a(g365
S'348'
p367
F185.6557851047814
tp368
aF66.04004028945621
g352
S'2012-03-02 16:24:12'
p369
I75
F4402.669352630414
F3934.7143679736746
tp370
a((lp371
(S'160'
p372
g367
F564.2633037051897
tp373
a(g367
S'40'
p374
F401.59962843252373
tp375
a(g374
S'400'
p376
F175.03635260490466
tp377
a(g376
S'359'
p378
F368.9484986175782
tp379
a(g378
S'149'
p380
F214.5001502809245
tp381
a(g380
S'115'
p382
F279.2751738259168
tp383
a(g382
S'448'
p384
F131.96675629555088
tp385
a(g384
S'288'
p386
F161.32840893425416
tp387
a(g386
S'46'
p388
F179.0385558625511
tp389
aF35.231006256181104
g369
S'2012-03-02 16:28:25'
p390
I53
F2475.956828559394
F1693.9257718309645
tp391
a((lp392
(S'288'
p393
g388
F325.6597889568752
tp394
a(g388
S'288'
p395
F170.12276787361512
tp396
aF18.987417070103884
g390
S'2012-03-02 16:29:59'
p397
I24
F495.7825568304903
F154.87211914199628
tp398
a((lp399
(S'46'
p400
g395
F23.501534775240334
tp401
a(g395
S'448'
p402
F161.32840893425416
tp403
a(g402
S'115'
p404
F131.96675629555088
tp405
a(g404
S'149'
p406
F279.2751738259168
tp407
a(g406
S'359'
p408
F214.5001502809245
tp409
a(g408
S'400'
p410
F257.8457356935019
tp411
aF31.787635828920653
g397
S'2012-03-02 16:32:00'
p412
I27
F1068.4177598053886
F844.6131731368982
tp413
a((lp414
(S'359'
p415
g410
F111.10276293697274
tp416
a(g410
g378
F368.9484986175782
tp417
a(g378
g380
F214.5001502809245
tp418
a(g380
g382
F289.2444099234397
tp419
aF196.75916435178303
g412
S'2012-03-02 16:32:18'
p420
I44
F983.795821758915
F48.97517575278399
tp421
a((lp422
(S'149'
p423
g382
F568.5195836895859
tp424
a(g382
g406
F279.2751738259168
tp425
a(g406
g408
F214.5001502809245
tp426
a(g408
g410
F342.1562540692587
tp427
aF252.80120913582346
g420
S'2012-03-02 16:32:38'
p428
I0
F1404.451161865686
F36.073653540212746
tp429
a((lp430
(g415
g410
F26.79224455236851
tp431
a(g410
S'40'
p432
F175.03635260490466
tp433
a(g432
S'348'
p434
F226.71815348317227
tp435
aF25.71280503842673
g428
S'2012-03-02 16:33:38'
p436
I20
F428.54675064044545
F425.7494972377653
tp437
a((lp438
(S'40'
p439
g434
F174.8814749682512
tp440
a(g434
g374
F401.59962843252373
tp441
a(g374
S'189'
p442
F470.6320208254988
tp443
a(g442
S'227'
p444
F427.9053510645283
tp445
aF88.50110851744813
g436
S'2012-03-02 16:34:38'
p446
I50
F1475.0184752908021
F399.3948972264405
tp447
a((lp448
(S'189'
p449
g444
F589.2277468638296
tp450
a(g444
S'189'
p451
F161.32239584715794
tp452
a(g451
S'40'
p453
F470.6320208254988
tp454
a(g453
g434
F401.59962843252373
tp455
a(g434
S'423'
p456
F401.7062149289834
tp457
a(g456
S'27'
p458
F360.14779166603097
tp459
a(g458
S'107'
p460
F30.632549156821213
tp461
aF2898.322017265015
g446
S'2012-03-02 16:34:41'
p462
I0
F2415.2683477208457
F0.500377169757038
tp463
a((lp464
(S'27'
p465
g460
F1347.3089258460948
tp466
a(g460
S'27'
p467
F1377.9414749341843
tp468
a(g467
S'423'
p469
F360.14779166603097
tp470
a(g469
S'87'
p471
F723.5563566983903
tp472
a(g471
S'322'
p473
F661.5915995108642
tp474
a(g473
S'47'
p475
F238.99911240568
tp476
a(g475
S'285'
p477
F283.39044207994317
tp478
aF106.35839367638035
g462
S'2012-03-02 16:37:30'
p479
I0
F4992.935703141188
F1660.0074576153506
tp480
a((lp481
(S'47'
p482
g477
F7.347734142037372
tp483
a(g477
S'114'
p484
F232.99989193956105
tp485
a(g484
S'69'
p486
F277.18170658049786
tp487
a(g486
S'209'
p488
F560.4047888183237
tp489
a(g488
S'219'
p490
F348.12509298251837
tp491
a(g490
S'190'
p492
F816.17968688634
tp493
a(g492
g350
F133.23962227802784
tp494
a(g350
S'371'
p495
F86.94361653936807
tp496
aF28.14196731619057
g479
S'2012-03-02 16:42:45'
p497
I0
F2462.4221401666746
F1447.9908515119012
tp498
a((lp499
(g350
g350
F0.0
tp500
aF2.971756669756363
g497
S'2012-03-02 16:43:59'
p501
I22
F61.08610932276968
F61.61614371189072
tp502
a((lp503
(g350
g495
F577.2190365115489
tp504
a(g495
g350
F725.2487623614271
tp505
a(g350
S'333'
p506
F975.8745201557714
tp507
a(g506
S'117'
p508
F344.05087091149653
tp509
aF108.51282165269977
g501
S'2012-03-02 16:45:26'
p510
I7
F2622.393189940244
F783.8662845914508
tp511
a((lp512
(S'333'
p513
g513
F0.0
tp514
aF14.860734785364098
g510
S'2012-03-02 16:45:39'
p515
I0
F53.663764502703685
F53.692087072028976
tp516
a((lp517
(g513
g508
F463.10274309148303
tp518
a(g508
S'219'
p519
F439.0234501785394
tp520
a(g519
S'209'
p521
F348.12509298251837
tp522
a(g521
S'69'
p523
F560.4047888183237
tp524
a(g523
S'114'
p525
F297.2834387007508
tp526
aF126.47637082629694
g515
S'2012-03-02 16:46:39'
p527
I18
F2107.9395137716156
F603.1951913893554
tp528
a((lp529
(S'69'
p530
g525
F574.4651452268671
tp531
a(g525
S'285'
p532
F232.99989193956105
tp533
a(g532
S'47'
p534
F299.80709525486895
tp535
aF124.56811489739593
g527
S'2012-03-02 16:47:11'
p536
I50
F1107.272132421297
F285.40955872707815
tp537
a((lp538
(S'285'
p539
g534
F590.5452714173119
tp540
a(g534
g477
F290.73817622125813
tp541
a(g477
g484
F232.99989193956105
tp542
a(g484
g486
F277.18170658049786
tp543
a(g486
g525
F53.2764846489581
tp544
aF216.71122962113805
g536
S'2012-03-02 16:47:35'
p545
I0
F1444.741530807587
F65.20321812062278
tp546
a((lp547
(g530
g525
F223.90522193519493
tp548
a(g525
S'322'
p549
F293.16190634917444
tp550
a(g549
S'87'
p551
F661.5915995108642
tp552
a(g551
S'423'
p553
F288.8384358169672
tp554
aF88.04982981673204
g545
S'2012-03-02 16:48:35'
p555
I37
F1467.4971636122007
F889.7298994851583
tp556
a((lp557
(S'87'
p558
g553
F1012.394792260461
tp559
a(g553
g458
F360.14779166603097
tp560
a(g458
g460
F3.6802340374740217
tp561
aF72.85885506868055
g555
S'2012-03-02 16:49:43'
p562
I64
F1376.222817963966
F984.5222042877067
tp563
a((lp564
(g465
g465
F0.0
tp565
aF10.536862106199832
g562
S'2012-03-02 16:50:03'
p566
I0
F58.53812281222129
F58.65522270609171
tp567
a((lp568
(g465
g460
F1323.0835862801537
tp569
a(g460
S'46'
p570
F327.4845229639087
tp571
a(g570
S'95'
p572
F169.5426482928923
tp573
a(g572
S'240'
p574
F127.80883090513126
tp575
a(g574
S'329'
p576
F279.26640940993445
tp577
a(g576
S'227'
p578
F286.86855041362594
tp579
a(g578
g451
F161.32239584715794
tp580
a(g451
g444
F314.997629429465
tp581
aF179.42247441253616
g566
S'2012-03-02 16:51:03'
p582
I37
F2990.3745735422694
F723.9584116404026
tp583
a((lp584
(g449
g444
F153.67523359143183
tp585
a(g444
S'329'
p586
F286.86855041362594
tp587
a(g586
S'240'
p588
F279.26640940993445
tp589
a(g588
S'115'
p590
F169.08417818446196
tp591
a(g590
g384
F193.76929371976684
tp592
aF64.95981991915326
g582
S'2012-03-02 16:52:03'
p593
I37
F1082.663665319221
F611.9283043462923
tp594
a((lp595
(S'115'
p596
g384
F61.8025374262271
tp597
a(g384
g386
F161.32840893425416
tp598
a(g386
g388
F146.62123309864816
tp599
a(g388
S'225'
p600
F204.10192602860755
tp601
a(g600
S'76'
p602
F86.61101872735661
tp603
aF30.87888892434204
g593
S'2012-03-02 16:53:20'
p604
I20
F660.4651242150936
F176.9178589003506
tp605
a((lp606
(S'225'
p607
g602
F251.78489523262638
tp608
a(g602
S'461'
p609
F209.84399480520491
tp610
a(g609
S'288'
p611
F213.86956785060167
tp612
a(g611
g402
F161.32840893425416
tp613
a(g402
g404
F131.96675629555088
tp614
a(g404
g406
F322.97321012221875
tp615
aF38.7530049972137
g604
S'2012-03-02 16:55:20'
p616
I29
F1291.7668332404567
F673.9990131623681
tp617
a((lp618
(g596
g406
F43.69803630141614
tp619
a(g406
g408
F214.5001502809245
tp620
a(g408
g410
F368.9484986175782
tp621
a(g410
g432
F175.03635260490466
tp622
a(g432
g434
F401.59962843252373
tp623
a(g434
g456
F401.7062149289834
tp624
a(g456
g471
F723.5563566983903
tp625
a(g471
g473
F661.5915995108642
tp626
a(g473
S'114'
p627
F293.16190634917444
tp628
a(g627
g532
F232.99989193956105
tp629
a(g532
g484
F259.5543041035779
tp630
aF41.95947710853222
g616
S'2012-03-02 17:00:44'
p631
I31
F3776.3529397678994
F2867.403281607484
tp632
a((lp633
(g539
g484
F26.554412164045363
tp634
a(g484
g486
F310.5279958985537
tp635
aF71.38215700149156
g631
S'2012-03-02 17:01:01'
p636
I0
F337.08240806259903
F56.08712865081155
tp637
a((lp638
(S'114'
p639
g486
F33.346289321481514
tp640
a(g486
g488
F560.4047888183237
tp641
a(g488
g490
F317.31438970623594
tp642
aF28.770488458296036
g636
S'2012-03-02 17:02:55'
p643
I29
F911.0654678460412
F844.36265132981
tp644
a((lp645
(S'209'
p646
g490
F30.810703280144203
tp647
a(g490
g492
F0.8052061114766697
tp648
aF1.8969545634972522
g643
S'2012-03-02 17:03:55'
p649
I0
F31.61590939162087
F2.1484735408576783
tp650
a((lp651
(S'219'
p652
g652
F0.0
tp653
aF1.4843019642392323
g649
S'2012-03-02 17:04:23'
p654
I0
F11.544570832971807
F33.6003113684967
tp655
a((lp656
(g652
g492
F803.8299099420609
tp657
a(g492
g350
F133.23962227802784
tp658
a(g350
S'392'
p659
F1075.0148639845097
tp660
a(g659
g333
F95.85961614434376
tp661
a(g333
S'365'
p662
F17.926252951190637
tp663
aF36.6178610290932
g654
S'2012-03-02 17:07:52'
p664
I20
F2125.870265300133
F1414.2586786144918
tp665
a.