(lp0
((lp1
(S'1151'
p2
S'1232'
p3
F681.65473498952
tp4
a(g3
S'1151'
p5
F572.8013873462398
tp6
a(g5
S'1036'
p7
F79.99347147125343
tp8
aF436.7289579732043
S'2012-03-02 12:40:00'
p9
S'2012-03-02 12:40:11'
p10
I0
F1334.4495938070131
F22.806768938653985
tp11
a((lp12
(g2
g7
F419.31071782770977
tp13
a(g7
S'989'
p14
F786.7860140536283
tp15
a(g14
S'1230'
p16
F396.62742466432553
tp17
a(g16
S'812'
p18
F352.49757753977093
tp19
a(g18
S'1230'
p20
F482.64700886728565
tp21
aF16.465905205684415
g10
S'2012-03-02 12:49:04'
p22
I9
F2437.86874295272
F1166.691129241946
tp23
a((lp24
(S'812'
p25
g20
F130.14943135412975
tp26
a(g20
S'989'
p27
F396.62742466432553
tp28
a(g27
S'887'
p29
F690.9163383539549
tp30
a(g29
S'820'
p31
F67.23482091560234
tp32
aF77.09568091728076
g22
S'2012-03-02 12:50:04'
p33
I42
F1284.9280152880126
F888.9243292817627
tp34
a((lp35
(S'887'
p36
g31
F1110.014535577324
tp37
a(g31
S'887'
p38
F1042.7797147525323
tp39
a(g38
S'1027'
p40
F974.3320508593303
tp41
a(g40
S'842'
p42
F108.42347341772006
tp43
a(g42
S'929'
p44
F441.2333158354508
tp45
aF77.86128897407346
g33
S'2012-03-02 12:52:54'
p46
I62
F3676.7830904423577
F643.0358295905324
tp47
a((lp48
(S'842'
p49
g44
F580.1491129915819
tp50
a(g44
S'414'
p51
F145.60939851194954
tp52
aF43.545510690211884
g46
S'2012-03-02 12:53:54'
p53
I31
F725.7585115035314
F747.7849730008828
tp54
a((lp55
(S'929'
p56
g51
F157.5109904000795
tp57
a(g51
S'203'
p58
F110.55925503297553
tp59
a(g58
S'431'
p60
F369.98613606887915
tp61
a(g60
S'392'
p62
F304.0688532364317
tp63
aF56.527514084301956
g53
S'2012-03-02 12:54:54'
p64
I46
F942.1252347383659
F938.7856652746802
tp65
a((lp66
(S'431'
p67
g62
F153.76733119521697
tp68
a(g62
S'270'
p69
F95.85961614434376
tp70
a(g69
S'433'
p71
F330.3168336032497
tp72
a(g71
S'372'
p73
F585.0976094380715
tp74
a(g73
S'97'
p75
F63.758701035611004
tp76
a(g75
S'413'
p77
F1079.6824743926077
tp78
a(g77
S'182'
p79
F56.13872503917132
tp80
aF70.93863872544817
g64
S'2012-03-02 12:56:54'
p81
I75
F2364.621290848272
F2122.511399111366
tp82
a((lp83
(S'413'
p84
g79
F557.819246140689
tp85
a(g79
S'58'
p86
F1050.0893319780932
tp87
a(g86
S'86'
p88
F905.5130865393613
tp89
a(g88
S'132'
p90
F408.1675747931264
tp91
a(g90
S'117'
p92
F21.863224293687527
tp93
aF4.461654260834462
g81
S'2012-03-02 13:36:29'
p94
I74
F2943.452463744957
F1982.9847255797383
tp95
a((lp96
(S'132'
p97
g92
F2669.9740725067204
tp98
a(g92
S'132'
p99
F2691.837296797234
tp100
a(g99
S'86'
p101
F408.1675747931264
tp102
a(g101
S'58'
p103
F172.58680788582052
tp104
aF356.55394511897407
g94
S'2012-03-02 13:37:29'
p105
I35
F5942.565751982901
F368.89528011400455
tp106
a((lp107
(S'86'
p108
g108
F0.0
tp109
aF11.966028563978822
g105
S'2012-03-02 13:37:59'
p110
I18
F99.71690469982352
F102.61439131380799
tp111
a((lp112
(g108
g103
F633.2093741510668
tp113
a(g103
g88
F905.5130865393613
tp114
a(g88
S'331'
p115
F697.8413564130648
tp116
a(g115
S'70'
p117
F250.6396728341363
tp118
a(g117
S'185'
p119
F410.4155150177738
tp120
a(g119
S'70'
p121
F183.05638587806112
tp122
aF0.6654924336633946
g110
S'2012-03-02 18:15:44'
p123
I0
F3080.675390833464
F1220.2394800790953
tp124
a((lp125
(S'185'
p126
g121
F593.4719008435578
tp127
a(g121
S'331'
p128
F250.6396728341363
tp129
a(g128
S'86'
p130
F697.8413564130648
tp131
a(g130
g90
F408.1675747931264
tp132
a(g90
g92
F2691.837296797234
tp133
a(g92
S'333'
p134
F172.715636685259
tp135
a(g134
S'1'
p136
F975.8745201557714
tp137
a(g136
S'190'
p138
F135.20831490840274
tp139
aF42.665445168699975
g123
S'2012-03-02 18:24:04'
p140
I74
F5925.756273430552
F4584.825199586938
tp141
a((lp142
(g136
g138
F1.9686926304569226
tp143
a(g138
S'200'
p144
F65.9676834156334
tp145
a(g144
S'323'
p146
F23.665877929334687
tp147
aF5.496135238525501
g140
S'2012-03-02 18:25:04'
p148
I0
F91.60225397542501
F24.83304440446212
tp149
a((lp150
(S'200'
p151
g151
F0.0
tp152
aF19.91231290443469
g148
S'2012-03-02 18:25:08'
p153
I18
F22.12479211603854
F21.88692521101991
tp154
a((lp155
(g151
g146
F592.3152443096135
tp156
a(g146
S'371'
p157
F120.76434104224866
tp158
aF42.78477512111173
g153
S'2012-03-02 18:26:08'
p159
I16
F713.0795853518622
F559.8340057733658
tp160
a((lp161
(S'323'
p162
g157
F381.7571710479877
tp163
a(g157
S'414'
p164
F422.5316159249391
tp165
aF48.25732721837561
g159
S'2012-03-02 18:27:08'
p166
I44
F804.2887869729268
F803.2398983504161
tp167
a((lp168
(S'371'
p169
g164
F317.14445891638564
tp170
a(g164
S'393'
p171
F82.01156142123234
tp172
a(g171
S'263'
p173
F106.96244496947452
tp174
aF30.36710791842555
g166
S'2012-03-02 18:28:08'
p175
I46
F506.1184653070925
F507.3727463344134
tp176
a((lp177
(S'393'
p178
g173
F338.8359754894649
tp179
a(g173
S'393'
p180
F445.7984204400668
tp181
a(g180
S'414'
p182
F82.01156142123234
tp183
a(g182
S'371'
p184
F739.6760747221767
tp185
a(g184
g136
F725.2487623614271
tp186
a(g136
g138
F133.23962227802784
tp187
a(g138
g144
F65.9676834156334
tp188
a(g144
g146
F3.4571219976925875
tp189
aF3.4901479723231064
g175
S'2012-03-02 19:11:42'
p190
I29
F2534.235222125722
F1183.669865064518
tp191
a((lp192
(g151
g146
F634.6487923363003
tp193
a(g146
S'195'
p194
F899.3736486026992
tp195
a(g194
S'141'
p196
F288.679793805085
tp197
a(g196
S'349'
p198
F144.75772780934173
tp199
a(g198
S'141'
p200
F101.18211782328827
tp201
aF124.11852482260285
g190
S'2012-03-02 19:12:42'
p202
I87
F2068.642080376714
F1171.9370662157812
tp203
a((lp204
(S'349'
p205
g200
F245.93984562841362
tp206
a(g200
S'195'
p207
F288.679793805085
tp208
a(g207
S'160'
p209
F1654.504702992569
tp210
a(g209
S'348'
p211
F425.8299816603386
tp212
aF78.44862972259217
g202
S'2012-03-02 19:14:42'
p213
I85
F2614.954324086406
F2010.0316832047054
tp214
a((lp215
(S'160'
p216
g211
F324.08910715176575
tp217
a(g211
S'40'
p218
F267.0708507128665
tp219
aF35.46959747187793
g213
S'2012-03-02 19:15:42'
p220
I37
F591.1599578646322
F432.16958273541746
tp221
a((lp222
(S'348'
p223
g218
F134.5287777367959
tp224
a(g218
S'400'
p225
F175.03635260490466
tp226
a(g225
S'359'
p227
F368.9484986175782
tp228
a(g227
S'149'
p229
F214.5001502809245
tp230
a(g229
S'115'
p231
F279.2751738259168
tp232
a(g231
S'448'
p233
F131.96675629555088
tp234
a(g233
S'288'
p235
F161.32840893425416
tp236
a(g235
S'46'
p237
F146.62123309864816
tp238
a(g237
S'107'
p239
F327.4845229639087
tp240
a(g239
S'321'
p241
F17.50271917596916
tp242
aF30.90304095054396
g220
S'2012-03-02 19:19:30'
p243
I27
F1957.192593534451
F1153.3704483518263
tp244
a((lp245
(S'107'
p246
g241
F4797.653608183027
tp247
a(g241
S'107'
p248
F4780.150889487485
tp249
a(g248
S'46'
p250
F327.4845229639087
tp251
a(g250
S'288'
p252
F146.62123309864816
tp253
a(g252
S'448'
p254
F161.32840893425416
tp255
a(g254
S'115'
p256
F30.71046287798784
tp257
aF4097.579650218124
g243
S'2012-03-02 19:19:39'
p258
I0
F10243.94912554531
F4.047755974495487
tp259
a((lp260
(S'448'
p261
g256
F162.67721917273337
tp262
a(g256
g233
F131.96675629555088
tp263
a(g233
g235
F161.32840893425416
tp264
a(g235
g237
F146.62123309864816
tp265
a(g237
g239
F327.4845229639087
tp266
a(g239
g250
F262.03980523159754
tp267
aF23.842358913933857
g258
S'2012-03-02 19:22:39'
p268
I0
F1192.1179456966927
F4.080479014277772
tp269
a((lp270
(g246
g250
F65.44471773696716
tp271
a(g250
g239
F327.4845229639087
tp272
a(g239
g241
F21.394798278260843
tp273
aF12.429721169374103
g268
S'2012-03-02 19:24:39'
p274
I0
F414.32403897913673
F8.834148839258964
tp275
a((lp276
(g246
g241
F4801.545687177963
tp277
a(g241
g248
F4780.150889487485
tp278
a(g248
g250
F327.4845229639087
tp279
a(g250
g252
F41.728009937681556
tp280
aF597.0545465740224
g274
S'2012-03-02 19:25:39'
p281
I0
F9950.90910956704
F2.6091995760265942
tp282
a((lp283
(S'46'
p284
g284
F0.0
tp285
aF0.19043730734340109
g281
S'2012-03-02 19:27:39'
p286
I0
F6.347910244780037
F6.7250143121749835
tp287
a((lp288
(g284
g252
F182.00133279110028
tp289
a(g252
g237
F183.11268784769987
tp290
aF21.906841238328013
g286
S'2012-03-02 19:28:39'
p291
I0
F365.1140206388002
F1.24538317853351
tp292
a((lp293
(S'288'
p294
g294
F0.0
tp295
aF0.12898295620074252
g291
S'2012-03-02 19:31:40'
p296
I0
F6.484976408981777
F8.324017479695886
tp297
a((lp298
(g294
g237
F42.97643115850055
tp299
a(g237
g239
F353.2419375032144
tp300
aF5.282911582156199
g296
S'2012-03-02 19:36:10'
p301
I0
F396.2183686617149
F340.0632109899171
tp302
a((lp303
(g284
g239
F25.757414541882145
tp304
a(g239
g250
F419.81026599840953
tp305
aF35.64541444322334
g301
S'2012-03-02 19:36:55'
p306
I22
F445.5676805402917
F402.39345430455666
tp307
a((lp308
(g246
g250
F747.2947888758034
tp309
a(g250
g239
F327.4845229639087
tp310
a(g239
S'131'
p311
F269.0371341692761
tp312
a(g311
S'465'
p313
F408.81232701870033
tp314
aF10.639904861550892
g306
S'2012-03-02 19:46:48'
p315
I0
F1752.6287730276886
F421.6491366594385
tp316
a((lp317
(S'131'
p318
g313
F1246.537094991422
tp319
a(g313
S'131'
p320
F837.7247684747507
tp321
a(g320
S'107'
p322
F269.0371341692761
tp323
a(g322
g250
F327.4845229639087
tp324
a(g250
S'95'
p325
F169.5426482928923
tp326
a(g325
S'448'
p327
F403.89165822505436
tp328
aF65.0843565423461
g315
S'2012-03-02 19:49:48'
p329
I14
F3254.2178271173048
F1050.6115993856781
tp330
a((lp331
(S'95'
p332
g327
F246.1840000232132
tp333
a(g327
g235
F161.32840893425416
tp334
a(g235
S'461'
p335
F213.86956785060167
tp336
a(g335
S'196'
p337
F487.2686784288901
tp338
aF66.51903931421755
g329
S'2012-03-02 19:50:48'
p339
I31
F1108.6506552369592
F478.3052782719932
tp340
a((lp341
(S'461'
p342
g337
F42.6081875822796
tp343
a(g337
S'461'
p344
F529.8768660045189
tp345
a(g344
S'288'
p346
F488.49713155746247
tp347
aF1909.7679332596697
g339
S'2012-03-02 19:50:50'
p348
I0
F1060.982185144261
F1.7033853226515858
tp349
a((lp350
(g342
g346
F702.3666993621661
tp351
a(g346
g335
F213.86956785060167
tp352
a(g335
g337
F529.8768660045189
tp353
a(g337
S'328'
p354
F208.72880849237106
tp355
a(g354
S'62'
p356
F304.77298423724176
tp357
a(g356
S'79'
p358
F488.79650087244994
tp359
aF678.0216258884352
g348
S'2012-03-02 19:51:03'
p360
I0
F2448.4114268193493
F40.98831352282329
tp361
a((lp362
(S'62'
p363
g358
F1255.236008150178
tp364
a(g358
S'62'
p365
F766.4395078482208
tp366
a(g365
S'120'
p367
F311.3022233380913
tp368
a(g367
S'89'
p369
F68.79628119212335
tp370
aF144.10644123171681
g360
S'2012-03-02 19:52:03'
p371
I24
F2401.7740205286136
F466.95101615531587
tp372
a((lp373
(S'120'
p374
g369
F302.26459394950996
tp375
a(g369
S'120'
p376
F233.46831276379612
tp377
a(g376
S'62'
p378
F311.3022233380913
tp379
a(g378
S'328'
p380
F304.77298423724176
tp381
a(g380
g356
F342.10558085626553
tp382
aF112.04352713586786
g371
S'2012-03-02 19:52:51'
p383
I0
F1493.9136951449048
F58.93624175571525
tp384
a((lp385
(S'328'
p386
g356
F37.33259662365173
tp387
a(g356
g358
F766.4395078482208
tp388
a(g358
S'206'
p389
F340.8639244928786
tp390
a(g389
S'118'
p391
F365.37127770481646
tp392
aF73.45981491906004
g383
S'2012-03-02 19:54:05'
p393
I27
F1510.0073066695675
F401.21125863927114
tp394
a.