(lp0
((lp1
(S'988'
p2
S'777'
p3
F250.19485891770543
tp4
a(g3
S'903'
p5
F228.96350937276853
tp6
aF28.74950209742844
S'2012-03-02 14:43:51'
p7
S'2012-03-02 14:44:51'
p8
I62
F479.15836829047396
F686.8170074131582
tp9
a((lp10
(S'777'
p11
g5
F121.93716799428002
tp12
a(g5
S'777'
p13
F350.9006773558848
tp14
a(g13
S'1185'
p15
F465.5645320107461
tp16
a(g15
S'777'
p17
F114.19045057060951
tp18
aF236.83338628459208
g8
S'2012-03-02 14:45:07'
p19
I29
F1052.5928279315203
F14.568982286857047
tp20
a((lp21
(S'1185'
p22
g17
F351.37408144201885
tp23
a(g17
g15
F465.5645320107461
tp24
a(g15
S'1061'
p25
F373.27393365369306
tp26
a(g25
S'1062'
p27
F3.7686864741461013
tp28
aF116.1711470510858
g19
S'2012-03-02 14:45:44'
p29
I0
F1193.981233580604
F51.56384376028762
tp30
a((lp31
(S'1061'
p32
g27
F446.6679846067892
tp33
a(g27
S'974'
p34
F183.41867360754313
tp35
a(g34
S'833'
p36
F480.1669052301094
tp37
a(g36
S'1128'
p38
F304.26348633257396
tp39
a(g38
S'883'
p40
F424.52382307686634
tp41
aF140.86270515476545
g29
S'2012-03-02 14:46:31'
p42
I20
F1839.040872853882
F362.3172544965772
tp43
a((lp44
(S'1128'
p45
g40
F838.0308790228963
tp46
a(g40
S'852'
p47
F329.28489559744986
tp48
a(g47
S'833'
p49
F363.99526731937345
tp50
a(g49
S'974'
p51
F480.1669052301094
tp52
a(g51
S'991'
p53
F210.72023598486763
tp54
aF533.3275639571272
g42
S'2012-03-02 14:46:46'
p55
I0
F2222.1981831546964
F55.77907656768693
tp56
a((lp57
(S'974'
p58
g53
F866.8841119212642
tp59
a(g53
S'974'
p60
F656.1638760738123
tp61
a(g60
g36
F74.50086261426108
tp62
aF95.85293103656025
g55
S'2012-03-02 14:47:46'
p63
I29
F1597.5488506093375
F689.1017360333716
tp64
a((lp65
(g58
g36
F405.66604261584916
tp66
a(g36
g51
F480.1669052301094
tp67
a(g51
g53
F656.1638760738123
tp68
a(g53
S'874'
p69
F33.849585074419146
tp70
aF66.74173026328334
g63
S'2012-03-02 14:49:11'
p71
I7
F1575.84640899419
F4.328757222812101
tp72
a((lp73
(S'991'
p74
g69
F270.9258758521417
tp75
a(g69
S'991'
p76
F237.07629077782101
tp77
a(g76
S'814'
p78
F56.80431780149105
tp79
aF31.770364749269277
g71
S'2012-03-02 14:50:15'
p80
I11
F564.8064844314538
F119.18194141300962
tp81
a((lp82
(g74
g78
F651.3560291047389
tp83
a(g78
S'994'
p84
F375.362399322151
tp85
a(g84
S'1162'
p86
F16.682143859506997
tp87
aF55.2388538269269
g80
S'2012-03-02 14:51:23'
p88
I16
F1043.400572286397
F638.2860302068359
tp89
a((lp90
(S'994'
p91
g86
F411.32941745647327
tp92
a(g86
S'792'
p93
F393.5275279288238
tp94
a(g93
S'814'
p95
F350.26427291339104
tp96
a(g95
S'1007'
p97
F45.43486423425269
tp98
aF240.11121650658816
g88
S'2012-03-02 14:51:41'
p99
I0
F1200.5560825329408
F48.67343101625305
tp100
a((lp101
(S'814'
p102
g97
F353.84882581657206
tp103
a(g97
S'1009'
p104
F681.3552137071262
tp105
a(g104
S'982'
p106
F83.01986268016094
tp107
aF67.09343413223155
g99
S'2012-03-02 14:52:41'
p108
I31
F1118.223902203859
F951.7542273481859
tp109
a((lp110
(S'1009'
p111
g111
F0.0
tp112
aF4.4731370831564385
g108
S'2012-03-02 14:54:17'
p113
I55
F119.28365555083838
F119.37849355690696
tp114
a((lp115
(g111
g106
F718.3750064586096
tp116
a(g106
S'804'
p117
F140.04113628613734
tp118
a(g117
S'888'
p119
F436.4498289725836
tp120
a(g119
S'1213'
p121
F398.42229143270566
tp122
a(g121
S'1066'
p123
F11.319919471368543
tp124
aF51.13824547864215
g113
S'2012-03-02 14:56:17'
p125
I31
F1704.6081826214047
F1421.5965564346916
tp126
a((lp127
(S'1213'
p128
g123
F114.6861214852627
tp129
a(g123
S'923'
p130
F407.53435205726896
tp131
a(g130
S'101'
p132
F930.3605400765287
tp133
a(g132
S'231'
p134
F3.6356071635478795
tp135
aF40.956092459510856
g125
S'2012-03-02 14:58:25'
p136
I42
F1456.216620782608
F704.4745942273269
tp137
a((lp138
(S'101'
p139
g134
F2124.6012169223177
tp140
a(g134
S'101'
p141
F2128.2368240663845
tp142
a(g141
S'307'
p143
F516.3741780275716
tp144
a(g143
S'121'
p145
F355.28771301773605
tp146
a(g145
S'307'
p147
F10.268436954544867
tp148
aF543.6813567164353
g136
S'2012-03-02 14:58:59'
p149
I0
F5134.768368988555
F52.57484402565866
tp150
a((lp151
(S'121'
p152
g147
F365.55614997209415
tp153
a(g147
S'12'
p154
F497.24735830369826
tp155
aF27.48754539639693
g149
S'2012-03-02 15:00:52'
p156
I27
F862.8035082757924
F333.95903627206883
tp157
a((lp158
(S'307'
p159
g154
F834.1205362246859
tp160
a(g154
S'307'
p161
F336.87317808984017
tp162
a(g161
S'101'
p163
F516.3741780275716
tp164
a(g163
g134
F20.665598622541253
tp165
aF157.6646299351974
g156
S'2012-03-02 15:01:31'
p166
I22
F1708.0334909646388
F292.3589956265396
tp167
a((lp168
(g139
g134
F2148.902422577886
tp169
a(g134
g141
F2128.2368240663845
tp170
a(g141
g143
F516.3741780275716
tp171
a(g143
g145
F355.28771301773605
tp172
a(g145
S'1104'
p173
F35.71299626521921
tp174
aF132.37057363288844
g166
S'2012-03-02 15:03:52'
p175
I0
F5184.514133954797
F582.8882557411898
tp176
a((lp177
(g152
g152
F0.0
tp178
aF5.993591261411902
g175
S'2012-03-02 15:04:28'
p179
I0
F59.93591261411902
F60.12092835731527
tp180
a((lp181
(g152
g173
F324.7291490433416
tp182
a(g173
S'1209'
p183
F340.0113446486208
tp184
a(g183
S'1222'
p185
F529.8005662370716
tp186
a(g185
S'233'
p187
F314.42150737049457
tp188
a(g187
S'1158'
p189
F505.9919712639641
tp190
a(g189
S'371'
p191
F343.4160234801613
tp192
a(g191
S'414'
p193
F739.6760747221767
tp194
a(g193
S'203'
p195
F110.55925503297553
tp196
a(g195
S'431'
p197
F369.98613606887915
tp198
a(g197
S'392'
p199
F457.83618440901
tp200
a(g199
S'431'
p201
F494.5292354359491
tp202
aF42.81219635633995
g179
S'2012-03-02 15:10:49'
p203
I31
F4530.957447712645
F2872.665560972682
tp204
a((lp205
(S'392'
p206
g201
F36.69305103573032
tp207
a(g201
S'203'
p208
F369.98613606887915
tp209
a(g208
S'393'
p210
F27.067038494808447
tp211
aF37.17824790852154
g203
S'2012-03-02 15:11:31'
p212
I27
F433.7462255994179
F279.9053316689223
tp213
a((lp214
(S'203'
p215
g210
F153.90855011030908
tp216
a(g210
S'203'
p217
F126.8415116158981
tp218
a(g217
g197
F369.98613606887915
tp219
a(g197
g199
F457.83618440901
tp220
a(g199
S'1'
p221
F67.74802484784371
tp222
aF17.6448061057791
g212
S'2012-03-02 15:15:31'
p223
I0
F1176.32040705194
F1099.127521306194
tp224
a.