(lp0
((lp1
(S'371'
p2
S'1158'
p3
F47.144604397533065
tp4
a(g3
S'233'
p5
F505.9919712639641
tp6
a(g5
S'1222'
p7
F314.42150737049457
tp8
a(g7
S'886'
p9
F498.13109666342655
tp10
a(g9
S'1233'
p11
F203.95830291726205
tp12
a(g11
S'820'
p13
F255.3750506846333
tp14
a(g13
S'970'
p15
F247.7378419176489
tp16
a(g15
S'774'
p17
F377.3364418971982
tp18
a(g17
S'895'
p19
F273.18098665820054
tp20
aF28.834706157568533
S'2012-03-02 13:03:45'
p21
S'2012-03-02 13:09:25'
p22
I33
F2723.2778037703615
F2115.9704152381546
tp23
a((lp24
(S'774'
p25
g19
F4.7599203591060375
tp26
a(g19
S'774'
p27
F268.4210662990969
tp28
a(g27
S'986'
p29
F31.091000377312845
tp30
aF18.256319222130948
g22
S'2012-03-02 13:10:25'
p31
I0
F304.2719870355158
F38.13692900103704
tp32
a((lp33
(g25
g29
F432.2243108340949
tp34
a(g29
S'1218'
p35
F423.3470614498756
tp36
a(g35
S'1191'
p37
F264.7542280364345
tp38
a(g37
S'1124'
p39
F48.04091214412827
tp40
aF66.76380071225906
g31
S'2012-03-02 13:11:28'
p41
I27
F1168.3665124645333
F896.8675293778394
tp42
a((lp43
(S'1191'
p44
g39
F300.6231441027838
tp45
a(g39
S'1191'
p46
F184.0928216646581
tp47
aF27.698055186710963
g41
S'2012-03-02 13:12:31'
p48
I33
F484.71596576744184
F484.73439844804625
tp49
a((lp50
(S'1124'
p51
g46
F532.75687786687
tp52
a(g46
g39
F348.66405624127844
tp53
a(g39
S'1009'
p54
F343.5463299595581
tp55
a(g54
S'1122'
p56
F116.39530691028786
tp57
aF94.68441677491725
g48
S'2012-03-02 13:13:22'
p58
I0
F1341.3625709779944
F44.669391789056334
tp59
a((lp60
(S'1009'
p61
g56
F519.4003931608054
tp62
a(g56
S'1009'
p63
F403.0050862783067
tp64
a(g63
S'1124'
p65
F343.5463299595581
tp66
a(g65
g46
F348.66405624127844
tp67
a(g46
S'867'
p68
F360.6074231124015
tp69
a(g68
S'920'
p70
F183.65152298405133
tp71
aF64.76624435209203
g58
S'2012-03-02 13:15:22'
p72
I16
F2158.874811736401
F402.10128170767564
tp73
a((lp74
(S'867'
p75
g70
F592.493634524718
tp76
a(g70
S'867'
p77
F408.84211159134935
tp78
a(g77
S'874'
p79
F149.36439520031212
tp80
aF35.71138369602557
g72
S'2012-03-02 13:17:18'
p81
I38
F1150.7001413163796
F566.3584012318624
tp82
a((lp83
(g75
g79
F342.68472414805
tp84
a(g79
S'867'
p85
F492.04911934836207
tp86
a(g85
S'1191'
p87
F360.6074231124015
tp88
a(g87
S'973'
p89
F412.40913364934164
tp90
a(g89
S'895'
p91
F454.98854999286266
tp92
aF23.954387809366658
g81
S'2012-03-02 13:22:28'
p93
I55
F2062.7389502510177
F990.900984328677
tp94
a((lp95
(S'973'
p96
g91
F10.631854785190827
tp97
a(g91
S'973'
p98
F90.05985387362453
tp99
aF17.261435770082635
g93
S'2012-03-02 13:22:49'
p100
I29
F100.69170865881536
F79.58771731702976
tp101
a((lp102
(S'895'
p103
g98
F534.416549059377
tp104
a(g98
g91
F444.35669521011835
tp105
a(g91
S'1229'
p106
F249.3697768587104
tp107
a(g106
S'987'
p108
F111.5027939833313
tp109
aF133.9645815111537
g100
S'2012-03-02 13:23:25'
p110
I0
F1339.645815111537
F48.15982501437863
tp111
a((lp112
(S'1229'
p113
g108
F940.1085342845737
tp114
a(g108
S'1189'
p115
F541.0596802687863
tp116
a(g115
S'887'
p117
F161.28833477649084
tp118
aF23.557145727440094
g110
S'2012-03-02 13:27:36'
p119
I29
F1642.456549329851
F1240.2337669753458
tp120
a((lp121
(S'1189'
p122
g117
F50.59570968762135
tp123
a(g117
S'1027'
p124
F974.3320508593303
tp125
a(g124
S'842'
p126
F108.42347341772006
tp127
a(g126
S'929'
p128
F138.91582185729666
tp129
a(g128
S'414'
p130
F303.12038890948725
tp131
a(g130
S'371'
p132
F739.6760747221767
tp133
a(g132
S'323'
p134
F502.52151206068487
tp135
a(g134
S'195'
p136
F5.796010688546579
tp137
aF2.6001974295037886
g119
S'2012-03-02 14:32:45'
p138
I0
F2823.3810422028637
F2035.256201767207
tp139
a((lp140
(S'323'
p141
g136
F893.5776379197937
tp142
a(g136
S'323'
p143
F899.3736486026992
tp144
a(g143
S'371'
p145
F502.52151206068487
tp146
a(g145
g3
F343.4160234801613
tp147
a(g3
g5
F505.9919712639641
tp148
a(g5
S'324'
p149
F522.2079091612247
tp150
a(g149
S'12'
p151
F348.33486400960794
tp152
a(g151
S'307'
p153
F336.87317808984017
tp154
a(g153
S'101'
p155
F140.95778943856277
tp156
aF269.5952720415924
g138
S'2012-03-02 14:33:45'
p157
I79
F4493.25453402654
F1356.2422191216397
tp158
a((lp159
(S'307'
p160
g155
F375.4163886220118
tp161
a(g155
S'307'
p162
F516.3741780275716
tp163
a(g162
S'12'
p164
F336.87317808984017
tp165
a(g164
S'324'
p166
F348.33486400960794
tp167
a(g166
S'233'
p168
F522.2079091612247
tp169
a(g168
S'1158'
p170
F505.9919712639641
tp171
a(g170
S'371'
p172
F343.4160234801613
tp173
a(g172
g134
F502.52151206068487
tp174
a(g134
g136
F899.3736486026992
tp175
a(g136
S'160'
p176
F1654.504702992569
tp177
a(g176
S'206'
p178
F61.405359138813544
tp179
aF363.985184126949
g157
S'2012-03-02 14:34:45'
p180
I75
F6066.419735449149
F1129.1983738640738
tp181
a((lp182
(S'160'
p183
g183
F0.0
tp184
aF7.156938453721625
g180
S'2012-03-02 14:35:44'
p185
I20
F117.29426910265997
F460.05770943892753
tp186
a((lp187
(g183
g178
F2922.0449875561676
tp188
a(g178
S'79'
p189
F340.8639244928786
tp190
a(g189
S'62'
p191
F766.4395078482208
tp192
a(g191
S'328'
p193
F304.77298423724176
tp194
a(g193
S'196'
p195
F208.72880849237106
tp196
a(g195
S'220'
p197
F611.7560822228065
tp198
a(g197
S'359'
p199
F423.40012907983873
tp200
a(g199
S'400'
p201
F368.9484986175782
tp202
a(g201
S'40'
p203
F175.03635260490466
tp204
a(g203
S'348'
p205
F401.59962843252373
tp206
a(g205
S'40'
p207
F412.8112076787303
tp208
aF280.5735685454802
g185
S'2012-03-02 14:37:13'
p209
I0
F6936.402111263262
F497.98123573695136
tp210
a((lp211
(S'348'
p212
g207
F11.211579248271597
tp213
a(g207
S'400'
p214
F175.03635260490466
tp215
a(g214
S'359'
p216
F114.41944233004854
tp217
aF25.172152257200217
g209
S'2012-03-02 14:37:56'
p218
I18
F300.6673741832248
F48.309093338401944
tp219
a((lp220
(S'400'
p221
g216
F483.36794092239086
tp222
a(g216
S'149'
p223
F214.5001502809245
tp224
a(g223
S'115'
p225
F376.7975235016344
tp226
aF148.79985434376226
g218
S'2012-03-02 14:38:22'
p227
I25
F1074.6656147049498
F91.53359564071609
tp228
a((lp229
(S'149'
p230
g225
F656.0726972376896
tp231
a(g225
S'149'
p232
F279.2751738259168
tp233
a(g232
S'359'
p234
F214.5001502809245
tp235
a(g234
g201
F368.9484986175782
tp236
a(g201
g203
F175.03635260490466
tp237
a(g203
g205
F401.59962843252373
tp238
a(g205
S'423'
p239
F401.7062149289834
tp240
a(g239
S'27'
p241
F186.881007181507
tp242
aF37.16335001229269
g227
S'2012-03-02 14:42:42'
p243
I0
F2684.019723110028
F594.2043858744655
tp244
a((lp245
(S'423'
p246
g241
F547.0287988381982
tp247
a(g241
S'423'
p248
F360.14779166603097
tp249
a(g248
S'348'
p250
F401.7062149289834
tp251
a(g250
g239
F376.4549267116462
tp252
aF168.53377321448588
g243
S'2012-03-02 14:43:18'
p253
I46
F1685.3377321448588
F161.51529670056064
tp254
a((lp255
(g212
g239
F25.25128821842364
tp256
a(g239
g241
F360.14779166603097
tp257
a(g241
S'333'
p258
F34.07967062568428
tp259
aF88.83079422567647
g253
S'2012-03-02 14:43:35'
p260
I0
F419.4787505101389
F48.29456493954254
tp261
a((lp262
(S'27'
p263
g258
F3064.3909136816164
tp264
a(g258
S'117'
p265
F172.715636685259
tp266
a(g265
S'219'
p267
F439.0234501785394
tp268
a(g267
S'209'
p269
F348.12509298251837
tp270
a(g269
S'69'
p271
F560.4047888183237
tp272
a(g271
S'114'
p273
F277.18170658049786
tp274
a(g273
S'322'
p275
F293.16190634917444
tp276
a(g275
S'362'
p277
F196.0316382659179
tp278
a(g277
S'322'
p279
F163.4960090655294
tp280
aF144.90738768895298
g260
S'2012-03-02 14:45:52'
p281
I22
F5514.531142607377
F1640.7191186715202
tp282
a((lp283
(S'362'
p284
g279
F32.53562920042012
tp285
a(g279
S'114'
p286
F293.16190634917444
tp287
a(g286
S'69'
p288
F277.18170658049786
tp289
a(g288
S'209'
p290
F560.4047888183237
tp291
a(g290
S'219'
p292
F237.90112395414576
tp293
aF63.8514754132813
g281
S'2012-03-02 14:47:11'
p294
I0
F1401.1851549025619
F623.3780026474998
tp295
a((lp296
(S'209'
p297
g292
F586.0262168811103
tp298
a(g292
g269
F348.12509298251837
tp299
a(g269
g271
F318.04826283557315
tp300
aF75.1319743619521
g294
S'2012-03-02 14:48:11'
p301
I50
F1252.1995726992018
F555.9882758165681
tp302
a((lp303
(g297
g271
F878.4530514746639
tp304
a(g271
g290
F560.4047888183237
tp305
a(g290
g292
F348.12509298251837
tp306
a(g292
S'117'
p307
F439.0234501785394
tp308
a(g307
S'97'
p309
F227.96620846942417
tp310
aF210.34050787915453
g301
S'2012-03-02 14:48:53'
p311
I1
F2453.9725919234693
F29.555142475117414
tp312
a((lp313
(S'117'
p314
g309
F1388.8429257249554
tp315
a(g309
S'372'
p316
F63.758701035611004
tp317
a(g316
S'433'
p318
F585.0976094380715
tp319
a(g318
S'270'
p320
F330.3168336032497
tp321
a(g320
S'392'
p322
F95.85961614434376
tp323
a(g322
S'1'
p324
F1075.0148639845097
tp325
a(g324
S'392'
p326
F121.21916230685183
tp327
aF219.6065827342556
g311
S'2012-03-02 14:49:53'
p328
I18
F3660.109712237593
F763.7201844559039
tp329
a((lp330
(g324
g326
F1196.2340261118431
tp331
a(g326
S'270'
p332
F95.85961614434376
tp333
a(g332
S'365'
p334
F208.27095553204154
tp335
aF90.02187586729372
g328
S'2012-03-02 14:50:53'
p336
I25
F1500.3645977882286
F1021.6086830869082
tp337
a((lp338
(S'270'
p339
g334
F1574.5295207407605
tp340
a(g334
S'270'
p341
F1366.258565726773
tp342
a(g341
g322
F95.85961614434376
tp343
a(g322
g324
F1075.0148639845097
tp344
a(g324
S'190'
p345
F133.23962227802784
tp346
a(g345
S'200'
p347
F65.9676834156334
tp348
a(g347
S'323'
p349
F154.17670372421748
tp350
aF7.841057401781151
g336
S'2012-03-02 15:25:03'
p351
I83
F4465.046576014266
F1148.4086277064257
tp352
a((lp353
(S'200'
p354
g349
F483.9292106706748
tp355
a(g349
g136
F899.3736486026992
tp356
a(g136
g176
F1654.504702992569
tp357
a(g176
g178
F353.9224126140033
tp358
aF101.7518992463984
g351
S'2012-03-02 15:27:03'
p359
I83
F3391.7299748799464
F2556.725486492564
tp360
a((lp361
(g183
g178
F3331.8563053229855
tp362
a(g178
g189
F340.8639244928786
tp363
a(g189
g191
F766.4395078482208
tp364
a(g191
g193
F304.77298423724176
tp365
a(g193
g195
F208.72880849237106
tp366
a(g195
g197
F611.7560822228065
tp367
a(g197
S'196'
p368
F148.47747634072294
tp369
aF342.7737053374336
g359
S'2012-03-02 15:28:03'
p370
I77
F5712.895088957227
F1249.3555046013255
tp371
a((lp372
(S'220'
p373
g368
F760.2335584800419
tp374
a(g368
S'328'
p375
F208.72880849237106
tp376
a(g375
S'62'
p377
F304.77298423724176
tp378
a(g377
S'79'
p379
F766.4395078482208
tp380
a(g379
S'171'
p381
F258.8430387665728
tp382
a(g381
S'34'
p383
F34.45420241197439
tp384
aF40.38701711947655
g370
S'2012-03-02 15:31:31'
p385
I68
F2333.472100236423
F1979.8213748537
tp386
a((lp387
(S'171'
p388
g383
F395.9564122728874
tp389
a(g383
S'171'
p390
F361.50220986718784
tp391
a(g390
S'79'
p392
F258.8430387665728
tp393
a(g392
S'206'
p394
F340.8639244928786
tp395
a(g394
g189
F294.0348495488226
tp396
aF371.5200978633786
g385
S'2012-03-02 15:31:47'
p397
I0
F1651.2004349483493
F10.750674657332107
tp398
a((lp399
(S'206'
p400
g189
F46.82907494586363
tp401
a(g189
g191
F182.2528592210476
tp402
aF0.997212772673374
g397
S'2012-03-02 15:45:34'
p403
I0
F229.08193416691122
F82.7788335712995
tp404
a((lp405
(S'79'
p406
g406
F0.0
tp407
aF0.0
g403
S'2012-03-02 15:46:34'
p408
I0
F0.0
F0.0
tp409
a((lp410
(g406
g191
F584.186648726132
tp411
a(g191
g379
F766.4395078482208
tp412
a(g379
g394
F114.81318331274701
tp413
aF89.41663768802644
g408
S'2012-03-02 15:47:33'
p414
I0
F1465.4393398871
F179.9337525173287
tp415
a((lp416
(g406
g394
F226.05074118357405
tp417
a(g394
g189
F340.8639244928786
tp418
a(g189
g191
F766.4395078482208
tp419
a(g191
g193
F441.93059275223544
tp420
aF106.51708597661452
g414
S'2012-03-02 15:48:33'
p421
I27
F1775.2847662769088
F325.2261950851517
tp422
a((lp423
(S'62'
p424
g193
F746.7035768674331
tp425
a(g193
S'76'
p426
F115.33166397645091
tp427
aF50.87421093504889
g421
S'2012-03-02 15:49:34'
p428
I42
F862.035240843884
F444.6276336453544
tp429
a((lp430
(S'328'
p431
g426
F449.2194158313611
tp432
a(g426
S'39'
p433
F384.48890299753157
tp434
a(g433
S'76'
p435
F63.637838220895176
tp436
aF53.84076942298728
g428
S'2012-03-02 15:50:34'
p437
I40
F897.346157049788
F426.07580788999087
tp438
a((lp439
(S'39'
p440
g435
F320.8510647868451
tp441
a(g435
S'461'
p442
F209.84399480520491
tp443
a(g442
S'288'
p444
F213.86956785060167
tp445
a(g444
S'448'
p446
F161.32840893425416
tp447
a(g446
S'115'
p448
F131.96675629555088
tp449
a(g448
g232
F279.2751738259168
tp450
a(g232
S'388'
p451
F328.56027695478394
tp452
a(g451
S'400'
p453
F229.94919080447391
tp454
aF56.26933302772895
g437
S'2012-03-02 15:52:34'
p455
I38
F1875.6444342576315
F1044.8350201430867
tp456
a((lp457
(S'388'
p458
g453
F35.79089491540516
tp459
a(g453
g216
F368.9484986175782
tp460
a(g216
g223
F214.5001502809245
tp461
a(g223
g225
F279.2751738259168
tp462
a(g225
S'448'
p463
F131.96675629555088
tp464
a(g463
g448
F391.32188959542384
tp465
aF204.7396843484351
g455
S'2012-03-02 15:52:59'
p466
I0
F1421.8033635307993
F54.346967112615474
tp467
a((lp468
(S'448'
p469
g448
F259.35513331735507
tp470
a(g448
g232
F279.2751738259168
tp471
a(g232
g234
F214.5001502809245
tp472
a(g234
g223
F79.02499499229795
tp473
aF78.83577970261524
g466
S'2012-03-02 15:53:37'
p474
I31
F832.1554524164942
F266.271602746527
tp475
a((lp476
(S'359'
p477
g223
F135.4751552898712
tp478
a(g223
g234
F214.5001502809245
tp479
a(g234
g201
F295.7498287192583
tp480
aF64.5725134290054
g474
S'2012-03-02 15:54:13'
p481
I0
F645.725134290054
F34.042709213609484
tp482
a((lp483
(g477
g201
F73.19866990803754
tp484
a(g201
S'388'
p485
F265.74008571950515
tp486
a(g485
S'227'
p487
F39.58617310500603
tp488
aF22.711495723952925
g481
S'2012-03-02 15:55:13'
p489
I14
F378.52492873254874
F355.23517988864484
tp490
a((lp491
(g458
g487
F167.0401487518794
tp492
a(g487
S'189'
p493
F161.32239584715794
tp494
a(g493
S'40'
p495
F470.6320208254988
tp496
a(g495
g205
F401.59962843252373
tp497
a(g205
g239
F401.7062149289834
tp498
a(g239
S'87'
p499
F175.1323185287004
tp500
aF106.64596363888461
g489
S'2012-03-02 15:56:13'
p501
I40
F1777.4327273147435
F315.4257164673847
tp502
a((lp503
(g246
g499
F898.6886750899268
tp504
a(g499
S'322'
p505
F20.064454653681608
tp506
aF55.12518778461651
g501
S'2012-03-02 15:57:13'
p507
I55
F918.7531297436085
F918.0420819942333
tp508
a((lp509
(S'87'
p510
g505
F641.5271448670949
tp511
a(g505
S'47'
p512
F238.99911240568
tp513
a(g512
S'285'
p514
F273.0597642640011
tp515
aF69.21516129220656
g507
S'2012-03-02 15:58:13'
p516
I61
F1153.586021536776
F901.9207404986387
tp517
a((lp518
(S'47'
p519
g514
F17.678411958890813
tp520
a(g514
S'114'
p521
F232.99989193956105
tp522
a(g521
g288
F277.18170658049786
tp523
a(g288
g290
F560.4047888183237
tp524
a(g290
g292
F348.12509298251837
tp525
a(g292
S'190'
p526
F41.698815889884365
tp527
aF23.4410544026909
g516
S'2012-03-02 16:02:00'
p528
I0
F1478.0887081696762
F1215.7301723255368
tp529
a((lp530
(S'219'
p531
g526
F774.4808709969824
tp532
a(g526
g324
F133.23962227802784
tp533
a(g324
g326
F1075.0148639845097
tp534
a(g326
g332
F95.85961614434376
tp535
a(g332
g322
F196.59739724926928
tp536
aF45.50384741306266
g528
S'2012-03-02 16:05:00'
p537
I29
F2275.192370653133
F1462.0096744119357
tp538
a((lp539
(g339
g322
F100.73778110620574
tp540
a(g322
S'431'
p541
F457.83618440901
tp542
a(g541
S'140'
p543
F141.98936635907998
tp544
aF41.34472122536827
g537
S'2012-03-02 16:06:01'
p545
I53
F700.5633318742957
F729.1017226705294
tp546
a.