(lp0
((lp1
(S'1185'
p2
S'777'
p3
F339.40001496333446
tp4
a(g3
S'988'
p5
F428.69502991180303
tp6
a(g5
S'1127'
p7
F152.49726409143645
tp8
a(g7
S'1082'
p9
F6.8306029289612695
tp10
a(g9
S'838'
p11
F427.5037898483401
tp12
a(g11
S'936'
p13
F690.8846058389883
tp14
a(g13
S'873'
p15
F117.95681148015007
tp16
a(g15
S'1292'
p17
F5581.023855259741
tp18
a(g17
S'1373'
p19
F329.96708151355597
tp20
aF53.7322229223858
S'2012-03-02 09:04:19'
p21
S'2012-03-02 09:13:20'
p22
I66
F8074.759055836311
F7027.826116452604
tp23
a((lp24
(S'1292'
p25
g19
F1098.41272693253
tp26
a(g19
S'1292'
p27
F768.4456454198628
tp28
a(g27
S'1325'
p29
F381.5132603281759
tp30
aF505.883617353128
g22
S'2012-03-02 09:13:36'
p31
I0
F2248.371632680569
F49.67077373202844
tp32
a((lp33
(g25
g29
F78.28166393285716
tp34
a(g29
S'1235'
p35
F778.5383805800125
tp36
a(g35
S'1288'
p37
F908.2400800915565
tp38
a(g37
S'1401'
p39
F114.89316091783466
tp40
aF38.236338010622255
g31
S'2012-03-02 09:16:33'
p41
I33
F1879.9532855222608
F1308.386363618022
tp42
a((lp43
(S'1288'
p44
g39
F1207.009354410724
tp45
a(g39
S'1298'
p46
F326.7313572858351
tp47
aF19.105420630130148
g41
S'2012-03-02 09:21:22'
p48
I0
F1533.7407116965592
F882.0264332445885
tp49
a((lp50
(S'1401'
p51
g46
F1124.891467449612
tp52
a(g46
S'1332'
p53
F651.7249898921416
tp54
a(g53
S'1278'
p55
F443.0096384527584
tp56
a(g55
S'1261'
p57
F1.6670725944645604
tp58
aF7.309557044058791
g48
S'2012-03-02 09:39:36'
p59
I1
F2221.293168388977
F1392.4266811005252
tp60
a((lp61
(S'1278'
p62
g57
F854.7562027997523
tp63
a(g57
S'1278'
p64
F856.423275392782
tp65
a(g64
S'1332'
p66
F443.0096384527584
tp67
a(g66
S'1361'
p68
F171.40784036345246
tp69
aF190.2761146643519
g59
S'2012-03-02 09:40:20'
p70
I12
F2325.5969570087454
F159.1103810476096
tp71
a((lp72
(S'1332'
p73
g68
F842.8467892415081
tp74
a(g68
S'1332'
p75
F671.4389489883039
tp76
a(g75
g55
F443.0096384527584
tp77
a(g55
g57
F47.39467687523454
tp78
aF300.70350803367074
g70
S'2012-03-02 09:40:44'
p79
I0
F2004.690053557805
F42.57703612334778
tp80
a((lp81
(g62
g57
F809.028598554985
tp82
a(g57
S'1371'
p83
F129.8417164567413
tp84
aF56.33221890070358
g79
S'2012-03-02 09:41:44'
p85
I35
F938.8703150117263
F679.1179543326159
tp86
a((lp87
(S'1261'
p88
g83
F545.8324674006802
tp89
a(g83
S'1261'
p90
F415.9907509776604
tp91
a(g90
S'1247'
p92
F412.6311896293208
tp93
aF78.54025188615208
g85
S'2012-03-02 09:42:47'
p94
I42
F1374.4544080076614
F482.44744168479315
tp95
a((lp96
(g88
g92
F865.5353761149455
tp97
a(g92
S'1261'
p98
F452.9041865730224
tp99
a(g98
S'1250'
p100
F299.5365199052857
tp101
a(g100
S'1286'
p102
F204.88150175530103
tp103
a(g102
S'1367'
p104
F722.8074771960407
tp105
a(g104
S'1279'
p106
F178.50584249814088
tp107
aF119.59774700675429
g94
S'2012-03-02 09:44:09'
p108
I0
F2724.1709040427363
F624.5226838629039
tp109
a((lp110
(S'1367'
p111
g106
F862.0659572255494
tp112
a(g106
S'1367'
p113
F683.5601147274087
tp114
a(g113
S'1286'
p115
F47.66016705533878
tp116
aF72.60544886620089
g108
S'2012-03-02 09:45:28'
p117
I57
F1593.2862390082971
F131.10228859539373
tp118
a((lp119
(g111
g115
F675.1473101407062
tp120
a(g115
S'1250'
p121
F204.88150175530103
tp122
a(g121
S'1261'
p123
F299.5365199052857
tp124
a(g123
g64
F856.423275392782
tp125
a(g64
g66
F443.0096384527584
tp126
a(g66
S'1298'
p127
F345.3028539316209
tp128
aF37.518390990710095
g117
S'2012-03-02 09:49:59'
p129
I29
F2824.3010995784543
F2262.2402274546685
tp130
a((lp131
(g73
g127
F306.4221359973491
tp132
a(g127
S'1313'
p133
F46.777980171832525
tp134
aF21.192006970150896
g129
S'2012-03-02 09:50:59'
p135
I0
F353.20011616918157
F2.574975936181711
tp136
a((lp137
(S'1298'
p138
g138
F0.0
tp139
aF1.06092907151985
g135
S'2012-03-02 09:51:59'
p140
I0
F17.682151191997498
F17.78204986850141
tp141
a((lp142
(g138
g133
F466.73187199787577
tp143
a(g133
S'1361'
p144
F414.89346113273507
tp145
a(g144
g75
F671.4389489883039
tp146
a(g75
g55
F437.35980283174416
tp147
aF40.03087545152164
g140
S'2012-03-02 09:54:58'
p148
I9
F1990.4240849506589
F779.4228502185765
tp149
a((lp150
(g73
g55
F5.649835621643191
tp151
a(g55
g66
F443.0096384527584
tp152
a(g66
S'1247'
p153
F850.3016764174043
tp154
a(g153
S'1401'
p155
F70.26757349788686
tp156
aF27.38457447979386
g148
S'2012-03-02 09:57:58'
p157
I27
F1369.2287239896928
F836.8794852111112
tp158
a((lp159
(S'1247'
p160
g155
F814.7871511353578
tp161
a(g155
S'1288'
p162
F1321.90251509964
tp163
a(g162
g39
F245.64080625991457
tp164
aF57.17593133987789
g157
S'2012-03-02 10:00:28'
p165
I59
F2382.330472494912
F1304.1416362751252
tp166
a((lp167
(g44
g44
F0.0
tp168
aF1.6852240113485328
g165
S'2012-03-02 10:01:38'
p169
I0
F32.76824466511036
F163.84277378978476
tp170
a((lp171
(g44
g39
F1109.029953892424
tp172
a(g39
g162
F1321.90251509964
tp173
a(g162
S'1235'
p174
F36.932157428999936
tp175
aF47.76512180169801
g169
S'2012-03-02 10:04:44'
p176
I0
F2467.864626421064
F62.647310247293866
tp177
a((lp178
(g44
g174
F945.1722375186519
tp179
a(g174
S'1247'
p180
F1077.4775717248071
tp181
a(g180
g98
F452.9041865730224
tp182
a(g98
g100
F66.61900649226723
tp183
aF50.84346004617497
g176
S'2012-03-02 10:07:44'
p184
I37
F2542.1730023087484
F1730.536037202258
tp185
a((lp186
(g88
g100
F366.1555263937668
tp187
a(g100
g123
F299.5365199052857
tp188
a(g123
g64
F856.423275392782
tp189
a(g64
g66
F82.8624842887397
tp190
aF47.75140579776915
g184
S'2012-03-02 10:09:45'
p191
I27
F1604.9778059805742
F608.2275304514652
tp192
a((lp193
(g62
g66
F525.8721227314443
tp194
a(g66
g55
F443.0096384527584
tp195
a(g55
g57
F262.18435637748297
tp196
aF116.62731640058074
g191
S'2012-03-02 10:10:23'
p197
I0
F1231.0661175616856
F42.32089712254732
tp198
a((lp199
(g62
g57
F594.2389191672771
tp200
a(g57
g92
F452.9041865730224
tp201
a(g92
g98
F439.9718855930816
tp202
aF89.22689948000287
g197
S'2012-03-02 10:11:23'
p203
I12
F1487.114991333381
F569.4927916368597
tp204
a((lp205
(g160
g98
F12.932300981261776
tp206
a(g98
g100
F299.5365199052857
tp207
a(g100
g102
F204.88150175530103
tp208
a(g102
S'1353'
p209
F1461.886012214432
tp210
a(g209
S'1361'
p211
F5.425652326795564
tp212
aF53.31927726760503
g203
S'2012-03-02 10:13:37'
p213
I29
F1984.661987183076
F1384.6823739683725
tp214
a((lp215
(S'1353'
p216
g211
F976.6696579821779
tp217
a(g211
S'1353'
p218
F982.0953103065008
tp219
a(g218
S'1394'
p220
F26.438635856042158
tp221
aF95.28977299894659
g213
S'2012-03-02 10:14:52'
p222
I0
F1985.2036041447207
F64.70896463470203
tp223
a((lp224
(g216
g220
F686.2081543107944
tp225
a(g220
S'1265'
p226
F5.680161875732755
tp227
aF41.51329897119163
g222
S'2012-03-02 10:15:52'
p228
I42
F691.8883161865272
F678.2706770952899
tp229
a((lp230
(S'1394'
p231
g226
F557.010549233445
tp232
a(g226
S'1394'
p233
F551.3303873579385
tp234
a(g233
S'1353'
p235
F452.2205798512306
tp236
aF122.13090128681327
g228
S'2012-03-02 10:16:38'
p237
I38
F1560.561516442614
F479.98775645314873
tp238
a((lp239
(g231
g235
F1164.867369809843
tp240
a(g235
g220
F712.646790159864
tp241
a(g220
g226
F551.3303873579385
tp242
a(g226
S'1269'
p243
F0.7691869822323628
tp244
aF141.0743458631542
g237
S'2012-03-02 10:17:40'
p245
I0
F2429.613734309878
F76.38826221883608
tp246
a((lp247
(S'1265'
p248
g243
F578.5500521516269
tp249
a(g243
S'1251'
p250
F313.16976264900904
tp251
a(g250
S'1346'
p252
F141.02027304502917
tp253
aF60.94859534826876
g245
S'2012-03-02 10:18:41'
p254
I37
F1032.7400878456651
F743.3516236333451
tp255
a((lp256
(S'1251'
p257
g257
F0.0
tp258
aF6.429673183199881
g254
S'2012-03-02 10:19:02'
p259
I0
F37.506426901999305
F37.57116323037766
tp260
a((lp261
(g257
g252
F89.00878765753264
tp262
a(g252
S'1249'
p263
F342.7199784240905
tp264
a(g263
S'1386'
p265
F1043.0772787454132
tp266
a(g265
S'1309'
p267
F25.42580547378547
tp268
aF29.51275771083584
g259
S'2012-03-02 10:22:05'
p269
I20
F1500.2318503008216
F1153.293800761191
tp270
a((lp271
(S'1386'
p272
g267
F615.071158261476
tp273
a(g267
S'1333'
p274
F324.0115985246878
tp275
a(g274
S'1295'
p276
F565.6374723484656
tp277
a(g276
S'1395'
p278
F265.13179742375445
tp279
aF796.4334119512728
g269
S'2012-03-02 10:22:13'
p280
I16
F1769.8520265583838
F71.57970035135772
tp281
a((lp282
(S'1295'
p283
g278
F925.7271977486376
tp284
a(g278
S'1295'
p285
F53.980307165357054
tp286
aF58.78245029483969
g280
S'2012-03-02 10:23:13'
p287
I48
F979.7075049139947
F871.7152266686787
tp288
a((lp289
(S'1395'
p290
g285
F606.6150933691305
tp291
a(g285
g278
F660.5954005099251
tp292
a(g278
S'1377'
p293
F573.4757749753169
tp294
a(g293
S'1240'
p295
F450.20487229242497
tp296
a(g295
S'1344'
p297
F281.08875341763786
tp298
a(g297
S'1268'
p299
F260.9910907964827
tp300
a(g299
S'1336'
p301
F57.290708506754946
tp302
aF131.70812782181804
g287
S'2012-03-02 10:24:32'
p303
I0
F2890.2616938676733
F781.5826091876215
tp304
a((lp305
(S'1268'
p306
g301
F212.7163117139688
tp307
a(g301
S'1268'
p308
F155.42560320927745
tp309
a(g308
S'1344'
p310
F260.9910907964827
tp311
a(g310
S'1240'
p312
F281.08875341763786
tp313
a(g312
S'1310'
p314
F51.7069790174691
tp315
aF41.22551734949296
g303
S'2012-03-02 10:25:56'
p316
I35
F961.9287381548359
F406.7195293155769
tp317
a((lp318
(S'1240'
p319
g314
F440.54847828344344
tp320
a(g314
S'1240'
p321
F388.8414992769568
tp322
a(g321
g297
F281.08875341763786
tp323
a(g297
S'1264'
p324
F368.4326560017038
tp325
a(g324
S'1382'
p326
F491.1492433133898
tp327
a(g326
S'1384'
p328
F392.3082266788791
tp329
aF202.4887591690295
g316
S'2012-03-02 10:26:38'
p330
I0
F2362.3688569720107
F53.32415342158872
tp331
a((lp332
(S'1382'
p333
g328
F54.34738364424434
tp334
a(g328
S'1382'
p335
F446.6556103196644
tp336
a(g335
S'1284'
p337
F269.5278135383138
tp338
a(g337
S'1303'
p339
F5.396058541689769
tp340
aF19.132443272315644
g330
S'2012-03-02 10:29:04'
p341
I20
F775.9268660439122
F650.864500653243
tp342
a((lp343
(S'1284'
p344
g339
F398.4451519876641
tp345
a(g339
S'463'
p346
F3.3986336187365027
tp347
aF24.51928183361088
g341
S'2012-03-02 10:30:03'
p348
I35
F401.84378560640056
F394.1820547994391
tp349
a((lp350
(S'1303'
p351
g346
F920.1440705634839
tp352
a(g346
S'25'
p353
F698.4005052534098
tp354
a(g353
S'1137'
p355
F909.535541555871
tp356
a(g355
S'1072'
p357
F81.59617663685502
tp358
aF78.94819040701371
g348
S'2012-03-02 10:32:02'
p359
I40
F2609.67629400962
F830.5680339340471
tp360
a((lp361
(S'1137'
p362
g357
F745.9259904994267
tp363
a(g357
S'271'
p364
F140.48915934657632
tp365
aF40.39360176513432
g359
S'2012-03-02 10:33:21'
p366
I40
F886.415149846003
F778.4590602290128
tp367
a((lp368
(S'1072'
p369
g364
F314.6497160342423
tp370
a(g364
S'336'
p371
F145.7434125243181
tp372
a(g371
S'5'
p373
F276.60213113766173
tp374
a(g373
S'231'
p375
F373.65454097386885
tp376
a(g375
S'101'
p377
F2128.2368240663845
tp378
a(g377
S'923'
p379
F930.3605400765287
tp380
a(g379
S'1066'
p381
F161.83981677704838
tp382
aF129.93260944770157
g366
S'2012-03-02 10:35:21'
p383
I42
F4331.086981590052
F2400.6143785700747
tp384
a((lp385
(S'923'
p386
g381
F569.3741687836806
tp387
a(g381
S'1170'
p388
F134.29559832461862
tp389
a(g388
S'1020'
p390
F201.74042609344684
tp391
a(g390
S'1145'
p392
F138.3852165812993
tp393
a(g392
S'1104'
p394
F725.1024325879025
tp395
a(g394
S'1209'
p396
F340.0113446486208
tp397
a(g396
S'1222'
p398
F306.0189073646795
tp399
aF61.657738580023356
g383
S'2012-03-02 10:37:42'
p400
I22
F2414.9280943842477
F960.4559147022443
tp401
a((lp402
(S'1209'
p403
g398
F835.8194734408713
tp404
a(g398
S'886'
p405
F498.13109666342655
tp406
a(g405
S'1233'
p407
F203.95830291726205
tp408
a(g407
S'819'
p409
F280.1051964205321
tp410
a(g409
S'790'
p411
F342.8270814339317
tp412
aF146.7741159085601
g400
S'2012-03-02 10:38:35'
p413
I50
F2160.8411508760237
F400.6074498738041
tp414
a((lp415
(S'819'
p416
g411
F488.4094527183222
tp417
a(g411
S'1203'
p418
F230.2415955502278
tp419
a(g418
S'818'
p420
F230.17736984156133
tp421
a(g420
S'1207'
p422
F213.60182895150257
tp423
a(g422
S'806'
p424
F431.0471245299249
tp425
aF136.5837747078462
g413
S'2012-03-02 10:39:17'
p426
I48
F1593.477371591539
F419.37116548784337
tp427
a((lp428
(S'1207'
p429
g424
F572.0848614706999
tp430
a(g424
S'1207'
p431
F141.0377369821515
tp432
a(g431
S'799'
p433
F101.1060544565955
tp434
a(g433
S'1215'
p435
F216.60117519723585
tp436
a(g435
S'1030'
p437
F229.64658602255514
tp438
a(g437
S'1046'
p439
F227.7856641369205
tp440
aF56.99727108253373
g426
S'2012-03-02 10:40:51'
p441
I0
F1488.2620782661586
F422.64315953675384
tp442
a((lp443
(S'1030'
p444
g439
F5.27787044045825
tp445
a(g439
S'869'
p446
F156.17213501704404
tp447
a(g446
S'986'
p448
F313.4132600262387
tp449
a(g448
S'1218'
p450
F423.3470614498756
tp451
a(g450
S'1191'
p452
F264.7542280364345
tp453
a(g452
S'867'
p454
F335.9556324142914
tp455
aF44.96760562153027
g441
S'2012-03-02 10:42:51'
p456
I22
F1498.9201873843422
F918.1913201664472
tp457
a((lp458
(S'1191'
p459
g454
F696.5630555265703
tp460
a(g454
S'1191'
p461
F360.6074231124015
tp462
a(g461
S'1124'
p463
F348.66405624127844
tp464
a(g463
S'1009'
p465
F0.34759450588579466
tp466
aF105.46365970396022
g456
S'2012-03-02 10:43:39'
p467
I48
F1406.1821293861362
F274.78490272351985
tp468
a((lp469
(S'1124'
p470
g465
F343.89392446537624
tp471
a(g465
S'1124'
p472
F343.5463299595581
tp473
a(g472
S'1191'
p474
F348.66405624127844
tp475
a(g474
g454
F360.6074231124015
tp476
a(g454
S'874'
p477
F93.36060920669412
tp478
aF109.47470274994104
g467
S'2012-03-02 10:44:28'
p479
I0
F1490.0723429853085
F319.34221055391544
tp480
a((lp481
(S'867'
p482
g482
F0.0
tp483
aF0.27920867128413024
g479
S'2012-03-02 10:49:02'
p484
I0
F21.250882203292136
F21.266166844754057
tp485
a((lp486
(g482
g477
F564.1588463517631
tp487
a(g477
S'867'
p488
F492.04911934836207
tp489
a(g488
S'920'
p490
F408.84211159134935
tp491
a(g490
S'1016'
p492
F458.00638636503515
tp493
aF115.38338781939059
g484
S'2012-03-02 10:50:02'
p494
I7
F1923.05646365651
F304.58923592629174
tp495
a((lp496
(S'920'
p497
g492
F906.7701682743277
tp498
a(g492
S'920'
p499
F448.76378212167555
tp500
a(g499
S'867'
p501
F408.84211159134935
tp502
a(g501
g461
F360.6074231124015
tp503
a(g461
S'1218'
p504
F339.26342152751937
tp505
aF68.24068356813987
g494
S'2012-03-02 10:52:12'
p506
I18
F2464.2469066272733
F686.7468459344575
tp507
a((lp508
(g459
g504
F74.5091934911664
tp509
a(g504
S'1045'
p510
F380.2508287917065
tp511
a(g510
S'844'
p512
F161.05814139702346
tp513
a(g512
S'955'
p514
F135.70247565144197
tp515
a(g514
S'813'
p516
F56.66466961496389
tp517
a(g516
S'921'
p518
F182.17650096521103
tp519
a(g518
S'806'
p520
F107.48268907765393
tp521
a(g520
S'1020'
p522
F312.7614175495586
tp523
aF86.07086948371888
g506
S'2012-03-02 10:53:11'
p524
I29
F1410.605916538726
F482.4251821632713
tp525
a((lp526
(S'806'
p527
g522
F450.27104465982757
tp528
a(g522
S'806'
p529
F137.50962711414766
tp530
a(g529
g431
F467.98666534123106
tp531
aF63.346040226912386
g524
S'2012-03-02 10:54:11'
p532
I18
F1055.7673371152064
F576.7046494292312
tp533
a((lp534
(g527
g431
F326.9489283847457
tp535
a(g431
S'1145'
p536
F142.994246033289
tp537
a(g536
S'1028'
p538
F210.6065185280842
tp539
a(g538
S'772'
p540
F230.208379433524
tp541
a(g540
S'819'
p542
F232.03849592151013
tp543
a(g542
S'1233'
p544
F168.23614994950054
tp545
aF78.66196309503921
g532
S'2012-03-02 10:55:11'
p546
I48
F1311.0327182506535
F451.25010768185876
tp547
a((lp548
(g416
g416
F0.0
tp549
aF19.561408586667334
g546
S'2012-03-02 10:56:29'
p550
I29
F423.8305193777922
F424.7196889955183
tp551
a((lp552
(g416
g544
F24.51082697279532
tp553
a(g544
S'820'
p554
F255.3750506846333
tp555
a(g554
S'970'
p556
F124.84808068446164
tp557
aF11.294901163029497
g550
S'2012-03-02 10:58:38'
p558
I48
F404.7339583418903
F794.8989696858006
tp559
a((lp560
(S'820'
p561
g561
F0.0
tp562
aF6.579063320502793
g558
S'2012-03-02 10:58:51'
p563
I0
F23.757728657371196
F24.10260267199555
tp564
a((lp565
(g561
g556
F348.82819394213186
tp566
a(g556
S'1069'
p567
F300.1901722143531
tp568
a(g567
S'1046'
p569
F233.21024744024461
tp570
a(g569
g446
F156.17213501704404
tp571
a(g446
g448
F207.22192964448067
tp572
aF31.140566956456357
g563
S'2012-03-02 11:01:15'
p573
I5
F1245.6226782582544
F1152.8864456641204
tp574
a((lp575
(S'869'
p576
g448
F106.19133038261776
tp577
a(g448
g450
F426.28779912710473
tp578
aF16.815130405570187
g573
S'2012-03-02 11:03:09'
p579
I48
F532.4791295097225
F440.0500051641221
tp580
a((lp581
(S'986'
p582
g450
F2.9407376780063723
tp583
a(g450
g452
F264.7542280364345
tp584
a(g452
g504
F346.4077939081518
tp585
aF61.41027596225927
g579
S'2012-03-02 11:03:45'
p586
I0
F614.1027596225927
F56.388428339594796
tp587
a((lp588
(g459
g504
F81.65356587180665
tp589
a(g504
g510
F380.2508287917065
tp590
a(g510
g512
F161.05814139702346
tp591
a(g512
g514
F135.70247565144197
tp592
a(g514
g516
F56.66466961496389
tp593
a(g516
g518
F182.17650096521103
tp594
a(g518
S'927'
p595
F195.5482192140499
tp596
a(g595
S'959'
p597
F106.9390388791336
tp598
a(g597
S'1213'
p599
F159.27354120793285
tp600
a(g599
S'1066'
p601
F219.04434265516315
tp602
aF50.34933972745299
g586
S'2012-03-02 11:05:45'
p603
I24
F1678.311324248433
F937.1511696662756
tp604
a((lp605
(S'1213'
p606
g601
F93.03830170005119
tp607
a(g601
g388
F134.29559832461862
tp608
a(g388
g390
F201.74042609344684
tp609
a(g390
g392
F138.3852165812993
tp610
a(g392
g394
F725.1024325879025
tp611
a(g394
g396
F340.0113446486208
tp612
a(g396
g398
F291.4351100934792
tp613
aF115.44050580176511
g603
S'2012-03-02 11:06:45'
p614
I20
F1924.0084300294184
F486.91522156727444
tp615
a((lp616
(g403
g398
F821.2356761800193
tp617
a(g398
S'1209'
p618
F529.8005662370716
tp619
a(g618
S'1104'
p620
F340.0113446486208
tp621
a(g620
S'121'
p622
F391.28311144302415
tp623
aF162.9650111876402
g614
S'2012-03-02 11:07:31'
p624
I40
F2082.3306985087356
F342.4879316485965
tp625
a((lp626
(S'1104'
p627
g622
F740.2351767120508
tp628
a(g622
S'1104'
p629
F348.95206538914294
tp630
a(g629
S'1145'
p631
F725.1024325879025
tp632
a(g631
g538
F210.6065185280842
tp633
a(g538
g540
F230.208379433524
tp634
a(g540
g542
F38.11436284834977
tp635
aF393.1232460855522
g624
S'2012-03-02 11:07:52'
p636
I0
F2293.218935499054
F58.255821829142434
tp637
a((lp638
(S'772'
p639
g542
F193.9241330752508
tp640
a(g542
g544
F280.1051964205321
tp641
a(g544
S'886'
p642
F203.95830291726205
tp643
a(g642
S'1222'
p644
F498.13109666342655
tp645
a(g644
g618
F55.00928684298418
tp646
aF108.0990453002449
g636
S'2012-03-02 11:08:33'
p647
I29
F1231.1280159194557
F364.58076577924584
tp648
a((lp649
(S'1222'
p650
g618
F474.79127941064604
tp651
a(g618
g398
F529.8005662370716
tp652
a(g398
g405
F498.13109666342655
tp653
a(g405
g407
F203.95830291726205
tp654
a(g407
g409
F280.1051964205321
tp655
a(g409
g544
F248.40520081364127
tp656
aF236.66735037839078
g647
S'2012-03-02 11:09:07'
p657
I0
F2235.1916424625797
F70.46574768509846
tp658
a((lp659
(g416
g544
F31.69999560936865
tp660
a(g544
g642
F203.95830291726205
tp661
a(g642
g644
F498.13109666342655
tp662
a(g644
S'233'
p663
F314.42150737049457
tp664
a(g663
S'1158'
p665
F505.9919712639641
tp666
a(g665
S'371'
p667
F343.4160234801613
tp668
a(g667
S'414'
p669
F739.6760747221767
tp670
a(g669
S'203'
p671
F94.18324275133865
tp672
aF54.02923941319502
g657
S'2012-03-02 11:12:09'
p673
I40
F2731.478214778193
F1545.059909765879
tp674
a((lp675
(S'414'
p676
g671
F16.376012281703034
tp677
a(g671
S'431'
p678
F369.98613606887915
tp679
a(g678
S'140'
p680
F32.08626900808332
tp681
aF21.520204321302796
g673
S'2012-03-02 11:13:19'
p682
I29
F418.4484173586655
F403.0079901165192
tp683
a((lp684
(S'431'
p685
g680
F302.67835686005634
tp686
a(g680
S'263'
p687
F435.87853113202175
tp688
a(g687
S'1115'
p689
F456.8978297349071
tp690
aF3.015863338344181
g682
S'2012-03-02 11:37:06'
p691
I24
F1195.454717726985
F931.5304723393255
tp692
a((lp693
(S'263'
p694
g689
F15.522827093373706
tp695
a(g689
S'842'
p696
F509.6129296096181
tp697
a(g696
S'1027'
p698
F108.42347341772006
tp699
a(g698
S'887'
p700
F974.3320508593303
tp701
a(g700
S'1189'
p702
F211.8840444636607
tp703
a(g702
S'987'
p704
F391.057048673724
tp705
aF44.216647482348534
g691
S'2012-03-02 11:40:06'
p706
I27
F2210.8323741174268
F1054.9652112989886
tp707
a((lp708
(S'1189'
p709
g709
F0.0
tp710
aF14.525554697959384
g706
S'2012-03-02 11:42:03'
p711
I68
F472.0805276836799
F657.9686779338693
tp712
a((lp713
(g709
g704
F460.0362012599704
tp714
a(g704
S'1189'
p715
F541.0596802687863
tp716
a(g715
S'887'
p717
F211.8840444636607
tp718
a(g717
S'820'
p719
F1042.7797147525323
tp720
a(g719
S'887'
p721
F456.5532564498784
tp722
aF92.11628707454133
g711
S'2012-03-02 11:43:49'
p723
I9
F2712.312897194828
F228.87492104469467
tp724
a((lp725
(g561
g721
F586.2264586289876
tp726
a(g721
g702
F211.8840444636607
tp727
a(g702
g717
F202.71805234434433
tp728
aF54.59064847838142
g723
S'2012-03-02 11:44:55'
p729
I29
F1000.8285554369926
F511.23198975343155
tp730
a((lp731
(g709
g709
F0.0
tp732
aF0.551505579481563
g729
S'2012-03-02 11:45:50'
p733
I0
F8.425779686523878
F32.15089744122909
tp734
a((lp735
(g709
g717
F0.7402124329343519
tp736
a(g717
S'989'
p737
F372.1311918135194
tp738
aF11.186142127393614
g733
S'2012-03-02 11:47:50'
p739
I11
F372.8714042464538
F417.1407085253374
tp740
a.