(lp0
((lp1
(S'140'
p2
S'263'
p3
F303.80107529701843
tp4
a(g3
S'1115'
p5
F270.6670592757322
tp6
aF34.46808807436504
S'2012-03-02 07:42:40'
p7
S'2012-03-02 07:43:40'
p8
I27
F574.4681345727506
F573.9246551286628
tp9
a((lp10
(S'263'
p11
g5
F201.75359755814247
tp12
a(g5
S'263'
p13
F3.7840316957421534
tp14
aF12.757508022654907
g8
S'2012-03-02 07:44:38'
p15
I31
F205.53762925388463
F197.56140140082215
tp16
a((lp17
(S'1115'
p18
g13
F468.63662513191247
tp19
a(g13
g5
F472.4206568274532
tp20
a(g5
S'989'
p21
F58.074753432269304
tp22
aF124.03018370378915
g15
S'2012-03-02 07:45:07'
p23
I0
F999.1320353916349
F62.351848029406426
tp24
a((lp25
(g18
g21
F1053.3216572433746
tp26
a(g21
S'1036'
p27
F427.5555512019603
tp28
aF29.6175441689067
g23
S'2012-03-02 07:48:07'
p29
I29
F1480.8772084453349
F1477.5714776173338
tp30
a((lp31
(S'989'
p32
g27
F359.23046287831386
tp33
a(g27
S'989'
p34
F68.41334557420205
tp35
aF27.00908263910627
g29
S'2012-03-02 07:49:04'
p36
I42
F427.64380845251594
F290.6002376886413
tp37
a((lp38
(S'1036'
p39
g34
F718.3726684879581
tp40
a(g34
S'887'
p41
F690.9163383539549
tp42
a(g41
S'1189'
p43
F211.8840444636607
tp44
a(g43
S'987'
p45
F541.0596802687863
tp46
a(g45
S'1229'
p47
F828.6057404004235
tp48
a(g47
S'895'
p49
F337.6878965371428
tp50
aF71.75266423139483
g36
S'2012-03-02 07:51:51'
p51
I0
F3328.5263685119266
F1184.7748347301379
tp52
a((lp53
(S'1229'
p54
g49
F587.0576733395171
tp55
a(g49
S'1229'
p56
F249.3697768587104
tp57
a(g56
S'987'
p58
F67.06547163251504
tp59
aF30.397892697109096
g51
S'2012-03-02 07:53:38'
p60
I0
F903.4929218307425
F271.224008723203
tp61
a((lp62
(g54
g58
F761.5402688161821
tp63
a(g58
S'1189'
p64
F541.0596802687863
tp65
a(g64
S'887'
p66
F211.8840444636607
tp67
a(g66
S'989'
p68
F690.9163383539549
tp69
a(g68
g27
F27.574971516555657
tp70
aF44.6595060683828
g60
S'2012-03-02 07:56:38'
p71
I27
F2232.97530341914
F1387.186771533592
tp72
a((lp73
(g32
g32
F0.0
tp74
aF0.4864402170872139
g71
S'2012-03-02 07:57:09'
p75
I0
F4.188790758251009
F36.12188564635891
tp76
a((lp77
(g32
g27
F755.022251782991
tp78
a(g27
S'987'
p79
F700.189491494048
tp80
a(g79
g64
F541.0596802687863
tp81
a(g64
g66
F211.8840444636607
tp82
a(g66
g68
F436.0700359386336
tp83
aF164.12434162436605
g75
S'2012-03-02 07:58:07'
p84
I0
F2644.2255039481197
F85.95657439828315
tp85
a((lp86
(S'887'
p87
g68
F254.8463025077586
tp88
a(g68
g41
F690.9163383539549
tp89
a(g41
S'1027'
p90
F15.53244234739646
tp91
aF91.07006051454725
g84
S'2012-03-02 07:58:45'
p92
I0
F961.2950832091099
F49.39139224628171
tp93
a((lp94
(g87
g90
F958.7996085145709
tp95
a(g90
S'887'
p96
F974.3320508593303
tp97
a(g96
g68
F690.9163383539549
tp98
a(g68
S'1115'
p99
F28.831008289807198
tp100
aF159.17274036105982
g92
S'2012-03-02 07:59:45'
p101
I7
F2652.8790060176634
F27.247272589237596
tp102
a((lp103
(g32
g99
F1082.5654023850147
tp104
a(g99
g13
F485.06642423474784
tp105
aF18.811581919437153
g101
S'2012-03-02 08:04:45'
p106
I7
F1567.6318266197627
F1577.3591724057583
tp107
a((lp108
(g18
g13
F12.645767408024128
tp109
a(g13
S'140'
p110
F435.87853113202175
tp111
a(g110
S'431'
p112
F334.7646258643055
tp113
a(g112
S'392'
p114
F457.83618440901
tp115
a(g114
S'270'
p116
F95.85961614434376
tp117
a(g116
S'433'
p118
F330.3168336032497
tp119
a(g118
S'372'
p120
F585.0976094380715
tp121
a(g120
S'97'
p122
F63.758701035611004
tp123
a(g122
S'413'
p124
F1079.6824743926077
tp125
a(g124
S'182'
p126
F501.6805211022033
tp127
a(g126
S'58'
p128
F1050.0893319780932
tp129
a(g128
S'86'
p130
F905.5130865393613
tp131
a(g130
S'58'
p132
F322.42339047206417
tp133
aF1.3316542692224187
g106
S'2012-03-02 12:43:00'
p134
I14
F6175.546673518967
F4848.430235123013
tp135
a((lp136
(S'86'
p137
g132
F1227.9364765715663
tp138
a(g132
S'182'
p139
F1050.0893319780932
tp140
a(g139
S'88'
p141
F102.33356992898435
tp142
aF45.10154611854273
g134
S'2012-03-02 12:46:10'
p143
I33
F2380.359378478644
F1911.3325187674218
tp144
a((lp145
(S'182'
p146
g141
F1152.6995148455348
tp147
a(g141
S'182'
p148
F1050.365945062155
tp149
a(g148
S'413'
p150
F501.6805211022033
tp151
a(g150
S'333'
p152
F1407.7106325202305
tp153
a(g152
S'1'
p154
F975.8745201557714
tp155
a(g154
S'190'
p156
F133.23962227802784
tp157
a(g156
S'200'
p158
F65.9676834156334
tp159
a(g158
S'323'
p160
F146.62687173746633
tp161
aF108.68330622234045
g143
S'2012-03-02 12:49:10'
p162
I81
F5434.165311117022
F2583.619780662938
tp163
a((lp164
(S'200'
p165
g160
F491.4790426552845
tp166
a(g160
S'195'
p167
F899.3736486026992
tp168
a(g167
S'141'
p169
F288.679793805085
tp170
a(g169
S'349'
p171
F144.75772780934173
tp172
a(g171
S'141'
p173
F176.13132028643557
tp174
aF120.02529198953074
g162
S'2012-03-02 12:50:10'
p175
I83
F2000.421533158846
F1318.1242733374697
tp176
a((lp177
(S'349'
p178
g173
F31.37359247791627
tp179
a(g173
S'195'
p180
F288.679793805085
tp181
a(g180
S'323'
p182
F899.3736486026992
tp183
a(g182
S'371'
p184
F502.52151206068487
tp185
a(g184
S'1158'
p186
F343.4160234801613
tp187
a(g186
S'233'
p188
F505.9919712639641
tp189
a(g188
S'1222'
p190
F314.42150737049457
tp191
a(g190
S'1209'
p192
F529.8005662370716
tp193
a(g192
S'1104'
p194
F340.0113446486208
tp195
a(g194
S'121'
p196
F348.95206538914294
tp197
a(g196
S'307'
p198
F36.46664317900744
tp199
aF163.82012315003794
g175
S'2012-03-02 12:51:41'
p200
I81
F4141.008668514848
F991.8916893346889
tp201
a((lp202
(S'121'
p203
g198
F318.82106983954156
tp204
a(g198
S'101'
p205
F516.3741780275716
tp206
a(g205
S'923'
p207
F369.9370600498198
tp208
aF78.88138742729015
g200
S'2012-03-02 12:52:36'
p209
I0
F1205.1323079169329
F67.11574778494017
tp210
a((lp211
(S'101'
p212
g207
F560.4234800480178
tp213
a(g207
S'1066'
p214
F407.53435205726896
tp215
a(g214
S'1170'
p216
F134.29559832461862
tp217
a(g216
S'959'
p218
F135.9977572931447
tp219
a(g218
S'927'
p220
F106.9390388791336
tp221
a(g220
S'1135'
p222
F240.4485615059529
tp223
a(g222
S'1124'
p224
F864.7731774810748
tp225
a(g224
S'1135'
p226
F199.83028821621158
tp227
aF39.75363380708134
g209
S'2012-03-02 12:56:36'
p228
I42
F2650.242253805423
F1972.6278706805488
tp229
a((lp230
(S'1124'
p231
g226
F664.942889268042
tp232
a(g226
g224
F864.7731774810748
tp233
a(g224
S'1009'
p234
F343.5463299595581
tp235
a(g234
S'1124'
p236
F331.4650892784618
tp237
aF360.77358861607684
g228
S'2012-03-02 12:56:58'
p238
I25
F2204.7274859871363
F20.7970667552277
tp239
a((lp240
(S'1009'
p241
g236
F12.081240682641164
tp242
a(g236
S'1191'
p243
F348.66405624127844
tp244
a(g243
S'1218'
p245
F303.8980482662185
tp246
aF64.66800115363506
g238
S'2012-03-02 12:57:35'
p247
I0
F664.6433451901381
F68.58201827957375
tp248
a((lp249
(S'1191'
p250
g245
F39.14382022983144
tp251
a(g245
S'1191'
p252
F264.7542280364345
tp253
a(g252
S'867'
p254
F420.1751746109014
tp255
aF21.72219668631502
g247
S'2012-03-02 12:59:35'
p256
I33
F724.0732228771674
F386.48765756106405
tp257
a((lp258
(g250
g254
F780.7825977231306
tp259
a(g254
S'1191'
p260
F360.6074231124015
tp261
a(g260
S'973'
p262
F412.40913364934164
tp263
a(g262
S'920'
p264
F250.97600419103549
tp265
aF166.5946300316224
g256
S'2012-03-02 13:00:14'
p266
I46
F1804.775158675909
F173.2277104869302
tp267
a((lp268
(S'973'
p269
g264
F616.8406535586417
tp270
a(g264
S'973'
p271
F365.8646493676239
tp272
a(g271
S'895'
p273
F444.35669521011835
tp274
a(g273
g56
F338.1293700903353
tp275
aF105.91148209360315
g266
S'2012-03-02 13:01:14'
p276
I40
F1765.191368226719
F577.7217373959026
tp277
a((lp278
(S'895'
p279
g56
F587.4991468925942
tp280
a(g56
g49
F249.3697768587104
tp281
a(g49
S'1016'
p282
F16.256141240897787
tp283
aF22.41788491950313
g276
S'2012-03-02 13:03:31'
p284
I48
F853.1250649922025
F798.8999601589576
tp285
a((lp286
(g279
g282
F347.97881655481115
tp287
a(g282
S'895'
p288
F364.23495779569595
tp289
a(g288
g56
F249.3697768587104
tp290
a(g56
g49
F279.24216591805924
tp291
aF37.53758471981677
g284
S'2012-03-02 13:05:30'
p292
I0
F1240.8257171272767
F69.67422104722274
tp293
a((lp294
(g54
g49
F528.6119427348267
tp295
a(g49
g282
F364.23495779569595
tp296
a(g282
S'1150'
p297
F476.5728920163904
tp298
a(g297
S'1062'
p299
F194.7563084101235
tp300
a(g299
S'974'
p301
F183.41867360754313
tp302
a(g301
S'991'
p303
F656.1638760738123
tp304
a(g303
S'974'
p305
F11.726512150794026
tp306
aF44.36605401041362
g292
S'2012-03-02 13:08:46'
p307
I24
F2415.485162789186
F1710.7550281962717
tp308
a((lp309
(S'991'
p310
g305
F667.8903882186863
tp311
a(g305
g303
F656.1638760738123
tp312
a(g303
S'874'
p313
F57.43875749727215
tp314
aF82.88958130738627
g307
S'2012-03-02 13:09:46'
p315
I0
F1381.4930217897709
F0.7338865156436558
tp316
a((lp317
(g310
g313
F179.63753328059855
tp318
a(g313
S'991'
p319
F237.07629077782101
tp320
a(g319
S'814'
p321
F594.5517113284113
tp322
a(g321
S'994'
p323
F375.362399322151
tp324
a(g323
S'814'
p325
F379.05803792826737
tp326
aF113.50838395525174
g315
S'2012-03-02 13:10:42'
p327
I0
F1765.6859726372493
F550.7621062716933
tp328
a((lp329
(S'994'
p330
g325
F3.695638606180643
tp331
a(g325
S'1007'
p332
F399.2836900504582
tp333
a(g332
S'1186'
p334
F15.6543499509594
tp335
aF32.065558361433055
g327
S'2012-03-02 13:11:29'
p336
I0
F418.6336786075982
F69.25888835138755
tp337
a((lp338
(S'1007'
p339
g334
F337.70219389049106
tp340
a(g334
S'792'
p341
F433.61217033519375
tp342
a(g341
S'1013'
p343
F441.0365406997711
tp344
a(g343
S'1376'
p345
F3427.8290189273157
tp346
a(g345
S'1300'
p347
F227.06403529613826
tp348
a(g347
S'1257'
p349
F331.17464141793556
tp350
aF56.71002109709285
g336
S'2012-03-02 13:16:59'
p351
I38
F5198.418600566844
F4063.5126936430124
tp352
a((lp353
(S'1300'
p354
g349
F1240.3065149633742
tp355
a(g349
S'1300'
p356
F909.1318739707772
tp357
a(g356
S'1328'
p358
F1023.4121880864786
tp359
a(g358
S'1377'
p360
F328.35338240576175
tp361
a(g360
S'1240'
p362
F450.20487229242497
tp363
a(g362
S'1377'
p364
F471.74950302261533
tp365
aF81.24168369933244
g351
S'2012-03-02 13:20:15'
p366
I51
F4423.158334741433
F1202.8887689552093
tp367
a((lp368
(S'1240'
p369
g364
F21.544630730221154
tp370
a(g364
S'1395'
p371
F573.4757749753169
tp372
a(g371
S'1295'
p373
F34.17111980090329
tp374
aF29.4167466470544
g366
S'2012-03-02 13:21:32'
p375
I0
F629.1915255064413
F570.1681013681947
tp376
a((lp377
(S'1395'
p378
g378
F0.0
tp379
aF0.0
g375
S'2012-03-02 13:21:32'
p380
I0
F0.0
F0.0
tp381
a((lp382
(g378
g373
F694.766520292829
tp383
a(g373
S'1386'
p384
F329.92055347398576
tp385
a(g384
S'1237'
p386
F400.05667678215144
tp387
a(g386
S'1246'
p388
F347.77045590838657
tp389
aF35.06072056728829
g380
S'2012-03-02 13:24:34'
p390
I0
F1772.5142064573527
F1077.0101142737244
tp391
a((lp392
(S'1237'
p393
g388
F1143.60804967851
tp394
a(g388
S'1372'
p395
F185.36700382574813
tp396
aF79.73850321025549
g390
S'2012-03-02 13:25:34'
p397
I46
F1328.975053504258
F957.88763017971
tp398
a((lp399
(S'1246'
p400
g395
F586.5963424322478
tp401
a(g395
S'1246'
p402
F431.17719057594894
tp403
aF38.16650748780737
g397
S'2012-03-02 13:27:10'
p404
I88
F1017.7735330081966
F1017.7730608741713
tp405
a((lp406
(S'1372'
p407
g402
F832.4065290678265
tp408
a(g402
g395
F401.2293386563323
tp409
a(g395
S'1390'
p410
F479.57255220893796
tp411
a(g410
S'1321'
p412
F411.7583519723548
tp413
a(g412
S'1275'
p414
F373.5728954433532
tp415
aF321.2408143734178
g404
S'2012-03-02 13:27:38'
p416
I0
F2498.539667348805
F77.07461487483897
tp417
a((lp418
(S'1321'
p419
g414
F1261.1029507417106
tp420
a(g414
S'1321'
p421
F887.5300557829405
tp422
a(g421
S'1323'
p423
F47.37621657126267
tp424
aF225.8752343755797
g416
S'2012-03-02 13:28:13'
p425
I42
F2196.009223095914
F325.0006259016752
tp426
a((lp427
(g419
g423
F776.7776755242805
tp428
a(g423
S'1321'
p429
F729.4014589530278
tp430
a(g429
g414
F887.5300557829405
tp431
a(g414
S'1276'
p432
F21.462505705739304
tp433
aF88.7205929130363
g425
S'2012-03-02 13:29:51'
p434
I0
F2415.171695965988
F898.7097835688242
tp435
a((lp436
(S'1275'
p437
g432
F784.2003669123529
tp438
a(g432
S'1275'
p439
F805.6628726179206
tp440
a(g439
S'1274'
p441
F43.2553718933072
tp442
aF110.92881134197906
g434
S'2012-03-02 13:30:44'
p443
I0
F1633.1186114235807
F79.66137775339972
tp444
a((lp445
(g437
g441
F980.2625672140829
tp446
a(g441
S'1275'
p447
F59.97406444924902
tp448
aF9.292436411880882
g443
S'2012-03-02 13:37:27'
p449
I44
F1040.236631663332
F1092.156466632518
tp450
a((lp451
(S'1274'
p452
g447
F1083.492003431183
tp453
a(g447
g441
F1023.5179390578322
tp454
a(g441
S'1368'
p455
F505.81195065912954
tp456
a(g455
S'1272'
p457
F147.3421200313114
tp458
a(g457
S'1375'
p459
F218.26520770382325
tp460
a(g459
S'1272'
p461
F36.06005503399106
tp462
aF452.1733913875905
g449
S'2012-03-02 13:37:51'
p463
I0
F3014.4892759172703
F0.9824863220174979
tp464
a((lp465
(S'1375'
p466
g461
F182.2051526698751
tp467
a(g461
g459
F218.26520770382325
tp468
a(g459
S'1322'
p469
F251.1499504038258
tp470
a(g469
S'1244'
p471
F267.73326804549595
tp472
a(g471
S'1340'
p473
F434.2460432841478
tp474
a(g473
S'1364'
p475
F46.47965403053915
tp476
aF140.00792761377073
g463
S'2012-03-02 13:38:27'
p477
I0
F1400.0792761377072
F2.5739824408960033
tp478
a((lp479
(S'1340'
p480
g475
F484.1416432109607
tp481
a(g475
S'1302'
p482
F167.11441244769938
tp483
a(g482
S'1375'
p484
F265.2152626843097
tp485
a(g484
g461
F218.26520770382325
tp486
a(g461
S'1368'
p487
F147.3421200313114
tp488
a(g487
S'1274'
p489
F505.81195065912954
tp490
a(g489
g447
F28.617800628574884
tp491
aF163.4857557629228
g477
S'2012-03-02 13:39:07'
p492
I0
F1816.5083973658088
F42.394358372191256
tp493
a((lp494
(g452
g447
F1052.1357396512503
tp495
a(g447
g441
F1023.5179390578322
tp496
a(g441
g455
F23.370581245865527
tp497
aF41.51916118592205
g492
S'2012-03-02 13:42:09'
p498
I31
F2099.0242599549483
F499.589058384583
tp499
a((lp500
(g452
g455
F482.4413694198576
tp501
a(g455
g489
F505.81195065912954
tp502
a(g489
S'1293'
p503
F778.5511467127807
tp504
a(g503
S'1260'
p505
F19.144459008694483
tp506
aF81.38501434027424
g498
S'2012-03-02 13:43:28'
p507
I0
F1785.9489258004623
F636.3905248478382
tp508
a((lp509
(S'1293'
p510
g505
F1004.9652722196787
tp511
a(g505
S'1293'
p512
F48.089111685642855
tp513
aF63.183263034319296
g507
S'2012-03-02 13:44:28'
p514
I29
F1053.0543839053216
F956.9544342892788
tp515
a((lp516
(S'1260'
p517
g512
F976.0206195752957
tp518
a(g512
g505
F1024.1097312058519
tp519
a(g505
S'1400'
p520
F48.87564715600161
tp521
aF1229.4035987622897
g514
S'2012-03-02 13:44:34'
p522
I0
F2049.0059979371495
F0.845432371393056
tp523
a((lp524
(g517
g520
F916.2106236300326
tp525
a(g520
S'1349'
p526
F385.4440844687764
tp527
a(g526
S'1390'
p528
F688.2282267324903
tp529
a(g528
S'1372'
p530
F479.57255220893796
tp531
a(g530
S'1283'
p532
F41.24608055561485
tp533
aF41.84502612659754
g522
S'2012-03-02 13:48:10'
p534
I0
F2510.701567595852
F1943.7466138042448
tp535
a((lp536
(g407
g532
F847.424727817001
tp537
a(g532
S'1305'
p538
F380.98680687693025
tp539
a(g538
S'1246'
p540
F806.1140954166639
tp541
a(g540
S'1237'
p542
F795.83759413191
tp543
a(g542
S'1386'
p544
F400.05667678215144
tp545
a(g544
S'1295'
p546
F389.9169312174063
tp547
aF92.4341318870314
g534
S'2012-03-02 13:50:31'
p548
I48
F3620.336832242063
F1204.8401389619805
tp549
a((lp550
(S'1386'
p551
g546
F719.8374845858654
tp552
a(g546
S'1395'
p553
F319.22454415269476
tp554
aF62.3437217243136
g548
S'2012-03-02 13:51:31'
p555
I37
F1039.06202873856
F1039.0349966019587
tp556
a((lp557
(S'1295'
p558
g553
F341.37085643922666
tp559
a(g553
S'1377'
p560
F573.4757749753169
tp561
a(g560
S'1328'
p562
F328.35338240576175
tp563
a(g562
S'1300'
p564
F1023.4121880864786
tp565
a(g564
S'1378'
p566
F195.5525912949026
tp567
a(g566
S'1381'
p568
F486.319094641144
tp569
a(g568
S'1279'
p570
F595.3972903281316
tp571
a(g570
S'1367'
p572
F683.5601147274087
tp573
a(g572
S'1286'
p574
F132.501823901543
tp575
aF44.59032733090821
g555
S'2012-03-02 13:57:23'
p576
I75
F4359.943116799914
F2414.167994796057
tp577
a((lp578
(S'1367'
p579
g574
F855.3093010975635
tp580
a(g574
S'1367'
p581
F722.8074771960407
tp582
a(g581
S'1234'
p583
F426.9603823968392
tp584
a(g583
S'1367'
p585
F350.50317957373323
tp586
aF141.33482041585063
g576
S'2012-03-02 13:58:23'
p587
I27
F2355.580340264177
F197.86438429057878
tp588
a((lp589
(S'1234'
p590
g585
F76.45720283614611
tp591
a(g585
S'1347'
p592
F154.16933670543926
tp593
aF13.837592372495122
g587
S'2012-03-02 13:59:23'
p594
I7
F230.62653954158537
F77.76623088692205
tp595
a((lp596
(g579
g592
F842.9211724048216
tp597
a(g592
S'1367'
p598
F688.7518358012903
tp599
a(g598
g583
F426.9603823968392
tp600
a(g583
g585
F368.28426564890896
tp601
aF139.61505937511163
g594
S'2012-03-02 14:00:23'
p602
I3
F2326.91765625186
F152.10471661257304
tp603
a((lp604
(g590
g585
F58.6761167584518
tp605
a(g585
S'1279'
p606
F683.5601147274087
tp607
a(g606
g572
F427.9735464759151
tp608
aF113.85824866655115
g602
S'2012-03-02 14:01:00'
p609
I18
F1170.2097779617757
F108.0091199824912
tp610
a((lp611
(S'1279'
p612
g572
F255.58656825149424
tp613
a(g572
g583
F426.9603823968392
tp614
a(g583
g585
F390.37912493118716
tp615
aF54.401885522341885
g609
S'2012-03-02 14:02:11'
p616
I0
F1072.9260755795206
F29.203779989166875
tp617
a((lp618
(g590
g585
F36.581257472615185
tp619
a(g585
g583
F426.9603823968392
tp620
a(g583
S'1373'
p621
F17.107371425136623
tp622
aF12.100254829793899
g616
S'2012-03-02 14:04:34'
p623
I7
F480.649011294591
F495.3751559598125
tp624
a((lp625
(g590
g590
F0.0
tp626
aF5.592266025928549
g623
S'2012-03-02 14:05:11'
p627
I0
F57.476067488710086
F57.77210709739279
tp628
a((lp629
(g590
g621
F385.05820615820477
tp630
a(g621
S'1234'
p631
F459.64164505681646
tp632
a(g631
g585
F426.9603823968392
tp633
a(g585
g592
F688.7518358012903
tp634
a(g592
S'1394'
p635
F514.0120154544768
tp636
a(g635
S'1360'
p637
F40.86025253683642
tp638
aF46.67537945699006
g627
S'2012-03-02 14:08:25'
p639
I37
F2515.284337404464
F1745.0910709192228
tp640
a((lp641
(S'1394'
p642
g637
F112.12709390059612
tp643
a(g637
S'1394'
p644
F152.9873464367894
tp645
a(g644
S'1353'
p646
F712.646790159864
tp647
a(g646
S'1297'
p648
F306.9805847465395
tp649
aF77.08450891462735
g639
S'2012-03-02 14:09:25'
p650
I40
F1284.741815243789
F593.7764146913214
tp651
a((lp652
(S'1353'
p653
g648
F600.6738682531504
tp654
a(g648
S'1280'
p655
F330.23392593544827
tp656
a(g655
S'1245'
p657
F291.41203018864644
tp658
a(g657
S'1291'
p659
F15.121079486090427
tp660
aF24.74881807726671
g650
S'2012-03-02 14:12:25'
p661
I51
F1237.4409038633355
F676.864574349403
tp662
a((lp663
(S'1245'
p664
g659
F793.0998946372945
tp665
a(g659
S'1360'
p666
F242.12341002881828
tp667
a(g666
g644
F152.9873464367894
tp668
a(g644
S'1347'
p669
F514.0120154544768
tp670
a(g669
S'1354'
p671
F263.90845312637975
tp672
a(g671
S'1294'
p673
F495.8732773813718
tp674
a(g673
S'1335'
p675
F464.9128138057232
tp676
a(g675
S'1314'
p677
F344.60873692472046
tp678
aF56.62256448107725
g661
S'2012-03-02 14:15:53'
p679
I0
F3271.525947795574
F2150.8476981388517
tp680
a((lp681
(S'1335'
p682
g677
F725.3682865186909
tp683
a(g677
S'1257'
p684
F331.9978721556281
tp685
a(g684
S'1334'
p686
F385.80769194553045
tp687
a(g686
S'1381'
p688
F311.43855104743443
tp689
aF105.27674410003704
g679
S'2012-03-02 14:16:53'
p690
I31
F1754.6124016672838
F325.5945889182522
tp691
a((lp692
(S'1334'
p693
g688
F863.8570739338377
tp694
a(g688
S'1334'
p695
F552.4185230642412
tp696
a(g695
S'1335'
p697
F351.703802403258
tp698
a(g697
S'1334'
p699
F144.73117952905125
tp700
aF191.27105789303883
g690
S'2012-03-02 14:17:29'
p701
I0
F1912.7105789303882
F110.77703099225536
tp702
a((lp703
(g682
g699
F206.97262288640343
tp704
a(g699
S'1257'
p705
F385.80769194553045
tp706
a(g705
S'1355'
p707
F253.56540027757057
tp708
aF50.78074290657027
g701
S'2012-03-02 14:18:29'
p709
I42
F846.3457151095045
F685.8567945024349
tp710
a((lp711
(S'1257'
p712
g707
F19.1815250129528
tp713
a(g707
S'1257'
p714
F272.74692529051407
tp715
a(g714
g356
F909.1318739707772
tp716
a(g356
g358
F1023.4121880864786
tp717
a(g358
g360
F328.35338240576175
tp718
a(g360
g362
F450.20487229242497
tp719
a(g362
S'1310'
p720
F388.8414992769568
tp721
a(g720
S'1362'
p722
F228.28934279398425
tp723
a(g722
S'1310'
p724
F120.82990623481358
tp725
aF112.22974546093994
g709
S'2012-03-02 14:20:29'
p726
I75
F3740.991515364665
F1423.0965413369677
tp727
a((lp728
(S'1362'
p729
g724
F107.45943655921874
tp730
a(g724
S'1389'
p731
F319.02403759519916
tp732
a(g731
S'1330'
p733
F389.4707510404453
tp734
a(g733
S'1345'
p735
F402.54913653316686
tp736
aF102.01423493536997
g726
S'2012-03-02 14:21:12'
p737
I50
F1218.50336172803
F123.13168383371435
tp738
a((lp739
(S'1330'
p740
g735
F627.9268666970999
tp741
a(g735
S'1402'
p742
F621.7851744782233
tp743
a(g742
S'1284'
p744
F532.13818844487
tp745
a(g744
S'1303'
p746
F393.0490934460226
tp747
a(g746
S'1137'
p748
F9.57871735902233
tp749
aF43.689560808504766
g737
S'2012-03-02 14:24:12'
p750
I40
F2184.4780404252383
F1634.375288268329
tp751
a((lp752
(S'1303'
p753
g748
F734.6997316337672
tp754
a(g748
S'25'
p755
F909.535541555871
tp756
a(g755
S'463'
p757
F698.4005052534098
tp758
a(g757
S'128'
p759
F6.429860984458199
tp760
aF109.82644547972758
g750
S'2012-03-02 14:25:29'
p761
I0
F2349.0656394275065
F250.67503749698093
tp762
a((lp763
(S'463'
p764
g759
F585.9705384827539
tp765
a(g759
S'463'
p766
F579.5406775008636
tp767
a(g766
S'406'
p768
F404.2058734688195
tp769
aF144.8969621033019
g761
S'2012-03-02 14:26:08'
p770
I0
F1569.717089452437
F64.66337814819879
tp771
a((lp772
(g764
g768
F927.3464741374682
tp773
a(g768
S'463'
p774
F523.1406006777456
tp775
a(g774
S'1303'
p776
F59.16051520353901
tp777
aF150.9647590018753
g770
S'2012-03-02 14:26:44'
p778
I38
F1509.647590018753
F344.96697751069996
tp779
a((lp780
(g764
g776
F857.5849217428143
tp781
a(g776
S'463'
p782
F916.7454369448138
tp783
a(g782
g768
F4.622885395951995
tp784
aF206.5881186677706
g778
S'2012-03-02 14:27:15'
p785
I0
F1778.95324408358
F63.861465585633994
tp786
a((lp787
(g764
g764
F0.0
tp788
aF38.11259064512343
g785
S'2012-03-02 14:27:57'
p789
I42
F444.6468908597734
F445.2643283350061
tp790
a((lp791
(g764
g768
F73.87082442280777
tp792
a(g768
S'37'
p793
F709.895434390015
tp794
a(g793
S'231'
p795
F1230.1532257749107
tp796
a(g795
S'101'
p797
F2128.2368240663845
tp798
a(g797
S'307'
p799
F516.3741780275716
tp800
a(g799
S'12'
p801
F336.87317808984017
tp802
a(g801
S'324'
p803
F348.33486400960794
tp804
a(g803
S'233'
p805
F522.2079091612247
tp806
a(g805
S'1158'
p807
F505.9919712639641
tp808
a(g807
S'371'
p809
F343.4160234801613
tp810
a(g809
S'323'
p811
F502.52151206068487
tp812
a(g811
g167
F899.3736486026992
tp813
a(g167
S'160'
p814
F1654.504702992569
tp815
a(g814
S'206'
p816
F2977.933896935319
tp817
a(g816
S'79'
p818
F340.8639244928786
tp819
a(g818
S'171'
p820
F258.8430387665728
tp821
a(g820
S'34'
p822
F361.50220986718784
tp823
a(g822
S'91'
p824
F192.66483012505137
tp825
aF391.0376867773908
g789
S'2012-03-02 14:30:05'
p826
I0
F13903.562196529449
F1603.0863887028288
tp827
a((lp828
(S'34'
p829
g824
F170.32092401519265
tp830
a(g824
S'34'
p831
F229.59581274779782
tp832
aF23.995004205779427
g826
S'2012-03-02 14:31:05'
p833
I0
F399.91673676299047
F72.8698372546985
tp834
a((lp835
(S'91'
p836
g831
F133.38994139152018
tp837
a(g831
S'171'
p838
F361.50220986718784
tp839
a(g838
S'311'
p840
F197.878605692179
tp841
a(g840
S'444'
p842
F119.87242291813655
tp843
a(g842
S'249'
p844
F192.01126587807087
tp845
a(g844
S'223'
p846
F158.54371200493
tp847
a(g846
S'85'
p848
F186.91338092701662
tp849
a(g848
S'39'
p850
F233.82885610286075
tp851
a(g850
S'76'
p852
F384.48890299753157
tp853
a(g852
S'461'
p854
F209.84399480520491
tp855
a(g854
S'288'
p856
F213.86956785060167
tp857
a(g856
S'448'
p858
F161.32840893425416
tp859
a(g858
S'115'
p860
F342.1794913016541
tp861
aF52.38363185133735
g833
S'2012-03-02 14:34:24'
p862
I38
F2895.650760671148
F1696.2960031977502
tp863
a((lp864
(S'448'
p865
g860
F474.1462475692206
tp866
a(g860
S'448'
p867
F131.96675629555088
tp868
a(g867
S'288'
p869
F161.32840893425416
tp870
a(g869
S'461'
p871
F213.86956785060167
tp872
a(g871
S'76'
p873
F209.84399480520491
tp874
a(g873
S'39'
p875
F384.48890299753157
tp876
a(g875
S'85'
p877
F413.90508143384994
tp878
aF78.70743138011395
g862
S'2012-03-02 14:35:55'
p879
I31
F1989.5489598862139
F33.17759007479931
tp880
a((lp881
(S'39'
p882
g882
F0.0
tp883
aF12.263806434412547
g879
S'2012-03-02 14:36:15'
p884
I0
F68.1322579689586
F67.8558470934208
tp885
a((lp886
(g882
g877
F579.6016795186596
tp887
a(g877
S'223'
p888
F186.91338092701662
tp889
a(g888
S'249'
p890
F158.54371200493
tp891
a(g890
S'444'
p892
F192.01126587807087
tp893
a(g892
S'311'
p894
F119.87242291813655
tp895
a(g894
S'171'
p896
F197.878605692179
tp897
a(g896
S'79'
p898
F157.6886638286361
tp899
aF51.18781277467379
g884
S'2012-03-02 14:38:07'
p900
I38
F1592.5097307676288
F1007.408371158689
tp901
a((lp902
(S'171'
p903
g903
F0.0
tp904
aF15.692003829651508
g900
S'2012-03-02 14:38:59'
p905
I55
F226.6622775394107
F228.75064909928645
tp906
a((lp907
(g903
g898
F189.86942505631754
tp908
a(g898
g820
F258.8430387665728
tp909
a(g820
g840
F197.878605692179
tp910
a(g840
g842
F119.87242291813655
tp911
a(g842
S'456'
p912
F33.24415044633956
tp913
aF23.99122928638636
g905
S'2012-03-02 14:40:59'
p914
I0
F799.7076428795453
F4.903835458358278
tp915
a((lp916
(S'444'
p917
g912
F418.73820762312556
tp918
a(g912
S'444'
p919
F385.4940571839216
tp920
a(g919
g894
F119.87242291813655
tp921
a(g894
g896
F197.878605692179
tp922
a(g896
g822
F361.50220986718784
tp923
a(g822
S'105'
p924
F155.95907652986017
tp925
aF19.67333495777293
g914
S'2012-03-02 14:45:59'
p926
I0
F1639.4445798144109
F8.812748628009928
tp927
a((lp928
(g829
g924
F582.3171618247394
tp929
a(g924
S'34'
p930
F426.3580852961497
tp931
a(g930
g838
F361.50220986718784
tp932
a(g838
g822
F6.945079390797101
tp933
aF82.62735218273242
g926
S'2012-03-02 14:46:59'
p934
I0
F1377.1225363788737
F8.395216960907392
tp935
a((lp936
(g903
g822
F368.4472892567521
tp937
a(g822
g838
F361.50220986718784
tp938
a(g838
g840
F197.878605692179
tp939
a(g840
g842
F119.87242291813655
tp940
a(g842
g844
F383.66779020119793
tp941
aF85.8820990761272
g934
S'2012-03-02 14:47:59'
p942
I0
F1431.3683179354534
F3.895836156562385
tp943
a((lp944
(g917
g844
F575.6790560396748
tp945
a(g844
g892
F192.01126587807087
tp946
a(g892
g894
F119.87242291813655
tp947
a(g894
g896
F197.878605692179
tp948
a(g896
g898
F258.8430387665728
tp949
a(g898
S'206'
p950
F189.70963945696244
tp951
aF30.67988057503193
g942
S'2012-03-02 14:50:59'
p952
I0
F1533.9940287515965
F5.999558952610387
tp953
a((lp954
(S'79'
p955
g950
F530.5735639362938
tp956
a(g950
g818
F340.8639244928786
tp957
a(g818
g820
F258.8430387665728
tp958
a(g820
g840
F197.878605692179
tp959
a(g840
g842
F119.87242291813655
tp960
a(g842
g844
F382.5005069096185
tp961
aF108.03140042256466
g952
S'2012-03-02 14:52:00'
p962
I0
F1830.532062715679
F4.66435440551411
tp963
a((lp964
(g917
g844
F574.5117727482963
tp965
a(g844
g892
F192.01126587807087
tp966
a(g892
g894
F119.87242291813655
tp967
a(g894
g896
F197.878605692179
tp968
a(g896
g822
F361.50220986718784
tp969
a(g822
g924
F164.0654977159004
tp970
aF44.239926636268514
g962
S'2012-03-02 14:54:11'
p971
I0
F1609.841774819771
F5.999559281844751
tp972
a((lp973
(g829
g924
F590.4235830106954
tp974
a(g924
g930
F426.3580852961497
tp975
a(g930
g838
F361.50220986718784
tp976
a(g838
g898
F258.8430387665728
tp977
a(g898
g950
F340.8639244928786
tp978
a(g950
S'160'
p979
F68.69682104080513
tp980
aF111.63750886223397
g971
S'2012-03-02 14:55:17'
p981
I0
F2046.6876624742895
F146.09510499411334
tp982
a((lp983
(S'206'
p984
g979
F2909.2370766107915
tp985
a(g979
S'348'
p986
F749.9190888032648
tp987
a(g986
S'40'
p988
F401.59962843252373
tp989
a(g988
S'400'
p990
F175.03635260490466
tp991
a(g990
S'359'
p992
F368.9484986175782
tp993
a(g992
S'220'
p994
F423.40012907983873
tp995
a(g994
S'196'
p996
F611.7560822228065
tp997
a(g996
S'328'
p998
F208.72880849237106
tp999
a(g998
S'62'
p1000
F304.77298423724176
tp1001
a(g1000
S'120'
p1002
F192.13776579603922
tp1003
aF191.96580750950002
g981
S'2012-03-02 14:57:16'
p1004
I0
F6345.536414897361
F713.0793708151242
tp1005
a((lp1006
(S'62'
p1007
g1002
F119.16445754302761
tp1008
a(g1002
S'39'
p1009
F307.45722819200313
tp1010
a(g1009
g852
F384.48890299753157
tp1011
a(g852
g854
F209.84399480520491
tp1012
a(g854
S'359'
p1013
F211.8059673189451
tp1014
aF36.982816525701374
g1004
S'2012-03-02 14:59:16'
p1015
I35
F1232.7605508567124
F909.3526577220664
tp1016
a((lp1017
(S'461'
p1018
g1013
F364.069383360887
tp1019
a(g1013
S'149'
p1020
F214.5001502809245
tp1021
a(g1020
S'115'
p1022
F279.2751738259168
tp1023
a(g1022
g867
F91.31038796482866
tp1024
aF262.84294950440045
g1015
S'2012-03-02 14:59:29'
p1025
I18
F949.155095432557
F7.601152723420882
tp1026
a((lp1027
(S'115'
p1028
g867
F40.65636833142439
tp1029
a(g867
g869
F161.32840893425416
tp1030
a(g869
g871
F213.86956785060167
tp1031
a(g871
g873
F209.84399480520491
tp1032
a(g873
g875
F384.48890299753157
tp1033
a(g875
S'143'
p1034
F1.3714564056039742
tp1035
aF23.646826737458667
g1025
S'2012-03-02 15:02:03'
p1036
I0
F1011.5586993246206
F1019.1966765842344
tp1037
a((lp1038
(g882
g1034
F297.50374145337804
tp1039
a(g1034
S'291'
p1040
F232.92968406904774
tp1041
a(g1040
S'85'
p1042
F239.2848293153371
tp1043
a(g1042
g888
F186.91338092701662
tp1044
a(g888
g890
F158.54371200493
tp1045
a(g890
g892
F192.01126587807087
tp1046
a(g892
g894
F119.87242291813655
tp1047
a(g894
g896
F197.878605692179
tp1048
a(g896
g822
F361.50220986718784
tp1049
a(g822
g824
F114.84206643983423
tp1050
aF99.534406668874
g1036
S'2012-03-02 15:03:19'
p1051
I0
F2101.281918565118
F1039.827967208329
tp1052
a((lp1053
(g829
g824
F248.1436876985836
tp1054
a(g824
S'157'
p1055
F434.73915031757383
tp1056
aF39.6512615622285
g1051
S'2012-03-02 15:04:21'
p1057
I33
F682.8828380161574
F85.13013554870022
tp1058
a((lp1059
(g836
g1055
F28.506786743572075
tp1060
a(g1055
S'66'
p1061
F986.920472794794
tp1062
a(g1061
S'177'
p1063
F280.97647332925493
tp1064
a(g1063
S'238'
p1065
F601.6634620718969
tp1066
a(g1065
S'123'
p1067
F297.8794616636202
tp1068
a(g1067
S'257'
p1069
F496.1147848574999
tp1070
a(g1069
S'318'
p1071
F120.4073126418999
tp1072
a(g1071
S'180'
p1073
F82.82675595211529
tp1074
a(g1073
S'321'
p1075
F232.33275572458027
tp1076
a(g1075
S'107'
p1077
F211.72893865214516
tp1078
aF25.908805896450353
g1057
S'2012-03-02 15:12:05'
p1079
I33
F3339.3572044313787
F2689.7962995161
tp1080
a((lp1081
(S'321'
p1082
g1077
F4568.421956373175
tp1083
a(g1077
S'321'
p1084
F4780.150889487485
tp1085
a(g1084
S'180'
p1086
F232.33275572458027
tp1087
a(g1086
g1075
F355.05014711905557
tp1088
aF586.3842736940242
g1079
S'2012-03-02 15:13:06'
p1089
I0
F9935.955748704297
F377.89470227211996
tp1090
a((lp1091
(S'180'
p1092
g1075
F122.71739140147692
tp1093
a(g1075
g1086
F76.09084087336207
tp1094
aF55.05458739918618
g1089
S'2012-03-02 15:13:19'
p1095
I0
F198.80823227483899
F46.83841498127564
tp1096
a((lp1097
(g1082
g1086
F308.42359659412546
tp1098
a(g1086
S'318'
p1099
F82.82675595211529
tp1100
a(g1099
S'257'
p1101
F120.4073126418999
tp1102
a(g1101
S'197'
p1103
F723.3936380880388
tp1104
a(g1103
S'192'
p1105
F473.6238227777094
tp1106
aF102.52050756323332
g1095
S'2012-03-02 15:14:19'
p1107
I12
F1708.6751260538888
F443.28799034678303
tp1108
a((lp1109
(S'197'
p1110
g1105
F829.2684947601953
tp1111
a(g1105
S'197'
p1112
F355.644672162357
tp1113
a(g1112
S'257'
p1114
F723.3936380880388
tp1115
a(g1114
S'123'
p1116
F3.591625884831159
tp1117
aF114.71390585372531
g1107
S'2012-03-02 15:15:19'
p1118
I27
F1911.8984308954218
F245.57553732749875
tp1119
a((lp1120
(S'257'
p1121
g1116
F499.70641074122443
tp1122
a(g1116
g1069
F496.1147848574999
tp1123
a(g1069
g1071
F120.4073126418999
tp1124
a(g1071
g1101
F82.7534342791655
tp1125
aF71.93891655118739
g1118
S'2012-03-02 15:16:19'
p1126
I31
F1198.9819425197898
F255.23212804673895
tp1127
a((lp1128
(S'318'
p1129
g1101
F37.653878362901125
tp1130
a(g1101
g1103
F177.62039459882408
tp1131
aF12.499796494551788
g1126
S'2012-03-02 15:17:21'
p1132
I0
F215.27427296172522
F74.48466074988414
tp1133
a((lp1134
(g1121
g1103
F545.7732435791442
tp1135
a(g1103
g1114
F723.3936380880388
tp1136
a(g1114
g1071
F120.4073126418999
tp1137
a(g1071
g1073
F82.82675595211529
tp1138
a(g1073
g1075
F232.33275572458027
tp1139
a(g1075
g1077
F280.8872460425932
tp1140
aF95.30980569736184
g1132
S'2012-03-02 15:18:36'
p1141
I0
F1985.6209520283714
F9.95761703530742
tp1142
a((lp1143
(g1082
g1077
F5061.038127391462
tp1144
a(g1077
g1084
F4780.150889487485
tp1145
a(g1084
g1086
F232.33275572458027
tp1146
a(g1086
S'1380'
p1147
F44.7300735273557
tp1148
aF173.45574593367226
g1141
S'2012-03-02 15:22:06'
p1149
I0
F10118.251846130883
F5.983370138031769
tp1150
a((lp1151
(g1092
g1147
F11089.718814450865
tp1152
a(g1147
S'180'
p1153
F11134.448887706183
tp1154
a(g1153
g1075
F232.33275572458027
tp1155
a(g1075
g1077
F255.64973926144418
tp1156
aF3270.5496283886027
g1149
S'2012-03-02 15:22:31'
p1157
I0
F22712.150197143073
F30.07861635208106
tp1158
a((lp1159
(g1082
g1077
F5035.800621378526
tp1160
a(g1077
S'46'
p1161
F327.4845229639087
tp1162
a(g1161
S'225'
p1163
F204.10192602860755
tp1164
a(g1163
S'143'
p1165
F405.88848790171784
tp1166
a(g1165
g1040
F232.92968406904774
tp1167
a(g1040
g1042
F239.2848293153371
tp1168
a(g1042
g888
F186.91338092701662
tp1169
a(g888
g890
F158.54371200493
tp1170
a(g890
S'105'
p1171
F575.8476902730262
tp1172
a(g1171
S'157'
p1173
F366.4817423643772
tp1174
a(g1173
g1061
F986.920472794794
tp1175
a(g1061
g1063
F280.97647332925493
tp1176
a(g1063
g1065
F601.6634620718969
tp1177
a(g1065
g1067
F297.8794616636202
tp1178
a(g1067
S'238'
p1179
F212.17947619405334
tp1180
aF303.3868782984034
g1157
S'2012-03-02 15:24:31'
p1181
I9
F10112.895943280115
F873.8735336535658
tp1182
a((lp1183
(S'123'
p1184
g1179
F85.69998547638649
tp1185
a(g1179
S'177'
p1186
F601.6634620718969
tp1187
a(g1186
S'66'
p1188
F280.97647332925493
tp1189
a(g1188
S'157'
p1190
F986.920472794794
tp1191
a(g1190
S'105'
p1192
F366.4817423643772
tp1193
a(g1192
S'249'
p1194
F262.9610243493365
tp1195
aF51.69406320772093
g1181
S'2012-03-02 15:27:31'
p1196
I59
F2584.7031603860464
F2572.5071532545135
tp1197
a((lp1198
(S'105'
p1199
g1194
F312.8866659798057
tp1200
a(g1194
g892
F192.01126587807087
tp1201
a(g892
g912
F340.3688958510638
tp1202
aF50.71600966253642
g1196
S'2012-03-02 15:28:31'
p1203
I50
F845.2668277089404
F621.2670249888779
tp1204
a((lp1205
(g917
g912
F45.125161340747084
tp1206
a(g912
S'85'
p1207
F200.88497800248174
tp1208
a(g1207
g850
F233.82885610286075
tp1209
a(g850
g852
F384.48890299753157
tp1210
a(g852
g875
F34.64939663992508
tp1211
aF49.7895117277041
g1203
S'2012-03-02 15:29:36'
p1212
I20
F898.9772950835462
F620.9550209887495
tp1213
a((lp1214
(S'76'
p1215
g875
F349.8395063636921
tp1216
a(g875
g852
F384.48890299753157
tp1217
a(g852
g854
F209.84399480520491
tp1218
a(g854
g856
F213.86956785060167
tp1219
a(g856
g858
F161.32840893425416
tp1220
a(g858
g860
F380.528486280024
tp1221
aF72.85280859562751
g1212
S'2012-03-02 15:31:00'
p1222
I0
F1699.8988672313085
F802.233801748617
tp1223
a((lp1224
(g865
g860
F248.5617300007616
tp1225
a(g860
S'149'
p1226
F279.2751738259168
tp1227
a(g1226
S'359'
p1228
F214.5001502809245
tp1229
a(g1228
S'400'
p1230
F368.9484986175782
tp1231
a(g1230
S'40'
p1232
F175.03635260490466
tp1233
a(g1232
S'348'
p1234
F401.59962843252373
tp1235
a(g1234
S'423'
p1236
F401.7062149289834
tp1237
a(g1236
S'87'
p1238
F329.5193172533131
tp1239
aF145.14882395669437
g1222
S'2012-03-02 15:32:00'
p1240
I20
F2419.1470659449064
F661.3391162775316
tp1241
a((lp1242
(S'423'
p1243
g1238
F1053.0756736491821
tp1244
a(g1238
S'423'
p1245
F723.5563566983903
tp1246
a(g1245
S'348'
p1247
F401.7062149289834
tp1248
a(g1247
g988
F401.59962843252373
tp1249
a(g988
S'189'
p1250
F166.95514214753854
tp1251
aF224.7457922064506
g1240
S'2012-03-02 15:32:44'
p1252
I35
F2746.893015856618
F314.01257149400897
tp1253
a((lp1254
(S'40'
p1255
g1250
F303.6768786809868
tp1256
a(g1250
S'227'
p1257
F411.75852187215446
tp1258
aF51.51134883982618
g1252
S'2012-03-02 15:33:34'
p1259
I0
F715.4354005531413
F230.0201799028527
tp1260
a((lp1261
(S'189'
p1262
g1257
F573.0809176745287
tp1263
a(g1257
S'189'
p1264
F161.32239584715794
tp1265
a(g1264
S'40'
p1266
F470.6320208254988
tp1267
a(g1266
g1234
F401.59962843252373
tp1268
a(g1234
g1236
F401.7062149289834
tp1269
a(g1236
S'27'
p1270
F360.14779166603097
tp1271
a(g1270
S'107'
p1272
F86.62883778137933
tp1273
aF441.9212052880986
g1259
S'2012-03-02 15:33:54'
p1274
I0
F2455.117807156103
F56.65810407244321
tp1275
a((lp1276
(S'27'
p1277
g1272
F1291.3126373387624
tp1278
a(g1272
S'27'
p1279
F1377.9414749341843
tp1280
a(g1279
S'423'
p1281
F360.14779166603097
tp1282
a(g1281
g1247
F401.7062149289834
tp1283
a(g1247
g988
F36.57748893723207
tp1284
aF96.77262161316817
g1274
S'2012-03-02 15:36:03'
p1285
I38
F3467.685607805193
F397.02200635424674
tp1286
a((lp1287
(S'348'
p1288
g988
F365.02213950174166
tp1289
a(g988
g1234
F401.59962843252373
tp1290
a(g1234
g1236
F49.0784043161011
tp1291
aF50.62966586381585
g1285
S'2012-03-02 15:37:01'
p1292
I16
F815.7001722503664
F330.02924136545005
tp1293
a((lp1294
(g1288
g1236
F450.78461924256123
tp1295
a(g1236
g1247
F401.7062149289834
tp1296
a(g1247
g988
F419.985363704631
tp1297
aF190.87142968142635
g1292
S'2012-03-02 15:37:25'
p1298
I0
F1272.4761978761758
F53.04698207290244
tp1299
a((lp1300
(g1288
g988
F18.38573527563615
tp1301
a(g988
g990
F175.03635260490466
tp1302
a(g990
g992
F368.9484986175782
tp1303
a(g992
g1020
F214.5001502809245
tp1304
a(g1020
g1022
F279.2751738259168
tp1305
a(g1022
g867
F156.0617625268895
tp1306
aF72.73246038791098
g1298
S'2012-03-02 15:38:25'
p1307
I35
F1212.2076731318496
F631.653610904335
tp1308
a((lp1309
(g1028
g867
F288.0285188147303
tp1310
a(g867
g869
F161.32840893425416
tp1311
a(g869
g871
F213.86956785060167
tp1312
a(g871
g873
F209.84399480520491
tp1313
a(g873
g875
F384.48890299753157
tp1314
a(g875
g877
F427.8614391373587
tp1315
aF101.12524995238088
g1307
S'2012-03-02 15:39:25'
p1316
I38
F1685.4208325396814
F633.7731647786
tp1317
a((lp1318
(g882
g877
F661.6902951527072
tp1319
a(g877
S'456'
p1320
F200.88497800248174
tp1321
a(g1320
g919
F112.20191462703984
tp1322
aF58.486631266933735
g1316
S'2012-03-02 15:40:25'
p1323
I33
F974.7771877822288
F764.5570269418981
tp1324
a((lp1325
(S'456'
p1326
g919
F273.29214257262475
tp1327
a(g919
g844
F192.01126587807087
tp1328
a(g844
g1171
F575.8476902730262
tp1329
a(g1171
g1173
F366.4817423643772
tp1330
a(g1173
g1061
F378.3763332810508
tp1331
aF107.16055046214899
g1323
S'2012-03-02 15:41:25'
p1332
I44
F1786.0091743691498
F794.2411551043028
tp1333
a((lp1334
(S'157'
p1335
g1061
F1365.2968054870053
tp1336
a(g1061
g1190
F443.8354565668879
tp1337
aF76.62207227522372
g1332
S'2012-03-02 15:42:50'
p1338
I42
F1809.132262053893
F921.1087291966734
tp1339
a((lp1340
(S'66'
p1341
g1341
F0.0
tp1342
aF2.0506910047069096
g1338
S'2012-03-02 15:48:54'
p1343
I0
F207.34764603147642
F207.4920006274945
tp1344
a((lp1345
(g1341
g1341
F0.0
tp1346
aF32.550861071362654
g1343
S'2012-03-02 15:48:57'
p1347
I27
F27.125717559468875
F27.11869816793204
tp1348
a((lp1349
(g1341
g1190
F723.3069448941876
tp1350
a(g1190
S'91'
p1351
F406.2323635741205
tp1352
a(g1351
g831
F170.50416275302612
tp1353
aF34.161726251071556
g1347
S'2012-03-02 15:51:14'
p1354
I33
F1300.0434712213341
F905.33094450217
tp1355
a((lp1356
(g836
g831
F192.48159138721945
tp1357
a(g831
g838
F361.50220986718784
tp1358
a(g838
g840
F197.878605692179
tp1359
a(g840
g842
F119.87242291813655
tp1360
a(g842
g844
F192.01126587807087
tp1361
a(g844
g846
F158.54371200493
tp1362
a(g846
g848
F186.91338092701662
tp1363
a(g848
g850
F233.82885610286075
tp1364
a(g850
g852
F384.48890299753157
tp1365
a(g852
S'328'
p1366
F308.57394032097875
tp1367
aF57.999597221696554
g1354
S'2012-03-02 15:53:39'
p1368
I29
F2336.0948880961114
F1322.7935202508393
tp1369
a((lp1370
(g1215
g1366
F255.97713949594186
tp1371
a(g1366
S'196'
p1372
F208.72880849237106
tp1373
a(g1372
S'220'
p1374
F611.7560822228065
tp1375
a(g1374
S'359'
p1376
F423.40012907983873
tp1377
a(g1376
g1230
F368.9484986175782
tp1378
a(g1230
g1232
F175.03635260490466
tp1379
a(g1232
g1234
F401.59962843252373
tp1380
a(g1234
S'160'
p1381
F749.9190888032648
tp1382
a(g1381
S'195'
p1383
F1654.504702992569
tp1384
a(g1383
g169
F288.679793805085
tp1385
a(g169
g171
F66.91447803681203
tp1386
aF78.08197053875543
g1368
S'2012-03-02 15:57:39'
p1387
I37
F5205.464702583696
F3993.7154209327687
tp1388
a((lp1389
(S'141'
p1390
g171
F77.84324977360447
tp1391
a(g171
S'286'
p1392
F215.09626284539777
tp1393
a(g1392
S'290'
p1394
F181.32466665662517
tp1395
a(g1394
S'35'
p1396
F413.7189959181754
tp1397
a(g1396
S'200'
p1398
F774.7867391124779
tp1399
a(g1398
S'190'
p1400
F65.9676834156334
tp1401
a(g1400
g154
F133.23962227802784
tp1402
a(g154
S'392'
p1403
F1075.0148639845097
tp1404
a(g1403
g116
F95.85961614434376
tp1405
a(g116
S'365'
p1406
F106.51078625958331
tp1407
aF94.18087459165136
g1387
S'2012-03-02 15:59:39'
p1408
I79
F3139.3624863883783
F2462.984687006785
tp1409
a.