(lp0
((lp1
(S'894'
p2
S'942'
p3
F40.05258597075116
tp4
a(g3
S'830'
p5
F565.0355820413071
tp6
a(g5
S'906'
p7
F1055.3265253741486
tp8
a(g7
S'1113'
p9
F504.1784455245772
tp10
a(g9
S'1160'
p11
F220.09154087762897
tp12
aF71.5405403936524
S'2012-03-02 13:39:18'
p13
S'2012-03-02 13:41:18'
p14
I20
F2384.6846797884136
F918.4716349363133
tp15
a((lp16
(S'1113'
p17
g11
F502.8210236732278
tp18
a(g11
S'847'
p19
F352.8185604851902
tp20
a(g19
S'1041'
p21
F692.7516666069633
tp22
a(g21
S'827'
p23
F689.5118116434894
tp24
a(g23
S'1010'
p25
F266.8104465605856
tp26
a(g25
S'1154'
p27
F507.7471347885134
tp28
a(g27
S'967'
p29
F633.0663908294133
tp30
a(g29
S'900'
p31
F217.51739317672622
tp32
a(g31
S'809'
p33
F674.794246559625
tp34
a(g33
S'1114'
p35
F639.1126192225747
tp36
a(g35
S'993'
p37
F865.1525280555261
tp38
a(g37
S'843'
p39
F298.54352314033923
tp40
a(g39
S'932'
p41
F496.3588671175418
tp42
a(g41
S'843'
p43
F122.26537023177296
tp44
aF89.15792774209737
g14
S'2012-03-02 13:45:59'
p45
I29
F6959.271582091489
F2617.5145187583253
tp46
a((lp47
(S'932'
p48
g43
F374.0934969149351
tp49
a(g43
S'993'
p50
F298.54352314033923
tp51
a(g50
S'1114'
p52
F865.1525280555261
tp53
a(g52
S'809'
p54
F639.1126192225747
tp55
a(g54
S'900'
p56
F485.23875584918204
tp57
aF30.618873237882443
g45
S'2012-03-02 13:51:12'
p58
I0
F2662.140923182557
F1818.1878466451208
tp59
a((lp60
(S'809'
p61
g61
F0.0
tp62
aF22.078952619054448
g58
S'2012-03-02 13:52:28'
p63
I62
F466.1112219578161
F473.0789070533912
tp64
a((lp65
(g61
g56
F693.9217804452401
tp66
a(g56
g33
F674.794246559625
tp67
a(g33
S'1157'
p68
F755.0004704445299
tp69
a(g68
S'901'
p70
F349.56692895258715
tp71
aF13.999717507935747
g63
S'2012-03-02 14:03:04'
p72
I24
F2473.283426401982
F953.5714784596795
tp73
a((lp74
(S'1157'
p75
g70
F20.128343334069818
tp76
a(g70
S'937'
p77
F654.3387647481585
tp78
a(g77
S'988'
p79
F84.85729485795852
tp80
a(g79
S'777'
p81
F428.69502991180303
tp82
a(g81
S'988'
p83
F77.71613123791596
tp84
aF16.6910184275592
g72
S'2012-03-02 14:07:37'
p85
I31
F1265.735564089906
F729.937310127697
tp86
a((lp87
(S'777'
p88
g83
F506.41116114969765
tp89
a(g83
g81
F428.69502991180303
tp90
a(g81
S'1185'
p91
F465.5645320107461
tp92
a(g91
S'1073'
p93
F331.7351137519988
tp94
aF1039.4435020945475
g85
S'2012-03-02 14:07:43'
p95
I0
F1732.4058368242456
F2.968904541265749
tp96
a((lp97
(S'1185'
p98
g93
F733.6685331271251
tp99
a(g93
S'1185'
p100
F401.933419412357
tp101
a(g100
S'777'
p102
F465.5645320107461
tp103
a(g102
g83
F428.69502991180303
tp104
a(g83
S'937'
p105
F84.85729485795852
tp106
a(g105
S'1061'
p107
F403.67396092989185
tp108
aF251.8392770249882
g95
S'2012-03-02 14:08:19'
p109
I0
F2518.392770249882
F16.6039269790046
tp110
a((lp111
(S'937'
p112
g107
F526.925076710914
tp113
a(g107
S'1185'
p114
F373.27393365369306
tp115
a(g114
g102
F465.5645320107461
tp116
a(g102
S'903'
p117
F127.00441143149096
tp118
aF35.35503048489895
g109
S'2012-03-02 14:10:51'
p119
I0
F1492.7679538068442
F22.866677906549537
tp120
a((lp121
(g88
g117
F477.9050887631475
tp122
a(g117
S'777'
p123
F350.9006773558848
tp124
a(g123
g83
F428.69502991180303
tp125
a(g83
g105
F59.34404913776366
tp126
aF32.694078914530735
g119
S'2012-03-02 14:13:16'
p127
I0
F1316.844845168599
F494.8834512230408
tp128
a((lp129
(S'988'
p130
g105
F25.51324572049285
tp131
a(g105
g79
F84.85729485795852
tp132
a(g79
S'1127'
p133
F152.49726409143645
tp134
a(g133
S'967'
p135
F190.65766483400054
tp136
a(g135
g31
F217.51739317672622
tp137
a(g31
g33
F674.794246559625
tp138
a(g33
g35
F639.1126192225747
tp139
a(g35
g37
F865.1525280555261
tp140
a(g37
g39
F298.54352314033923
tp141
a(g39
g41
F496.3588671175418
tp142
a(g41
S'960'
p143
F325.1238765614434
tp144
a(g143
S'1133'
p145
F313.9016806177561
tp146
a(g145
S'1177'
p147
F544.2648983785294
tp148
a(g147
S'969'
p149
F848.8710851126325
tp150
a(g149
S'1177'
p151
F67.76664881586451
tp152
aF3.1469504276544145
g127
S'2012-03-02 16:02:48'
p153
I25
F5744.932836262447
F4248.964170067361
tp154
a((lp155
(S'969'
p156
g151
F781.1044363096105
tp157
a(g151
g149
F848.8710851126325
tp158
a(g149
S'884'
p159
F120.63450540234322
tp160
aF331.69453139834263
g153
S'2012-03-02 16:03:07'
p161
I0
F1750.6100268245862
F15.68985500444009
tp162
a((lp163
(g156
g156
F0.0
tp164
aF1.0515594857054649
g161
S'2012-03-02 16:04:38'
p165
I0
F26.58108699977703
F29.894111753797457
tp166
a((lp167
(g156
g159
F665.7793780339077
tp168
a(g159
S'969'
p169
F571.7259596354602
tp170
a(g169
g151
F848.8710851126325
tp171
a(g151
S'1133'
p172
F26.57781055558216
tp173
aF45.823103855513835
g165
S'2012-03-02 16:07:24'
p174
I14
F2112.9542333375825
F778.571748087465
tp175
a((lp176
(S'1177'
p177
g172
F570.842708932949
tp178
a(g172
S'960'
p179
F313.9016806177561
tp180
a(g179
S'932'
p181
F325.1238765614434
tp182
a(g181
g43
F496.3588671175418
tp183
a(g43
g50
F298.54352314033923
tp184
a(g50
g52
F865.1525280555261
tp185
a(g52
g54
F639.1126192225747
tp186
a(g54
g56
F674.794246559625
tp187
a(g56
S'1082'
p188
F405.2662958943754
tp189
a(g188
S'796'
p190
F137.28505847111882
tp191
a(g190
S'1032'
p192
F163.69645561352507
tp193
aF10.105786622659238
g174
S'2012-03-02 16:36:26'
p194
I27
F4890.077860186775
F3706.6589515151672
tp195
a((lp196
(S'796'
p197
g192
F525.593196845406
tp198
a(g192
S'903'
p199
F505.46234075930016
tp200
a(g199
S'1128'
p201
F276.93091669774793
tp202
a(g201
S'833'
p203
F304.26348633257396
tp204
a(g203
S'974'
p205
F480.1669052301094
tp206
a(g205
S'1062'
p207
F183.41867360754313
tp208
a(g207
S'1150'
p209
F194.7563084101235
tp210
a(g209
S'1016'
p211
F476.5728920163904
tp212
a(g211
S'920'
p213
F448.76378212167555
tp214
a(g213
S'973'
p215
F212.3661261940087
tp216
aF43.299535538578546
g194
S'2012-03-02 16:41:26'
p217
I42
F3608.2946282148787
F2452.51618424364
tp218
a((lp219
(S'920'
p220
g215
F153.49852317361686
tp221
a(g215
S'1191'
p222
F412.40913364934164
tp223
a(g222
S'867'
p224
F360.6074231124015
tp225
a(g224
S'1191'
p226
F368.4703077626452
tp227
aF71.72226762635106
g217
S'2012-03-02 16:42:31'
p228
I48
F1294.985387698005
F165.20701676156236
tp229
a((lp230
(S'867'
p231
g226
F7.862884650244576
tp232
a(g226
S'1218'
p233
F264.7542280364345
tp234
a(g233
S'1045'
p235
F380.2508287917065
tp236
a(g235
S'844'
p237
F161.05814139702346
tp238
a(g237
S'955'
p239
F135.70247565144197
tp240
a(g239
S'813'
p241
F234.0682966093986
tp242
aF71.02181130817499
g228
S'2012-03-02 16:43:31'
p243
I27
F1183.6968551362497
F563.340688777556
tp244
a((lp245
(S'955'
p246
g241
F290.7329662239088
tp247
a(g241
S'921'
p248
F182.17650096521103
tp249
a(g248
S'927'
p250
F195.5482192140499
tp251
a(g250
S'959'
p252
F106.9390388791336
tp253
a(g252
S'1213'
p254
F32.65071005447236
tp255
aF48.482846120206545
g243
S'2012-03-02 16:44:31'
p256
I42
F808.0474353367757
F384.0601174599546
tp257
a((lp258
(S'959'
p259
g254
F191.9242512613581
tp260
a(g254
S'959'
p261
F159.27354120793285
tp262
a(g261
S'927'
p263
F106.9390388791336
tp264
a(g263
S'1135'
p265
F240.4485615059529
tp266
a(g265
S'1124'
p267
F1.3277288269144747
tp268
aF209.9739365043876
g256
S'2012-03-02 16:44:43'
p269
I11
F699.913121681292
F2.2464029958603584
tp270
a((lp271
(S'1135'
p272
g267
F866.1009063079724
tp273
a(g267
S'1135'
p274
F864.7731774810748
tp275
a(g274
S'955'
p276
F207.71700266283523
tp277
a(g276
g241
F52.67181992927617
tp278
aF155.83796658635154
g269
S'2012-03-02 16:45:29'
p279
I0
F1991.2629063811585
F67.53899747792121
tp280
a((lp281
(g246
g241
F3.992849686031314
tp282
a(g241
g248
F182.17650096521103
tp283
a(g248
S'806'
p284
F107.48268907765393
tp285
a(g284
S'1020'
p286
F137.50962711414766
tp287
a(g286
S'1145'
p288
F335.1923649786669
tp289
aF22.990620954651323
g279
S'2012-03-02 16:47:29'
p290
I37
F766.3540318217108
F785.2880514256378
tp291
a((lp292
(S'1020'
p293
g288
F473.5775815340419
tp294
a(g288
S'1020'
p295
F138.3852165812993
tp296
a(g295
S'1170'
p297
F201.74042609344684
tp298
a(g297
S'915'
p299
F418.6803844186766
tp300
a(g299
S'1170'
p301
F76.92969797749664
tp302
aF314.2351935851907
g290
S'2012-03-02 16:47:44'
p303
I0
F1309.3133066049613
F5.619412860435591
tp304
a((lp305
(S'915'
p306
g301
F341.75068644233323
tp307
a(g301
S'1066'
p308
F134.29559832461862
tp309
a(g308
S'923'
p310
F144.8188271754143
tp311
aF23.28244169783873
g303
S'2012-03-02 16:49:20'
p312
I0
F620.8651119423662
F276.9561816853277
tp313
a((lp314
(S'1066'
p315
g315
F0.0
tp316
aF9.85925670288786
g312
S'2012-03-02 16:51:27'
p317
I0
F347.81266701854395
F359.2276722303865
tp318
a((lp319
(g315
g310
F85.09714212649729
tp320
a(g310
S'1066'
p321
F407.53435205726896
tp322
a(g321
S'1213'
p323
F126.00604095646439
tp324
a(g323
S'1059'
p325
F313.9141256204003
tp326
aF13.06298046201662
g317
S'2012-03-02 16:55:44'
p327
I0
F932.551660760631
F132.38596208543223
tp328
a((lp329
(S'1213'
p330
g325
F338.26179655323403
tp331
a(g325
S'1213'
p332
F24.347670935949793
tp333
a(g332
g261
F298.81611993872644
tp334
aF113.38724355907033
g327
S'2012-03-02 16:56:05'
p335
I1
F661.4255874279103
F56.27596243370741
tp336
a((lp337
(g330
g261
F458.0896611203851
tp338
a(g261
S'806'
p339
F197.56237677218394
tp340
a(g339
S'1207'
p341
F141.0377369821515
tp342
a(g341
S'799'
p343
F101.1060544565955
tp344
a(g343
S'1215'
p345
F216.60117519723585
tp346
a(g345
S'1111'
p347
F235.85216675763905
tp348
a(g347
S'1046'
p349
F224.7758530051457
tp350
a(g349
S'1111'
p351
F169.57788144629353
tp352
aF20.325470746457828
g335
S'2012-03-02 17:01:14'
p353
I29
F1744.6029057376302
F1464.436232322603
tp354
a((lp355
(S'1046'
p356
g351
F394.3537344336896
tp357
a(g351
g349
F224.7758530051457
tp358
a(g349
S'1069'
p359
F233.21024744024461
tp360
a(g359
S'970'
p361
F300.1901722143531
tp362
a(g361
S'1069'
p363
F35.7218774930163
tp364
aF35.64755653759348
g353
S'2012-03-02 17:03:14'
p365
I9
F1188.2518845864495
F397.9097309760896
tp366
a((lp367
(S'970'
p368
g363
F264.4682947247974
tp369
a(g363
g361
F300.1901722143531
tp370
a(g361
S'820'
p371
F247.7378419176489
tp372
a(g371
S'970'
p373
F244.54518303391342
tp374
aF1268.3297902688553
g365
S'2012-03-02 17:03:17'
p375
I0
F1056.9414918907128
F2.2464298753010903
tp376
a((lp377
(S'820'
p378
g373
F3.1926588838335674
tp379
a(g373
S'774'
p380
F351.1159370675721
tp381
aF17.236634397635953
g375
S'2012-03-02 17:04:31'
p382
I0
F354.30859595140566
F356.50040010717953
tp383
a((lp384
(g368
g380
F26.220504831544265
tp385
a(g380
S'895'
p386
F49.859727221919535
tp387
aF6.521162747439755
g382
S'2012-03-02 17:05:13'
p388
I0
F76.0802320534638
F74.08538761784344
tp389
a((lp390
(S'774'
p391
g386
F218.5613390772386
tp392
a(g386
S'1229'
p393
F249.3697768587104
tp394
a(g393
S'987'
p395
F147.3057977880583
tp396
aF36.91421482344044
g388
S'2012-03-02 17:06:13'
p397
I44
F615.2369137240073
F440.5187295732938
tp398
a((lp399
(S'1229'
p400
g395
F681.2999427072557
tp401
a(g395
S'1073'
p402
F585.3164976896943
tp403
a(g402
g100
F401.933419412357
tp404
a(g100
g102
F465.5645320107461
tp405
a(g102
g83
F428.69502991180303
tp406
a(g83
g133
F152.49726409143645
tp407
a(g133
g135
F190.65766483400054
tp408
a(g135
g31
F217.51739317672622
tp409
a(g31
S'1101'
p410
F1058.824251630271
tp411
a(g410
S'996'
p412
F370.0060475414754
tp413
aF39.48993579474881
g397
S'2012-03-02 17:13:08'
p414
I31
F4552.312043005765
F3885.006726506506
tp415
a((lp416
(S'1101'
p417
g412
F918.4356079774939
tp418
a(g412
S'980'
p419
F147.10645116788552
tp420
aF33.64869660459093
g414
S'2012-03-02 17:15:02'
p421
I0
F1065.5420591453794
F770.0646868665056
tp422
a((lp423
(S'996'
p424
g419
F1108.7763668569662
tp425
a(g419
S'996'
p426
F961.6699157219774
tp427
a(g426
S'906'
p428
F23.73570429224475
tp429
aF301.56220610945115
g421
S'2012-03-02 17:15:27'
p430
I33
F2094.1819868711887
F89.13415374839813
tp431
a((lp432
(g424
g428
F922.7466265260239
tp433
a(g428
S'1010'
p434
F1626.56736988427
tp435
a(g434
g27
F507.7471347885134
tp436
a(g27
g29
F633.0663908294133
tp437
a(g29
g31
F217.51739317672622
tp438
a(g31
g33
F674.794246559625
tp439
a(g33
g35
F639.1126192225747
tp440
a(g35
g37
F865.1525280555261
tp441
a(g37
S'918'
p442
F389.25148862753684
tp443
aF113.17204306608133
g430
S'2012-03-02 17:18:53'
p444
I0
F6475.955797670209
F810.1254969740526
tp445
a((lp446
(S'993'
p447
g442
F35.36907049055472
tp448
a(g442
S'1141'
p449
F333.92501272121706
tp450
a(g449
S'821'
p451
F272.9196924326181
tp452
a(g451
S'960'
p453
F300.73395278664674
tp454
a(g453
g145
F266.4135201331798
tp455
aF24.187224971284326
g444
S'2012-03-02 17:21:53'
p456
I35
F1209.3612485642163
F539.6457880871625
tp457
a((lp458
(S'960'
p459
g145
F47.48816048920828
tp460
a(g145
g147
F336.98135855057495
tp461
aF23.068171142386994
g456
S'2012-03-02 17:22:53'
p462
I7
F384.4695190397832
F647.156659761559
tp463
a((lp464
(S'1133'
p465
g147
F207.28353983327312
tp466
a(g147
S'997'
p467
F478.6095004805797
tp468
a(g467
S'1177'
p469
F473.92852294919425
tp470
aF119.29593222134197
g462
S'2012-03-02 17:23:28'
p471
I53
F1159.821563263047
F182.88508160947967
tp472
a((lp473
(S'997'
p474
g469
F4.680977532722564
tp475
a(g469
g467
F478.6095004805797
tp476
a(g467
S'1172'
p477
F41.04967709640908
tp478
aF94.38122791974803
g471
S'2012-03-02 17:23:48'
p479
I0
F524.3401551097113
F70.90422074255721
tp480
a((lp481
(g474
g477
F179.31643321952822
tp482
a(g477
S'1205'
p483
F289.366631695959
tp484
a(g483
S'969'
p485
F750.5078616257923
tp486
a(g485
g159
F147.19013789808994
tp487
aF81.98286386636217
g479
S'2012-03-02 17:24:48'
p488
I38
F1366.3810644393695
F656.3591059585397
tp489
a((lp490
(g156
g159
F718.9160975265227
tp491
a(g159
S'865'
p492
F426.25271257126974
tp493
a(g492
S'801'
p494
F279.7788946582385
tp495
a(g494
S'1011'
p496
F321.910257709427
tp497
a(g496
S'787'
p498
F271.60557515279095
tp499
a(g498
S'978'
p500
F194.91903596099056
tp501
a(g500
S'951'
p502
F1557.618327029169
tp503
a(g502
S'924'
p504
F547.8429876275782
tp505
a(g504
S'1040'
p506
F390.8242373664505
tp507
a(g506
S'908'
p508
F317.40151119147816
tp509
a(g508
S'894'
p510
F381.46114351867436
tp511
a(g510
g3
F338.90166780966075
tp512
a(g3
S'1056'
p513
F259.19830405018683
tp514
a(g513
S'942'
p515
F192.77308305324408
tp516
aF10.404593849329816
g488
S'2012-03-02 18:00:33'
p517
I40
F6199.403835225681
F3027.577027522103
tp518
a((lp519
(S'1056'
p520
g515
F66.42522099694457
tp521
a(g515
g5
F565.0355820413071
tp522
a(g5
S'1070'
p523
F395.92698817074535
tp524
a(g523
S'980'
p525
F675.5971659752852
tp526
a(g525
S'1227'
p527
F5.6355801234390475
tp528
aF11.96699209009299
g517
S'2012-03-02 18:09:07'
p529
I18
F1708.6205373077212
F1629.0545443026656
tp530
a((lp531
(S'980'
p532
g527
F173.12128872515848
tp533
a(g527
S'980'
p534
F167.48570860172322
tp535
a(g534
g426
F1.0909961692857992
tp536
aF94.62405973740024
g529
S'2012-03-02 18:09:20'
p537
I5
F341.6979934961675
F4.702261930985623
tp538
a((lp539
(g532
g426
F960.5789195528895
tp540
a(g426
g419
F961.6699157219774
tp541
a(g419
g527
F44.98910245633205
tp542
aF51.693843619213986
g537
S'2012-03-02 18:11:37'
p543
I0
F1967.237937731199
F46.3404260291754
tp544
a((lp545
(g532
g527
F122.49660614562428
tp546
a(g527
S'1176'
p547
F16.661869696476494
tp548
aF16.699017101052096
g543
S'2012-03-02 18:12:07'
p549
I18
F139.15847584210078
F104.0348661169954
tp550
a((lp551
(S'1227'
p552
g547
F416.0079683861163
tp553
a(g547
S'919'
p554
F115.87142390531447
tp555
a(g554
S'1199'
p556
F207.191160476708
tp557
a(g556
S'1070'
p558
F457.7048837438328
tp559
a(g558
S'830'
p560
F395.92698817074535
tp561
a(g560
S'942'
p562
F565.0355820413071
tp563
a(g562
g5
F294.96096491995644
tp564
aF11.512016033791824
g549
S'2012-03-02 18:24:54'
p565
I0
F2452.6989716439803
F1956.9630244156158
tp566
a((lp567
(S'942'
p568
g5
F859.9965467966446
tp569
a(g5
g7
F1055.3265253741486
tp570
a(g7
g9
F504.1784455245772
tp571
a(g9
g11
F156.80258391948274
tp572
aF22.03015383803675
g565
S'2012-03-02 18:31:55'
p573
I20
F2576.304101614853
F1218.8565295571598
tp574
a((lp575
(g17
g11
F125.92689888050351
tp576
a(g11
g19
F352.8185604851902
tp577
a(g19
g21
F692.7516666069633
tp578
a(g21
g23
F55.04553327354412
tp579
aF36.79627977738604
g573
S'2012-03-02 18:33:55'
p580
I40
F1226.5426592462013
F958.5148075526406
tp581
a((lp582
(S'1041'
p583
g583
F0.0
tp584
aF12.907096008255802
g580
S'2012-03-02 18:34:20'
p585
I27
F89.63261116844306
F89.76396467409815
tp586
a((lp587
(g583
g583
F0.0
tp588
aF2.439063653243485
g585
S'2012-03-02 18:35:28'
p589
I0
F46.0712023390436
F46.007150767681075
tp590
a((lp591
(g583
g23
F498.76246487300307
tp592
a(g23
S'909'
p593
F390.24923028502263
tp594
a(g593
S'1139'
p595
F384.6361930519455
tp596
a(g595
S'1160'
p597
F19.96604813150051
tp598
aF38.80841809024415
g589
S'2012-03-02 18:37:28'
p599
I25
F1293.6139363414718
F352.15714375083076
tp600
a((lp601
(S'1139'
p602
g597
F1019.864889725697
tp603
a(g597
S'1139'
p604
F999.898841596365
tp605
a(g604
S'909'
p606
F384.6361930519455
tp607
a(g606
S'817'
p608
F286.06989179438705
tp609
a(g608
S'873'
p610
F214.99477288859876
tp611
a(g610
S'936'
p612
F117.95681148015007
tp613
a(g612
S'791'
p614
F263.909236928096
tp615
a(g614
S'852'
p616
F367.11627347135095
tp617
aF75.60924643317085
g599
S'2012-03-02 18:40:22'
p618
I44
F3654.446910936591
F882.3302510634065
tp619
a((lp620
(S'791'
p621
g616
F619.6992958432055
tp622
a(g616
S'791'
p623
F252.5830223782035
tp624
a(g623
S'1107'
p625
F8.108294767109205
tp626
aF52.823436779311095
g618
S'2012-03-02 18:41:22'
p627
I33
F880.3906129885182
F376.6144160017753
tp628
a((lp629
(g621
g621
F0.0
tp630
aF2.8797243477952796
g627
S'2012-03-02 18:41:35'
p631
I18
F10.399004589260732
F21.07271110324533
tp632
a((lp633
(g621
g625
F207.62704732334478
tp634
a(g625
S'852'
p635
F83.07050981560973
tp636
aF1.248820054534888
g631
S'2012-03-02 18:55:33'
p637
I0
F290.6975571389545
F609.5722121222427
tp638
a((lp639
(S'1107'
p640
g635
F347.86601790741446
tp641
a(g635
S'833'
p642
F363.99526731937345
tp643
a(g642
g205
F480.1669052301094
tp644
a(g205
g207
F183.41867360754313
tp645
a(g207
g209
F194.7563084101235
tp646
a(g209
g211
F342.954945260165
tp647
aF114.78948706408374
g637
S'2012-03-02 18:56:33'
p648
I42
F1913.1581177347289
F702.3361312820049
tp649
a((lp650
(S'1150'
p651
g211
F819.5278372765173
tp652
a(g211
S'895'
p653
F364.23495779569595
tp654
a(g653
g393
F249.3697768587104
tp655
a(g393
g395
F466.1563318143197
tp656
aF18.83592301234952
g648
S'2012-03-02 19:02:36'
p657
I53
F1899.2889037452433
F1480.168437640363
tp658
a((lp659
(g400
g395
F362.4494087458775
tp660
a(g395
S'1036'
p661
F15.645737647071844
tp662
aF22.68570878357696
g657
S'2012-03-02 19:03:36'
p663
I29
F378.09514639294935
F380.0149549850966
tp664
a((lp665
(S'987'
p666
g661
F684.5437538562962
tp667
a(g661
S'989'
p668
F398.4077335245397
tp669
aF32.48854462142508
g663
S'2012-03-02 19:05:36'
p670
I20
F1082.951487380836
F757.4044250162625
tp671
a((lp672
(S'1036'
p673
g668
F388.37828055593275
tp674
a(g668
S'887'
p675
F277.2457126571839
tp676
aF19.017828377517617
g670
S'2012-03-02 19:07:42'
p677
I9
F665.6239932131166
F254.92824513344715
tp678
a((lp679
(S'989'
p680
g675
F413.6706257921635
tp681
a(g675
S'820'
p682
F424.04849152183726
tp683
aF53.85337182732862
g677
S'2012-03-02 19:08:38'
p684
I27
F837.7191173140008
F225.07533298972805
tp685
a((lp686
(S'887'
p687
g687
F0.0
tp688
aF12.098947730231508
g684
S'2012-03-02 19:11:02'
p689
I0
F483.95790920926027
F566.4872419552541
tp690
a((lp691
(g687
g687
F0.0
tp692
aF7.549269587015967
g689
S'2012-03-02 19:11:24'
p693
I0
F46.134425253986464
F68.91936155617445
tp694
a((lp695
(g687
g682
F936.7358719183765
tp696
a(g682
S'887'
p697
F1042.7797147525323
tp698
a(g697
S'1189'
p699
F211.8840444636607
tp700
a(g699
S'987'
p701
F541.0596802687863
tp702
a(g701
g661
F42.38205087609963
tp703
aF81.8805647885741
g693
S'2012-03-02 19:13:26'
p704
I0
F2774.8413622794556
F18.550913499201613
tp705
a((lp706
(g666
g661
F742.5715423432777
tp707
a(g661
S'987'
p708
F700.189491494048
tp709
a(g708
S'1189'
p710
F375.3018138044753
tp711
aF595.0023865009531
g704
S'2012-03-02 19:13:37'
p712
I0
F1818.062847641801
F41.81820225937851
tp713
a((lp714
(g666
g710
F165.7578664722334
tp715
a(g710
g701
F541.0596802687863
tp716
a(g701
g661
F700.189491494048
tp717
a(g661
S'1151'
p718
F499.30418929770127
tp719
a(g718
S'1036'
p720
F6.070867295628415
tp721
aF25.310939490375848
g712
S'2012-03-02 19:18:09'
p722
I24
F1912.3820948283974
F1160.7594151619455
tp723
a((lp724
(S'1151'
p725
g720
F505.3750565932527
tp726
a(g720
g718
F499.30418929770127
tp727
a(g718
S'1232'
p728
F19.00657898723641
tp729
aF73.70537939122971
g722
S'2012-03-02 19:18:59'
p730
I0
F1023.6858248781904
F56.75278209923452
tp731
a((lp732
(g725
g725
F0.0
tp733
aF14.917423501330587
g730
S'2012-03-02 19:19:59'
p734
I9
F248.62372502217644
F256.10577719079123
tp735
a((lp736
(g725
g728
F305.17108334576324
tp737
a(g728
S'901'
p738
F119.38965457054408
tp739
aF25.473644274978437
g734
S'2012-03-02 19:20:59'
p740
I0
F424.5607379163073
F424.79760125006584
tp741
a((lp742
(S'1232'
p743
g738
F381.0269652775275
tp744
a(g738
g77
F654.3387647481585
tp745
a(g77
S'796'
p746
F117.72042469973982
tp747
a(g746
g192
F361.8967412680692
tp748
a(g192
S'1068'
p749
F287.5482508719534
tp750
a(g749
S'834'
p751
F128.40964248009593
tp752
a(g751
S'791'
p753
F344.3991517532198
tp754
a(g753
g625
F299.7460839801528
tp755
aF39.44812634163448
g740
S'2012-03-02 19:24:54'
p756
I42
F2575.086025078917
F1559.830226005586
tp757
a((lp758
(g621
g625
F525.8804306108383
tp759
a(g625
S'791'
p760
F226.13434667854332
tp761
a(g760
S'834'
p762
F344.3991517532198
tp763
a(g762
S'1068'
p764
F128.40964248009593
tp765
a(g764
S'1032'
p766
F287.5482508719534
tp767
a(g766
S'838'
p768
F100.92901045494462
tp769
aF156.9698107637444
g756
S'2012-03-02 19:25:31'
p770
I0
F1613.3008328495953
F24.59595597651856
tp771
a((lp772
(S'1032'
p773
g768
F126.70751076639178
tp774
a(g768
S'936'
p775
F690.8846058389883
tp776
a(g775
g614
F263.909236928096
tp777
a(g614
g762
F262.71830081970546
tp778
aF40.32658963059544
g770
S'2012-03-02 19:27:31'
p779
I12
F1344.2196543531816
F186.6460629156185
tp780
a((lp781
(g621
g762
F81.68085094182715
tp782
a(g762
g764
F128.40964248009593
tp783
a(g764
g766
F287.5482508719534
tp784
a(g766
S'796'
p785
F361.8967412680692
tp786
a(g785
S'937'
p787
F117.72042469973982
tp788
a(g787
S'901'
p789
F359.97071132057016
tp790
aF26.744532431645116
g779
S'2012-03-02 19:30:31'
p791
I25
F1337.2266215822558
F1203.0561476858418
tp792
a((lp793
(g112
g789
F294.36805350802797
tp794
a(g789
S'1232'
p795
F500.4166198457959
tp796
a(g795
g738
F23.14596336299872
tp797
aF12.218051004898594
g791
S'2012-03-02 19:34:32'
p798
I46
F817.9306367168225
F646.4014141358801
tp799
a.