(lp0
((lp1
(S'157'
p2
S'105'
p3
F113.41387433778112
tp4
a(g3
S'249'
p5
F575.8476902730262
tp6
a(g5
S'444'
p7
F192.01126587807087
tp8
a(g7
S'456'
p9
F74.03632063044374
tp10
aF57.3185490671593
S'2012-03-02 07:00:06'
p11
S'2012-03-02 07:01:06'
p12
I33
F955.3091511193218
F729.1538606450206
tp13
a((lp14
(S'444'
p15
g9
F311.4577365653188
tp16
a(g9
S'85'
p17
F200.88497800248174
tp18
a(g17
S'291'
p19
F239.2848293153371
tp20
a(g19
S'143'
p21
F132.54537990408943
tp22
aF53.050375427233625
g12
S'2012-03-02 07:02:06'
p23
I53
F884.1729237872271
F484.6604735562264
tp24
a((lp25
(S'291'
p26
g21
F100.38430416859065
tp27
a(g21
S'291'
p28
F232.92968406904774
tp29
a(g28
S'85'
p30
F239.2848293153371
tp31
a(g30
S'456'
p32
F200.88497800248174
tp33
a(g32
S'444'
p34
F170.16271667831265
tp35
aF377.45860489350804
g23
S'2012-03-02 07:02:15'
p36
I0
F943.64651223377
F6.898772991155579
tp37
a((lp38
(S'456'
p39
g34
F555.6567738137245
tp40
a(g34
S'249'
p41
F192.01126587807087
tp42
a(g41
S'223'
p43
F158.54371200493
tp44
a(g43
S'85'
p45
F186.91338092701662
tp46
a(g45
S'39'
p47
F233.82885610286075
tp48
a(g47
S'76'
p49
F384.48890299753157
tp50
a(g49
S'461'
p51
F209.84399480520491
tp52
a(g51
S'288'
p53
F213.86956785060167
tp54
a(g53
S'448'
p55
F161.32840893425416
tp56
a(g55
S'115'
p57
F198.9007809612048
tp58
aF110.90602863446223
g36
S'2012-03-02 07:03:36'
p59
I0
F2495.3856442754
F631.2979649567997
tp60
a((lp61
(S'448'
p62
g57
F330.8675372454398
tp63
a(g57
S'448'
p64
F131.96675629555088
tp65
a(g64
S'288'
p66
F161.32840893425416
tp67
a(g66
S'46'
p68
F176.04606452481778
tp69
aF68.58932288571965
g59
S'2012-03-02 07:04:18'
p70
I24
F800.2087670000626
F236.40720090440846
tp71
a((lp72
(S'288'
p73
g68
F322.6672976192539
tp74
a(g68
S'288'
p75
F146.62123309864816
tp76
a(g75
g55
F161.32840893425416
tp77
a(g55
g57
F131.96675629555088
tp78
a(g57
g64
F96.69923178283337
tp79
aF51.55697566383243
g70
S'2012-03-02 07:05:18'
p80
I0
F859.2829277305405
F3.415979157393744
tp81
a((lp82
(S'115'
p83
g64
F35.267524513367604
tp84
a(g64
g57
F131.96675629555088
tp85
a(g57
S'149'
p86
F279.2751738259168
tp87
a(g86
S'359'
p88
F214.5001502809245
tp89
a(g88
S'400'
p90
F368.9484986175782
tp91
a(g90
S'40'
p92
F175.03635260490466
tp93
a(g92
S'348'
p94
F401.59962843252373
tp95
a(g94
S'160'
p96
F749.9190888032648
tp97
a(g96
S'195'
p98
F1654.504702992569
tp99
a(g98
S'323'
p100
F899.3736486026992
tp101
a(g100
S'371'
p102
F502.52151206068487
tp103
a(g102
S'1158'
p104
F343.4160234801613
tp105
a(g104
S'233'
p106
F505.9919712639641
tp107
a(g106
S'1222'
p108
F449.57388852710733
tp109
aF61.95595311047276
g80
S'2012-03-02 07:11:48'
p110
I0
F6711.894920301216
F3993.992360773723
tp111
a((lp112
(S'233'
p113
g108
F763.9953958844421
tp114
a(g108
S'233'
p115
F314.42150737049457
tp116
a(g115
S'1158'
p117
F505.9919712639641
tp118
a(g117
S'371'
p119
F343.4160234801613
tp120
a(g119
S'323'
p121
F502.52151206068487
tp122
a(g121
S'200'
p123
F94.02025551078857
tp124
aF699.0553843118406
g110
S'2012-03-02 07:12:01'
p125
I0
F2524.3666655705356
F74.62936453013836
tp126
a((lp127
(S'323'
p128
g123
F544.085658864376
tp129
a(g123
S'190'
p130
F65.9676834156334
tp131
a(g130
S'1'
p132
F133.23962227802784
tp133
a(g132
S'392'
p134
F1075.0148639845097
tp135
a(g134
S'270'
p136
F95.85961614434376
tp137
a(g136
S'365'
p138
F4.218253407375709
tp139
aF57.55157094282799
g125
S'2012-03-02 07:14:01'
p140
I37
F1918.3856980942664
F1699.2600759462835
tp141
a((lp142
(S'270'
p143
g138
F1370.4768191251665
tp144
a(g138
S'270'
p145
F1366.258565726773
tp146
a(g145
S'392'
p147
F95.85961614434376
tp148
a(g147
g132
F1075.0148639845097
tp149
a(g132
S'190'
p150
F133.23962227802784
tp151
a(g150
S'200'
p152
F65.9676834156334
tp153
a(g152
S'323'
p154
F8.54385689869197
tp155
aF14.815299699263328
g140
S'2012-03-02 07:30:41'
p156
I66
F4115.361027573146
F1235.7966297875575
tp157
a((lp158
(S'200'
p159
g154
F629.5620574379791
tp160
a(g154
S'195'
p161
F899.3736486026992
tp162
a(g161
S'141'
p163
F288.679793805085
tp164
a(g163
S'349'
p165
F144.75772780934173
tp166
a(g165
S'141'
p167
F265.59412238190237
tp168
aF133.67804100222045
g156
S'2012-03-02 07:31:41'
p169
I68
F2227.9673500370072
F1026.5573856592512
tp170
a((lp171
(S'349'
p172
g167
F410.3518501722638
tp173
a(g167
S'195'
p174
F288.679793805085
tp175
a(g174
S'160'
p176
F1654.504702992569
tp177
a(g176
S'206'
p178
F404.6800057671256
tp179
aF82.7464905821113
g169
S'2012-03-02 07:33:41'
p180
I61
F2758.2163527370435
F2473.0459320994332
tp181
a((lp182
(S'160'
p183
g178
F2573.253894900324
tp184
a(g178
S'79'
p185
F340.8639244928786
tp186
a(g185
S'62'
p187
F766.4395078482208
tp188
a(g187
S'328'
p189
F304.77298423724176
tp190
a(g189
S'62'
p191
F286.8001466785723
tp192
aF256.3278274894343
g180
S'2012-03-02 07:34:41'
p193
I74
F4272.130458157238
F1175.0393989177937
tp194
a((lp195
(S'328'
p196
g191
F591.5731308531182
tp197
a(g191
S'79'
p198
F766.4395078482208
tp199
a(g198
S'206'
p200
F340.8639244928786
tp201
a(g200
g185
F463.3930917076398
tp202
aF35.7072053103059
g193
S'2012-03-02 07:38:19'
p203
I66
F2162.2696549018574
F1712.039266530662
tp204
a((lp205
(S'206'
p206
g185
F804.2570161504756
tp207
a(g185
g200
F340.8639244928786
tp208
a(g200
S'160'
p209
F2977.933896935319
tp210
a(g209
g98
F1654.504702992569
tp211
a(g98
g100
F899.3736486026992
tp212
a(g100
g102
F502.52151206068487
tp213
a(g102
g104
F343.4160234801613
tp214
a(g104
g106
F505.9919712639641
tp215
a(g106
S'324'
p216
F522.2079091612247
tp217
a(g216
S'12'
p218
F348.33486400960794
tp219
a(g218
S'307'
p220
F336.87317808984017
tp221
a(g220
S'101'
p222
F516.3741780275716
tp223
a(g222
S'231'
p224
F2128.2368240663845
tp225
a(g224
S'37'
p226
F1230.1532257749107
tp227
a(g226
S'406'
p228
F709.895434390015
tp229
a(g228
S'463'
p230
F32.83339001299866
tp231
aF1133.4904117781975
g203
S'2012-03-02 07:39:03'
p232
I0
F13853.771699511304
F68.77891078226814
tp233
a((lp234
(S'406'
p235
g230
F555.9739906902684
tp236
a(g230
S'1303'
p237
F916.7454369448138
tp238
a(g237
S'1284'
p239
F393.0490934460226
tp240
a(g239
S'871'
p241
F1.4355642922153191
tp242
aF36.13943391045135
g232
S'2012-03-02 07:42:09'
p243
I18
F1867.20408537332
F1420.5848403619057
tp244
a((lp245
(S'1284'
p246
g241
F729.6747272855284
tp247
a(g241
S'1284'
p248
F731.1102915769052
tp249
a(g248
S'1303'
p250
F393.0490934460226
tp251
a(g250
S'451'
p252
F30.560509835289015
tp253
aF242.27930856133867
g243
S'2012-03-02 07:42:37'
p254
I0
F1884.3946221437452
F63.36163647229327
tp255
a((lp256
(S'1303'
p257
g252
F528.1695675294986
tp258
a(g252
S'1402'
p259
F391.4745659135401
tp260
a(g259
S'1264'
p261
F228.23448105151797
tp262
a(g261
S'1382'
p263
F491.1492433133898
tp264
a(g263
S'1384'
p265
F256.6726605234481
tp266
aF113.74203109988368
g254
S'2012-03-02 07:43:37'
p267
I22
F1895.7005183313945
F376.21076462576445
tp268
a((lp269
(S'1382'
p270
g265
F703.3282708137549
tp271
a(g265
S'1336'
p272
F270.0346910770018
tp273
a(g272
S'1268'
p274
F227.69848594862913
tp275
aF32.26732247926709
g267
S'2012-03-02 07:45:51'
p276
I1
F1201.061447839386
F511.8854972700163
tp277
a((lp278
(S'1336'
p279
g274
F383.1240891442543
tp280
a(g274
S'1344'
p281
F260.9910907964827
tp282
a(g281
S'1240'
p283
F281.08875341763786
tp284
a(g283
S'1310'
p285
F388.8414992769568
tp286
a(g285
S'1389'
p287
F319.02403759519916
tp288
a(g287
S'1282'
p289
F369.4938472686224
tp290
aF102.98897061424218
g276
S'2012-03-02 07:47:01'
p291
I0
F2002.5633174991533
F573.9840122075357
tp292
a((lp293
(S'1389'
p294
g289
F631.856254897199
tp295
a(g289
S'1389'
p296
F262.3624076285935
tp297
a(g296
S'1330'
p298
F389.4707510404453
tp299
a(g298
S'1345'
p300
F225.3777301642604
tp301
a(g300
S'99'
p302
F384.78659929766803
tp303
a(g302
S'250'
p304
F28.03696193671268
tp305
aF48.723989703334965
g291
S'2012-03-02 07:49:23'
p306
I0
F1921.890704964879
F678.1411490586423
tp307
a((lp308
(S'99'
p309
g304
F686.129695767659
tp310
a(g304
S'99'
p311
F714.166657688526
tp312
a(g311
S'172'
p313
F970.6293936388311
tp314
a(g313
S'235'
p315
F148.9999697178318
tp316
aF73.75392341891262
g306
S'2012-03-02 07:51:26'
p317
I0
F2519.925716812848
F773.4564526420601
tp318
a((lp319
(S'172'
p320
g315
F714.7752851168515
tp321
a(g315
S'340'
p322
F23.680389772855627
tp323
aF12.659240140966409
g317
S'2012-03-02 07:54:56'
p324
I22
F738.4556748897071
F912.5677455122938
tp325
a((lp326
(S'235'
p327
g322
F1079.744895487492
tp328
a(g322
S'398'
p329
F450.51289480250523
tp330
aF91.81546741739983
g324
S'2012-03-02 07:55:56'
p331
I29
F1530.257790289997
F634.0068143937275
tp332
a((lp333
(S'340'
p334
g329
F1566.7382410226285
tp335
a(g329
S'340'
p336
F1116.2253471445076
tp337
a(g336
S'235'
p338
F205.73789314663537
tp339
aF66.66234187647164
g331
S'2012-03-02 07:58:32'
p340
I38
F2888.7014813137716
F240.56360469611542
tp341
a((lp342
(g334
g338
F897.6873923217242
tp343
a(g338
S'172'
p344
F68.56752191352886
tp345
aF33.128739916637244
g340
S'2012-03-02 08:00:17'
p346
I50
F966.2549142352531
F909.5954974429256
tp347
a((lp348
(g327
g344
F634.3428373131118
tp349
a(g344
S'350'
p350
F1068.9242700134396
tp351
a(g350
S'340'
p352
F574.3329156126418
tp353
a(g352
g329
F1116.2253471445076
tp354
a(g329
g336
F31.279502480973644
tp355
aF58.1621582133624
g346
S'2012-03-02 08:03:49'
p356
I16
F3425.104872564675
F2200.0316536206738
tp357
a((lp358
(S'398'
p359
g336
F1084.945844707899
tp360
a(g336
g329
F1116.2253471445076
tp361
a(g329
S'294'
p362
F581.9794787312672
tp363
a(g362
S'1385'
p364
F224.74558008764677
tp365
aF180.47377504027924
g356
S'2012-03-02 08:04:49'
p366
I0
F3007.8962506713206
F4.328726534381033
tp367
a((lp368
(S'294'
p369
g364
F1919.966840749591
tp370
a(g364
S'294'
p371
F1695.221260666139
tp372
a(g371
S'350'
p373
F25.33026504506443
tp374
aF218.43110198764768
g366
S'2012-03-02 08:05:49'
p375
I0
F3640.5183664607944
F2.4141697927932477
tp376
a((lp377
(g369
g373
F1156.1524596258444
tp378
a(g373
S'294'
p379
F1130.8221946196147
tp380
a(g379
g364
F223.9208511060451
tp381
aF150.65373032109025
g375
S'2012-03-02 08:06:49'
p382
I0
F2510.895505351504
F3.191690475201686
tp383
a((lp384
(g369
g364
F1919.1421117680063
tp385
a(g364
g371
F1695.221260666139
tp386
a(g371
S'49'
p387
F320.47653730560586
tp388
aF113.32338940050482
g382
S'2012-03-02 08:08:54'
p389
I0
F3934.839909739751
F371.58882830872454
tp390
a((lp391
(g369
g387
F733.4686476248165
tp392
a(g387
S'1324'
p393
F1748.1730382622231
tp394
a(g393
S'1400'
p395
F744.7785653083077
tp396
a(g395
S'1349'
p397
F385.4440844687764
tp398
a(g397
S'1390'
p399
F688.2282267324903
tp400
a(g399
S'1277'
p401
F90.71801363906916
tp402
aF44.526529785150586
g389
S'2012-03-02 08:14:49'
p403
I40
F4390.810576035683
F3147.3633601919814
tp404
a((lp405
(S'1390'
p406
g401
F897.3567081734683
tp407
a(g401
S'1323'
p408
F391.0462029001565
tp409
a(g408
S'1321'
p410
F729.4014589530278
tp411
a(g410
S'1400'
p412
F70.07844175781209
tp413
aF341.653551019276
g403
S'2012-03-02 08:15:11'
p414
I50
F2087.8828117844646
F88.12728329381768
tp415
a((lp416
(S'1321'
p417
g412
F711.2839217666622
tp418
a(g412
S'1260'
p419
F867.3349765185505
tp420
a(g419
S'1275'
p421
F734.392733411063
tp422
a(g421
S'1276'
p423
F805.6628726179206
tp424
a(g423
S'1359'
p425
F39.015725159165996
tp426
aF66.86873427120061
g414
S'2012-03-02 08:18:01'
p427
I0
F3157.6902294733623
F1180.4241348753883
tp428
a((lp429
(S'1276'
p430
g425
F388.5835212568381
tp431
a(g425
S'1276'
p432
F349.5677960977179
tp433
a(g432
S'1340'
p434
F67.22641210687873
tp435
aF80.53777294614346
g427
S'2012-03-02 08:18:37'
p436
I0
F805.3777294614347
F72.65798576218542
tp437
a((lp438
(g430
g434
F957.3787233534885
tp439
a(g434
S'1320'
p440
F3.8907410725649925
tp441
aF57.6761678655632
g436
S'2012-03-02 08:19:37'
p442
I38
F961.2694644260534
F890.33365865776
tp443
a((lp444
(S'1340'
p445
g440
F368.2259909762149
tp446
a(g440
S'1340'
p447
F364.33524990366624
tp448
a(g447
S'1364'
p449
F389.2613752484441
tp450
aF67.30935696769951
g442
S'2012-03-02 08:20:37'
p451
I0
F1121.822616128325
F456.2945619815261
tp452
a((lp453
(g445
g449
F141.35992201276773
tp454
a(g449
S'1302'
p455
F167.11441244769938
tp456
a(g455
S'1375'
p457
F265.2152626843097
tp458
a(g457
S'1387'
p459
F85.58025373267589
tp460
aF21.97566169591509
g451
S'2012-03-02 08:22:25'
p461
I18
F659.2698508774527
F207.48815221559943
tp462
a((lp463
(S'1375'
p464
g459
F419.55333929218403
tp465
a(g459
S'1254'
p466
F220.6757111319676
tp467
a(g466
S'1392'
p468
F100.06033914055519
tp469
aF32.50050978576762
g461
S'2012-03-02 08:23:47'
p470
I37
F740.2893895647069
F743.2811352607714
tp471
a((lp472
(S'1254'
p473
g468
F514.9982933245502
tp474
a(g468
S'1287'
p475
F468.7311467128138
tp476
a(g475
S'1236'
p477
F500.94138389154773
tp478
a(g477
S'1267'
p479
F465.5891016569359
tp480
a(g479
S'1243'
p481
F285.58268750573745
tp482
a(g481
S'1312'
p483
F457.99147004036877
tp484
a(g483
S'1301'
p485
F298.40658492761906
tp486
a(g485
S'1304'
p487
F252.7719911370953
tp488
aF194.7007595518001
g470
S'2012-03-02 08:24:47'
p489
I37
F3245.012659196668
F1017.0289215128563
tp490
a((lp491
(S'1301'
p492
g487
F519.2184055722229
tp493
a(g487
S'1352'
p494
F306.3550279706398
tp495
a(g494
S'1312'
p496
F325.5209694433961
tp497
aF34.532832089587764
g489
S'2012-03-02 08:26:47'
p498
I74
F1151.0944029862587
F830.6977395291149
tp499
a((lp500
(S'1352'
p501
g496
F619.0612174380815
tp502
a(g496
S'1243'
p503
F457.99147004036877
tp504
a(g503
S'1267'
p505
F285.58268750573745
tp506
a(g505
S'1236'
p507
F465.5891016569359
tp508
a(g507
S'1287'
p509
F500.94138389154773
tp510
a(g509
S'1392'
p511
F468.7311467128138
tp512
a(g511
S'1296'
p513
F438.770309446354
tp514
a(g513
S'1383'
p515
F84.24084172337118
tp516
aF105.79884398490935
g498
S'2012-03-02 08:28:40'
p517
I38
F3320.90815841521
F1161.603877221457
tp518
a((lp519
(S'1296'
p520
g515
F670.3918515599405
tp521
a(g515
S'1364'
p522
F796.7773074653477
tp523
a(g522
S'1340'
p524
F530.6212972280467
tp525
a(g524
S'1244'
p526
F142.6727505862331
tp527
aF42.80926413679136
g517
S'2012-03-02 08:31:40'
p528
I18
F2140.463206839568
F2009.2259367629795
tp529
a((lp530
(g445
g445
F0.0
tp531
aF0.9103612048437713
g528
S'2012-03-02 08:31:50'
p532
I3
F2.528781124566031
F2.609323586300045
tp533
a((lp534
(g445
g526
F289.0445115736357
tp535
a(g526
S'1322'
p536
F267.73326804549595
tp537
a(g536
S'1375'
p538
F251.1499504038258
tp539
a(g538
g459
F505.13359300430295
tp540
a(g459
g466
F481.02578655351783
tp541
aF76.88944755346192
g532
S'2012-03-02 08:33:14'
p542
I0
F1794.087109580778
F617.0605902944984
tp543
a((lp544
(S'1387'
p545
g466
F701.7014976002015
tp546
a(g466
S'1383'
p547
F444.6992573236813
tp548
a(g547
S'1296'
p549
F54.897821345834515
tp550
aF50.28691714617421
g542
S'2012-03-02 08:34:40'
p551
I55
F1201.2985762697172
F734.5282096894194
tp552
a((lp553
(S'1383'
p554
g549
F641.0488311966714
tp555
a(g549
g515
F586.1510098745574
tp556
a(g515
g522
F796.7773074653477
tp557
a(g522
g524
F530.6212972280467
tp558
a(g524
g440
F33.93319478098084
tp559
aF40.34075283967176
g551
S'2012-03-02 08:38:31'
p560
I38
F2588.531640545604
F1350.899845891123
tp561
a((lp562
(g445
g440
F398.2684446845658
tp563
a(g440
S'1359'
p564
F1026.9145089181752
tp565
a(g564
g432
F349.5677960977179
tp566
a(g432
S'1323'
p567
F157.97614080323348
tp568
aF115.96361343022156
g560
S'2012-03-02 08:39:31'
p569
I11
F1932.7268905036924
F857.9475542964718
tp570
a((lp571
(g430
g430
F0.0
tp572
aF37.50453038559137
g569
S'2012-03-02 08:40:31'
p573
I16
F625.0755064265229
F625.3237783552488
tp574
a((lp575
(g430
g567
F464.49522067493024
tp576
a(g567
S'1342'
p577
F116.01349465629434
tp578
aF34.83052291987348
g573
S'2012-03-02 08:41:31'
p579
I44
F580.5087153312246
F485.7642923909154
tp580
a((lp581
(S'1323'
p582
g577
F1098.1251093727699
tp583
a(g577
S'1285'
p584
F64.18251436411894
tp585
aF68.5952040238164
g579
S'2012-03-02 08:42:32'
p586
I40
F1162.307623736889
F1033.9927266006298
tp587
a((lp588
(S'1342'
p589
g584
F653.3280861089956
tp590
a(g584
S'1348'
p591
F12.674737210374326
tp592
aF36.886310214611264
g586
S'2012-03-02 08:43:37'
p593
I1
F666.00282331937
F620.2696437134451
tp594
a((lp595
(S'1285'
p596
g591
F283.80049781238745
tp597
a(g591
S'1245'
p598
F780.823649611878
tp599
a(g598
S'1280'
p600
F291.41203018864644
tp601
a(g600
S'1297'
p602
F330.23392593544827
tp603
a(g602
S'1252'
p604
F63.20230799764298
tp605
aF44.04266210885043
g593
S'2012-03-02 08:46:00'
p606
I0
F1749.472411546003
F1202.2097549596056
tp607
a((lp608
(S'1297'
p609
g604
F1061.9413535669694
tp610
a(g604
S'1297'
p611
F1125.1436614787262
tp612
a(g611
S'1353'
p613
F907.6544528091619
tp614
a(g613
S'1286'
p615
F204.72459300474088
tp616
aF127.72118945262962
g606
S'2012-03-02 08:47:33'
p617
I0
F3299.4640608595982
F1175.1002017067772
tp618
a((lp619
(S'1353'
p620
g615
F1257.1614196384674
tp621
a(g615
S'1292'
p622
F873.144134384409
tp623
a(g622
S'873'
p624
F14.068484401390931
tp625
aF53.239631298809385
g617
S'2012-03-02 08:49:58'
p626
I77
F2144.374038424267
F2141.8927959346015
tp627
a((lp628
(S'1292'
p629
g629
F0.0
tp630
aF0.0
g626
S'2012-03-02 08:50:58'
p631
I0
F0.0
F0.0
tp632
a((lp633
(g629
g629
F0.0
tp634
aF0.0
g631
S'2012-03-02 08:51:58'
p635
I0
F0.0
F0.0
tp636
a((lp637
(g629
g624
F5566.955371359021
tp638
a(g624
S'936'
p639
F117.95681148015007
tp640
a(g639
S'791'
p641
F263.909236928096
tp642
a(g641
S'1107'
p643
F226.13434667854332
tp644
a(g643
S'1044'
p645
F278.424131296127
tp646
a(g645
S'778'
p647
F302.5121384580218
tp648
a(g647
S'963'
p649
F513.8652496215955
tp650
a(g649
S'778'
p651
F187.22989957314357
tp652
aF178.96769244947276
g635
S'2012-03-02 08:54:28'
p653
I0
F7456.987185394699
F4716.51072032164
tp654
a((lp655
(S'963'
p656
g651
F701.095149105965
tp657
a(g651
S'1044'
p658
F302.5121384580218
tp659
a(g658
S'1107'
p660
F278.424131296127
tp661
a(g660
S'791'
p662
F226.13434667854332
tp663
a(g662
S'936'
p664
F263.909236928096
tp665
a(g664
S'873'
p666
F117.95681148015007
tp667
a(g666
S'817'
p668
F214.99477288859876
tp669
a(g668
S'909'
p670
F286.06989179438705
tp671
a(g670
S'1139'
p672
F384.6361930519455
tp673
a(g672
S'1160'
p674
F999.898841596365
tp675
a(g674
S'1113'
p676
F282.7294827992773
tp677
a(g676
S'906'
p678
F504.1784455245772
tp679
a(g678
S'1113'
p680
F84.93433760471142
tp681
aF42.680881645776424
g653
S'2012-03-02 09:01:00'
p682
I0
F4647.473779206766
F2566.6746867241422
tp683
a((lp684
(S'906'
p685
g680
F589.1127831004964
tp686
a(g680
S'1160'
p687
F282.7294827992773
tp688
a(g687
S'847'
p689
F352.8185604851902
tp690
a(g689
S'1160'
p691
F169.95740835983042
tp692
aF56.41152410203663
g682
S'2012-03-02 09:02:29'
p693
I7
F1394.6182347447943
F44.00787658580244
tp694
a((lp695
(S'847'
p696
g691
F522.775968809046
tp697
a(g691
g676
F282.7294827992773
tp698
a(g676
g678
F504.1784455245772
tp699
a(g678
S'996'
p700
F72.54121483596178
tp701
aF95.69250775169048
g693
S'2012-03-02 09:03:21'
p702
I0
F1382.2251119688624
F30.671534402254053
tp703
a((lp704
(g685
g700
F826.4697074817517
tp705
a(g700
S'906'
p706
F899.010922256264
tp707
a(g706
S'1010'
p708
F1626.56736988427
tp709
a(g708
S'827'
p710
F266.8104465605856
tp711
a(g710
S'1010'
p712
F199.51527389088548
tp713
aF38.18373720073757
g702
S'2012-03-02 09:09:21'
p714
I9
F3818.373720073757
F1653.3179394600663
tp715
a((lp716
(S'827'
p717
g712
F67.29517267400573
tp718
a(g712
g710
F199.85938417950027
tp719
aF6.587372634743983
g714
S'2012-03-02 09:11:47'
p720
I55
F267.154556853506
F133.50396866684326
tp721
a((lp722
(S'1010'
p723
g710
F66.9510623853764
tp724
a(g710
S'909'
p725
F390.24923028502263
tp726
a(g725
S'817'
p727
F286.06989179438705
tp728
a(g727
S'873'
p729
F166.5127949610192
tp730
aF24.625704706262397
g720
S'2012-03-02 09:14:00'
p731
I38
F909.7829794258053
F655.9555397282752
tp732
a((lp733
(S'817'
p734
g729
F48.48197792758833
tp735
a(g729
g639
F117.95681148015007
tp736
a(g639
g641
F263.909236928096
tp737
a(g641
S'852'
p738
F252.5830223782035
tp739
a(g738
S'833'
p740
F363.99526731937345
tp741
a(g740
S'974'
p742
F480.1669052301094
tp743
a(g742
S'991'
p744
F656.1638760738123
tp745
a(g744
S'874'
p746
F237.07629077782101
tp747
a(g746
S'867'
p748
F492.04911934836207
tp749
a(g748
S'1191'
p750
F360.6074231124015
tp751
a(g750
S'1124'
p752
F174.5858827461493
tp753
aF36.39669480340012
g731
S'2012-03-02 09:19:41'
p754
I18
F3447.5758133220675
F2289.1981886089457
tp755
a((lp756
(S'1191'
p757
g752
F174.0781735070926
tp758
a(g752
S'1191'
p759
F348.66405624127844
tp760
a(g759
S'867'
p761
F360.6074231124015
tp762
a(g761
S'920'
p763
F241.18188801357456
tp764
aF72.29131334192232
g754
S'2012-03-02 09:20:37'
p765
I51
F1124.5315408743472
F59.74106908608825
tp766
a((lp767
(S'867'
p768
g763
F650.0239995319081
tp769
a(g763
S'867'
p770
F408.84211159134935
tp771
a(g770
g750
F360.6074231124015
tp772
a(g750
S'1218'
p773
F264.7542280364345
tp774
a(g773
S'1045'
p775
F380.2508287917065
tp776
a(g775
S'844'
p777
F161.05814139702346
tp778
a(g777
S'955'
p779
F135.70247565144197
tp780
a(g779
S'813'
p781
F56.66466961496389
tp782
a(g781
S'921'
p783
F182.17650096521103
tp784
a(g783
S'927'
p785
F195.5482192140499
tp786
a(g785
S'959'
p787
F106.9390388791336
tp788
a(g787
S'1170'
p789
F135.9977572931447
tp790
a(g789
S'1066'
p791
F134.29559832461862
tp792
a(g791
S'923'
p793
F407.53435205726896
tp794
a(g793
S'101'
p795
F930.3605400765287
tp796
a(g795
g224
F2128.2368240663845
tp797
a(g224
S'306'
p798
F795.5882439156834
tp799
a(g798
S'231'
p800
F268.64211041799393
tp801
aF53.743416718166834
g765
S'2012-03-02 09:29:13'
p802
I29
F7703.223062937246
F3101.701950256237
tp803
a((lp804
(S'306'
p805
g800
F1064.2303540654125
tp806
a(g800
S'5'
p807
F373.65454097386885
tp808
a(g807
S'336'
p809
F120.61870816899601
tp810
aF93.51021619249663
g802
S'2012-03-02 09:30:13'
p811
I50
F1558.5036032082771
F778.9260095513342
tp812
a((lp813
(g807
g809
F397.2208393064584
tp814
a(g809
g807
F276.60213113766173
tp815
a(g807
S'25'
p816
F374.04354080009665
tp817
aF31.435995337326506
g811
S'2012-03-02 09:32:13'
p818
I14
F1047.8665112442168
F707.1781850820265
tp819
a((lp820
(g807
g816
F811.5823220618333
tp821
a(g816
S'1137'
p822
F5.695609024379793
tp823
aF8.888823419668784
g818
S'2012-03-02 09:37:44'
p824
I44
F817.2779310862131
F648.6185560604034
tp825
a((lp826
(S'25'
p827
g822
F903.8399325315487
tp828
a(g822
S'25'
p829
F909.535541555871
tp830
a(g829
S'463'
p831
F109.82281843407547
tp832
aF314.705175139881
g824
S'2012-03-02 09:38:06'
p833
I0
F1923.1982925214952
F53.19732906096763
tp834
a((lp835
(g827
g831
F808.2233236153072
tp836
a(g831
S'25'
p837
F698.4005052534098
tp838
a(g837
g822
F426.0185417878314
tp839
aF115.95854223939291
g833
S'2012-03-02 09:39:06'
p840
I25
F1932.6423706565483
F423.1335917431128
tp841
a((lp842
(g827
g822
F483.51699977060485
tp843
a(g822
S'871'
p844
F371.5143218265012
tp845
aF31.092048058076585
g840
S'2012-03-02 09:40:45'
p846
I35
F855.0313215971061
F854.4676703426844
tp847
a((lp848
(S'1137'
p849
g844
F33.36729027858672
tp850
a(g844
S'1137'
p851
F404.8816121047468
tp852
a(g851
g829
F314.32785888467595
tp853
aF71.29674580433775
g846
S'2012-03-02 09:41:23'
p854
I5
F752.5767612680095
F56.11439835063465
tp855
a((lp856
(g849
g829
F1223.863400435737
tp857
a(g829
g831
F698.4005052534098
tp858
a(g831
g237
F916.7454369448138
tp859
a(g237
S'463'
p860
F253.6360336076579
tp861
aF61.852907524832375
g854
S'2012-03-02 09:44:23'
p862
I37
F3092.6453762416186
F932.7937485825704
tp863
a((lp864
(g257
g860
F663.1094033421913
tp865
a(g860
S'128'
p866
F579.5406775008636
tp867
a(g866
S'172'
p868
F673.8897918142452
tp869
a(g868
g350
F328.87654343940784
tp870
aF34.69312917574313
g862
S'2012-03-02 09:48:16'
p871
I44
F2245.416416096708
F1165.1685785912864
tp872
a((lp873
(g320
g320
F0.0
tp874
aF25.712676353864882
g871
S'2012-03-02 09:49:03'
p875
I66
F335.69327461990264
F336.07322285022803
tp876
a((lp877
(g320
g350
F1062.1075388410407
tp878
a(g350
g352
F574.3329156126418
tp879
a(g352
g329
F169.48434375023157
tp880
aF54.17774394611742
g875
S'2012-03-02 09:51:03'
p881
I29
F1805.924798203914
F1436.3588029310347
tp882
a((lp883
(g334
g329
F946.7410036043259
tp884
a(g329
S'158'
p885
F980.5492056374832
tp886
a(g885
S'75'
p887
F1096.7354764412723
tp888
a(g887
S'18'
p889
F607.417478032252
tp890
a(g889
S'119'
p891
F613.0875607873952
tp892
a(g891
S'367'
p893
F713.9276386045469
tp894
a(g893
S'355'
p895
F720.0000486655169
tp896
a(g895
S'8'
p897
F770.5077146010468
tp898
a(g897
S'243'
p899
F497.6064972180614
tp900
a(g899
S'1358'
p901
F820.1452521497176
tp902
a(g901
S'1327'
p903
F197.1367679524997
tp904
a(g903
S'1399'
p905
F433.91775760016844
tp906
a(g905
S'1379'
p907
F365.18936542563927
tp908
a(g907
S'1253'
p909
F169.6879575593227
tp910
a(g909
S'1287'
p911
F215.9995211997082
tp912
a(g911
g477
F500.94138389154773
tp913
a(g477
S'428'
p914
F1389.6055465674801
tp915
a(g914
S'146'
p916
F1975.1112733847385
tp917
a(g916
S'358'
p918
F569.3222432001658
tp919
a(g918
S'296'
p920
F271.20428853774837
tp921
a(g920
S'50'
p922
F899.0793771111934
tp923
a(g922
S'163'
p924
F342.83629405796165
tp925
a(g924
S'63'
p926
F776.5288468757814
tp927
a(g926
S'404'
p928
F1348.1771778466043
tp929
a(g928
S'63'
p930
F31.50768130448587
tp931
aF69.55281980932139
g881
S'2012-03-02 10:05:56'
p932
I74
F17252.963358256664
F3943.145400245269
tp933
a((lp934
(S'404'
p935
g930
F1316.6694966117507
tp936
a(g930
g928
F1348.1771778466043
tp937
a(g928
S'192'
p938
F1958.8057646923883
tp939
a(g938
S'404'
p940
F463.3366151743182
tp941
aF160.6417596102651
g932
S'2012-03-02 10:07:50'
p942
I0
F5086.989054325061
F1502.1575079287097
tp943
a((lp944
(S'192'
p945
g940
F1495.4691511236224
tp946
a(g940
g938
F1958.8057646923883
tp947
a(g938
S'197'
p948
F460.1469090407421
tp949
aF195.72109124283764
g942
S'2012-03-02 10:09:02'
p950
I0
F3914.4218248567527
F932.3072564381503
tp951
a((lp952
(g945
g948
F104.50223690044807
tp953
a(g948
S'257'
p954
F723.3936380880388
tp955
a(g954
S'123'
p956
F496.1147848574999
tp957
a(g956
S'238'
p958
F329.77820763924905
tp959
aF64.01763358007365
g950
S'2012-03-02 10:10:35'
p960
I53
F1653.7888674852359
F1444.87575905092
tp961
a((lp962
(S'123'
p963
g958
F31.898745979392963
tp964
a(g958
S'177'
p965
F601.6634620718969
tp966
a(g965
S'66'
p967
F280.97647332925493
tp968
a(g967
S'157'
p969
F469.57906804620643
tp970
aF41.52353248280254
g960
S'2012-03-02 10:12:35'
p971
I42
F1384.1177494267513
F1317.2951346979403
tp972
a((lp973
(S'66'
p974
g969
F517.3414050256449
tp975
a(g969
g3
F366.4817423643772
tp976
a(g3
g5
F575.8476902730262
tp977
a(g5
g43
F158.54371200493
tp978
a(g43
g45
F186.91338092701662
tp979
a(g45
g19
F239.2848293153371
tp980
a(g19
g21
F122.388909599557
tp981
aF28.998089257381416
g971
S'2012-03-02 10:17:04'
p982
I42
F2166.801669509889
F2065.8482669680548
tp983
a((lp984
(g26
g21
F110.54077447318542
tp985
a(g21
S'225'
p986
F405.88848790171784
tp987
a(g986
S'46'
p988
F204.10192602860755
tp989
a(g988
S'107'
p990
F327.4845229639087
tp991
a(g990
S'131'
p992
F269.0371341692761
tp993
a(g992
S'14'
p994
F27.426087312697096
tp995
aF79.3462976763576
g982
S'2012-03-02 10:18:05'
p996
I40
F1344.4789328493925
F481.9853648668849
tp997
a((lp998
(S'131'
p999
g994
F138.29810943880995
tp1000
a(g994
S'131'
p1001
F165.72419675127833
tp1002
a(g1001
S'465'
p1003
F372.64303705265917
tp1004
aF135.33306864854947
g996
S'2012-03-02 10:18:23'
p1005
I0
F676.6653432427474
F50.642074285099255
tp1006
a((lp1007
(g999
g1003
F1210.3678050830886
tp1008
a(g1003
S'131'
p1009
F837.7247684747507
tp1010
a(g1009
g994
F165.72419675127833
tp1011
a(g994
g1001
F54.53562826147147
tp1012
aF136.10114391423537
g1005
S'2012-03-02 10:19:23'
p1013
I20
F2268.3523985705892
F238.65237105349615
tp1014
a((lp1015
(S'14'
p1016
g1001
F111.18856849014136
tp1017
a(g1001
S'107'
p1018
F269.0371341692761
tp1019
a(g1018
S'321'
p1020
F59.10719419781638
tp1021
aF20.810505640605815
g1013
S'2012-03-02 10:20:39'
p1022
I16
F439.3328968572339
F19.193634844939307
tp1023
a((lp1024
(S'107'
p1025
g1025
F0.0
tp1026
aF6.260798586074613
g1022
S'2012-03-02 10:21:02'
p1027
I0
F39.99954652214336
F46.53167070406172
tp1028
a((lp1029
(g1025
g1020
F4681.04415142335
tp1030
a(g1020
S'107'
p1031
F4780.150889487485
tp1032
a(g1031
g992
F269.0371341692761
tp1033
a(g992
g1003
F34.47078575206875
tp1034
aF585.8821776499308
g1027
S'2012-03-02 10:22:02'
p1035
I27
F9764.702960832179
F142.73175372401866
tp1036
a((lp1037
(g999
g1003
F872.195554197307
tp1038
a(g1003
g1009
F837.7247684747507
tp1039
a(g1009
g1018
F269.0371341692761
tp1040
a(g1018
S'46'
p1041
F327.4845229639087
tp1042
a(g1041
S'225'
p1043
F204.10192602860755
tp1044
a(g1043
S'143'
p1045
F405.88848790171784
tp1046
a(g1045
g28
F232.92968406904774
tp1047
a(g28
g30
F239.2848293153371
tp1048
a(g30
g32
F200.88497800248174
tp1049
a(g32
g34
F277.7632268725017
tp1050
aF77.3459022398987
g1035
S'2012-03-02 10:25:02'
p1051
I20
F3867.2951119949357
F1220.254853814649
tp1052
a((lp1053
(g39
g34
F663.2572839618992
tp1054
a(g34
g9
F385.4940571839216
tp1055
a(g9
S'89'
p1056
F111.00362407473287
tp1057
aF189.7780852179088
g1051
S'2012-03-02 10:25:24'
p1058
I48
F1159.7549652205537
F105.29851181015454
tp1059
a((lp1060
(g39
g1056
F224.96698684059106
tp1061
a(g1056
S'456'
p1062
F113.9633627673386
tp1063
a(g1062
g17
F200.88497800248174
tp1064
a(g17
S'223'
p1065
F186.91338092701662
tp1066
a(g1065
g45
F420.42978218948
tp1067
aF172.07377360903618
g1058
S'2012-03-02 10:25:48'
p1068
I24
F1147.158490726908
F45.50266474052633
tp1069
a((lp1070
(S'223'
p1071
g45
F233.5164012866058
tp1072
a(g45
g47
F233.82885610286075
tp1073
a(g47
S'120'
p1074
F307.45722819200313
tp1075
a(g1074
S'62'
p1076
F297.053365065773
tp1077
aF27.96145697340633
g1068
S'2012-03-02 10:28:06'
p1078
I0
F1071.8558506472427
F466.327474623497
tp1079
a((lp1080
(S'120'
p1081
g1076
F14.248858272468512
tp1082
a(g1076
g198
F23.58326575492631
tp1083
aF6.190711204482789
g1078
S'2012-03-02 10:28:28'
p1084
I0
F37.83212402739482
F39.89472687205855
tp1085
a((lp1086
(S'62'
p1087
g198
F742.8562421095451
tp1088
a(g198
g200
F35.046003949074624
tp1089
aF46.67413476351718
g1084
S'2012-03-02 10:29:28'
p1090
I18
F777.9022460586197
F515.5703829649065
tp1091
a((lp1092
(S'79'
p1093
g200
F305.8179205452021
tp1094
a(g200
g185
F340.8639244928786
tp1095
a(g185
g187
F206.54676209724744
tp1096
aF21.03851360059713
g1090
S'2012-03-02 10:31:54'
p1097
I22
F853.2286071353282
F32.275938326013254
tp1098
a((lp1099
(g1093
g1093
F0.0
tp1100
aF0.0
g1097
S'2012-03-02 10:34:55'
p1101
I0
F0.0
F0.0
tp1102
a((lp1103
(g1093
g1093
F0.0
tp1104
aF0.0
g1101
S'2012-03-02 10:35:55'
p1105
I0
F0.0
F0.0
tp1106
a((lp1107
(g1093
g1093
F0.0
tp1108
aF0.0
g1105
S'2012-03-02 10:37:55'
p1109
I0
F0.0
F0.0
tp1110
a((lp1111
(g1093
g1093
F0.0
tp1112
aF0.0
g1109
S'2012-03-02 10:38:55'
p1113
I0
F0.0
F0.0
tp1114
a((lp1115
(g1093
g1093
F0.0
tp1116
aF0.0
g1113
S'2012-03-02 10:41:55'
p1117
I0
F0.0
F0.0
tp1118
a((lp1119
(g1093
g1093
F0.0
tp1120
aF0.0
g1117
S'2012-03-02 10:43:55'
p1121
I0
F0.0
F0.0
tp1122
a((lp1123
(g1093
g1093
F0.0
tp1124
aF0.0
g1121
S'2012-03-02 10:45:55'
p1125
I0
F0.0
F0.0
tp1126
a((lp1127
(g1093
g1093
F0.0
tp1128
aF0.0
g1125
S'2012-03-02 10:46:38'
p1129
I0
F0.0
F0.0
tp1130
a((lp1131
(g1093
g1093
F0.0
tp1132
aF0.0
g1129
S'2012-03-02 10:50:39'
p1133
I0
F0.0
F0.0
tp1134
a((lp1135
(g1093
g1093
F0.0
tp1136
aF0.0
g1133
S'2012-03-02 10:52:39'
p1137
I0
F0.0
F0.0
tp1138
a((lp1139
(g1093
g1093
F0.0
tp1140
aF0.0
g1137
S'2012-03-02 10:53:39'
p1141
I0
F0.0
F0.0
tp1142
a((lp1143
(g1093
g187
F559.8927458584624
tp1144
a(g187
g189
F304.77298423724176
tp1145
a(g189
S'196'
p1146
F208.72880849237106
tp1147
a(g1146
S'220'
p1148
F611.7560822228065
tp1149
a(g1148
S'359'
p1150
F423.40012907983873
tp1151
a(g1150
g90
F368.9484986175782
tp1152
a(g90
g92
F175.03635260490466
tp1153
a(g92
g94
F401.59962843252373
tp1154
a(g94
g96
F749.9190888032648
tp1155
a(g96
g98
F1654.504702992569
tp1156
a(g98
g100
F899.3736486026992
tp1157
a(g100
g102
F502.52151206068487
tp1158
a(g102
g104
F343.4160234801613
tp1159
a(g104
g106
F505.9919712639641
tp1160
a(g106
g216
F522.2079091612247
tp1161
a(g216
g218
F348.33486400960794
tp1162
a(g218
g220
F336.87317808984017
tp1163
a(g220
g222
F516.3741780275716
tp1164
a(g222
g224
F2128.2368240663845
tp1165
a(g224
g807
F373.65454097386885
tp1166
a(g807
g809
F276.60213113766173
tp1167
a(g809
S'271'
p1168
F145.7434125243181
tp1169
a(g1168
S'1072'
p1170
F455.13887535379115
tp1171
a(g1170
S'1137'
p1172
F827.5221670782628
tp1173
a(g1172
S'1303'
p1174
F725.1210142806609
tp1175
a(g1174
g239
F248.76531311149313
tp1176
aF683.2723597977861
g1141
S'2012-03-02 10:54:56'
p1177
I0
F14614.436584563757
F2007.8453770733379
tp1178
a((lp1179
(g257
g239
F641.8144065520473
tp1180
a(g239
S'1382'
p1181
F269.5278135383138
tp1182
a(g1181
g265
F276.49373212806563
tp1183
aF40.341598377229595
g1177
S'2012-03-02 10:56:42'
p1184
I38
F1187.8359522184269
F611.9082651743923
tp1185
a((lp1186
(g270
g265
F723.1493424152146
tp1187
a(g265
S'1382'
p1188
F446.6556103196644
tp1189
a(g1188
S'1264'
p1190
F491.1492433133898
tp1191
a(g1190
S'1402'
p1192
F228.23448105151797
tp1193
a(g1192
S'451'
p1194
F391.4745659135401
tp1195
a(g1194
S'99'
p1196
F133.0107977283085
tp1197
aF78.28132024026927
g1184
S'2012-03-02 10:58:33'
p1198
I0
F2413.6740407416355
F297.0577614649877
tp1199
a((lp1200
(S'451'
p1201
g1196
F767.6573520939792
tp1202
a(g1196
S'1345'
p1203
F384.78659929766803
tp1204
a(g1203
S'1330'
p1205
F225.3777301642604
tp1206
a(g1205
S'1389'
p1207
F389.4707510404453
tp1208
a(g1207
S'1310'
p1209
F319.02403759519916
tp1210
a(g1209
g287
F203.52950853373446
tp1211
aF84.98397446815495
g1198
S'2012-03-02 11:00:10'
p1212
I37
F2289.8459787252864
F282.4058516803311
tp1213
a((lp1214
(S'1310'
p1215
g287
F522.5535460889197
tp1216
a(g287
g298
F389.4707510404453
tp1217
a(g298
g300
F225.3777301642604
tp1218
a(g300
S'1329'
p1219
F123.44458332342133
tp1220
aF75.65079663702281
g1212
S'2012-03-02 11:01:10'
p1221
I38
F1260.8466106170467
F684.1391773276628
tp1222
a((lp1223
(S'1345'
p1224
g1219
F583.1472819936228
tp1225
a(g1219
S'1326'
p1226
F228.31950497932885
tp1227
a(g1226
S'1396'
p1228
F432.74580325485505
tp1229
a(g1228
S'1333'
p1230
F29.280016002750944
tp1231
aF76.40955637383345
g1221
S'2012-03-02 11:02:10'
p1232
I57
F1273.4926062305576
F660.1330048854761
tp1233
a((lp1234
(S'1396'
p1235
g1230
F215.00729703846147
tp1236
a(g1230
S'1309'
p1237
F324.0115985246878
tp1238
a(g1237
S'1341'
p1239
F406.3068716365366
tp1240
a(g1239
S'1369'
p1241
F778.4408342670922
tp1242
a(g1241
S'1290'
p1243
F395.0942341200572
tp1244
a(g1243
S'1338'
p1245
F47.123477993470644
tp1246
aF34.35041202153789
g1232
S'2012-03-02 11:05:57'
p1247
I42
F2165.9843135803058
F1486.3920711131807
tp1248
a((lp1249
(S'1290'
p1250
g1245
F775.101145905905
tp1251
a(g1245
S'1290'
p1252
F727.9776679126747
tp1253
a(g1252
S'1349'
p1254
F506.19706899607576
tp1255
a(g1254
S'1400'
p1256
F383.02571413859636
tp1257
aF64.75402818820831
g1247
S'2012-03-02 11:08:10'
p1258
I0
F2392.3015969532516
F1320.0424729718923
tp1259
a((lp1260
(S'1349'
p1261
g1256
F2.418370330629642
tp1262
a(g1256
g419
F867.3349765185505
tp1263
a(g419
S'1293'
p1264
F302.09538002794335
tp1265
aF70.3109236126274
g1258
S'2012-03-02 11:09:10'
p1266
I35
F1171.8487268771235
F1172.3200047778096
tp1267
a((lp1268
(S'1260'
p1269
g1264
F722.014351434273
tp1270
a(g1264
S'347'
p1271
F130.53839448969572
tp1272
aF51.15316475543813
g1266
S'2012-03-02 11:10:10'
p1273
I77
F852.5527459239687
F725.9301597453368
tp1274
a((lp1275
(S'1293'
p1276
g1271
F921.0325184742655
tp1277
a(g1271
S'1293'
p1278
F790.4941239860115
tp1279
a(g1278
S'1274'
p1280
F128.01992728963475
tp1281
aF1655.5919127749205
g1273
S'2012-03-02 11:10:14'
p1282
I0
F1839.5465697499117
F2.6092895095893325
tp1283
a((lp1284
(g1276
g1280
F650.5312194241037
tp1285
a(g1280
S'1244'
p1286
F365.7436874203932
tp1287
a(g1286
S'1340'
p1288
F423.17568466262367
tp1289
aF50.80413852378072
g1282
S'2012-03-02 11:11:56'
p1290
I0
F1439.4505915071204
F593.1255090765299
tp1291
a((lp1292
(S'1244'
p1293
g1288
F857.4217279443336
tp1294
a(g1288
g526
F434.2460432841478
tp1295
a(g526
S'1274'
p1296
F365.7436874203932
tp1297
a(g1296
g1286
F312.6076693851202
tp1298
aF118.20114768203968
g1290
S'2012-03-02 11:12:56'
p1299
I5
F1970.0191280339945
F369.9780172547105
tp1300
a((lp1301
(S'1274'
p1302
g1286
F53.13601803536028
tp1303
a(g1286
g1296
F365.7436874203932
tp1304
a(g1296
S'1368'
p1305
F505.81195065912954
tp1306
a(g1305
S'1357'
p1307
F72.26446614647216
tp1308
aF44.86302550176099
g1299
S'2012-03-02 11:14:16'
p1309
I0
F996.9561222613552
F535.6064032281213
tp1310
a((lp1311
(S'1368'
p1312
g1307
F739.3915875118284
tp1313
a(g1307
S'1374'
p1314
F422.86218447973016
tp1315
a(g1314
S'1337'
p1316
F87.0041805344293
tp1317
aF34.59483560841198
g1309
S'2012-03-02 11:16:26'
p1318
I38
F1249.2579525259878
F770.1994711547326
tp1319
a((lp1320
(S'1374'
p1321
g1316
F107.48808124048324
tp1322
a(g1316
S'1379'
p1323
F435.7628592679397
tp1324
a(g1323
g909
F169.6879575593227
tp1325
a(g909
g911
F215.9995211997082
tp1326
a(g911
g477
F29.897866288142616
tp1327
aF71.91272141666974
g1318
S'2012-03-02 11:17:14'
p1328
I40
F958.8362855555964
F563.885383440167
tp1329
a((lp1330
(S'1287'
p1331
g1331
F0.0
tp1332
aF8.105421337481761
g1328
S'2012-03-02 11:17:49'
p1333
I0
F78.80270744773934
F78.77913409928516
tp1334
a((lp1335
(g1331
g477
F452.0365427453058
tp1336
a(g477
g914
F1389.6055465674801
tp1337
a(g914
g916
F1975.1112733847385
tp1338
a(g916
g918
F569.3222432001658
tp1339
a(g918
g920
F271.20428853774837
tp1340
a(g920
g922
F71.82627140879131
tp1341
aF53.202444365747596
g1333
S'2012-03-02 11:23:09'
p1342
I44
F4729.10616584423
F4297.939514786865
tp1343
a((lp1344
(S'296'
p1345
g922
F827.2531057198075
tp1346
a(g922
g924
F342.83629405796165
tp1347
a(g924
g926
F776.5288468757814
tp1348
a(g926
g928
F1348.1771778466043
tp1349
a(g928
g930
F139.9381422132976
tp1350
aF2.993956619895503
g1342
S'2012-03-02 12:31:59'
p1351
I74
F3434.733566713452
F2966.613847804895
tp1352
a((lp1353
(g935
g930
F1488.1153197104395
tp1354
a(g930
g928
F1348.1771778466043
tp1355
a(g928
g938
F1958.8057646923883
tp1356
a(g938
g948
F259.32794381064514
tp1357
aF46.65624190209302
g1351
S'2012-03-02 12:38:29'
p1358
I0
F5054.426206060078
F1727.5059159071998
tp1359
a((lp1360
(g945
g945
F0.0
tp1361
aF31.428360233409396
g1358
S'2012-03-02 12:39:29'
p1362
I42
F523.8060038901566
F523.3872732063018
tp1363
a((lp1364
(g945
g945
F0.0
tp1365
aF8.880912545223712
g1362
S'2012-03-02 12:40:15'
p1366
I33
F113.47832696674742
F113.42439807185143
tp1367
a((lp1368
(g945
g948
F22.311714919542894
tp1369
a(g948
g954
F723.3936380880388
tp1370
a(g954
g956
F169.98174436783808
tp1371
aF27.47061292126259
g1366
S'2012-03-02 12:42:15'
p1372
I33
F915.6870973754196
F992.4717195421679
tp1373
a((lp1374
(S'257'
p1375
g956
F326.13304052496136
tp1376
a(g956
S'257'
p1377
F317.60964301749726
tp1378
aF12.594965547569842
g1372
S'2012-03-02 12:45:19'
p1379
I12
F643.7426835424586
F385.0641054513986
tp1380
a((lp1381
(g963
g1377
F178.50514187610258
tp1382
a(g1377
S'197'
p1383
F723.3936380880388
tp1384
a(g1383
S'192'
p1385
F167.30034326656227
tp1386
aF64.15194739384222
g1379
S'2012-03-02 12:46:19'
p1387
I59
F1069.1991232307037
F735.1419621023514
tp1388
a((lp1389
(S'197'
p1390
g1385
F522.9450153888155
tp1391
a(g1385
g940
F1958.8057646923883
tp1392
a(g940
g930
F1348.1771778466043
tp1393
a(g930
S'163'
p1394
F776.5288468757814
tp1395
a(g1394
S'50'
p1396
F342.83629405796165
tp1397
a(g1396
S'296'
p1398
F899.0793771111934
tp1399
a(g1398
S'358'
p1400
F271.20428853774837
tp1401
a(g1400
S'146'
p1402
F569.3222432001658
tp1403
a(g1402
S'428'
p1404
F1975.1112733847385
tp1405
a(g1404
S'1236'
p1406
F1389.6055465674801
tp1407
a(g1406
g509
F500.94138389154773
tp1408
a(g509
S'1253'
p1409
F215.9995211997082
tp1410
a(g1409
S'1379'
p1411
F169.6879575593227
tp1412
a(g1411
S'1399'
p1413
F365.18936542563927
tp1414
a(g1413
S'1327'
p1415
F433.91775760016844
tp1416
a(g1415
S'1358'
p1417
F197.1367679524997
tp1418
a(g1417
S'243'
p1419
F820.1452521497176
tp1420
a(g1419
g897
F497.6064972180614
tp1421
a(g897
S'355'
p1422
F770.5077146010468
tp1423
a(g1422
S'367'
p1424
F720.0000486655169
tp1425
a(g1424
S'119'
p1426
F713.9276386045469
tp1427
a(g1426
S'18'
p1428
F613.0875607873952
tp1429
a(g1428
S'75'
p1430
F607.417478032252
tp1431
a(g1430
S'158'
p1432
F1096.7354764412723
tp1433
a(g1432
S'398'
p1434
F21.25620556046093
tp1435
aF355.9434490670407
g1387
S'2012-03-02 12:49:19'
p1436
I46
F17797.172453352036
F2003.5848655743673
tp1437
a((lp1438
(S'158'
p1439
g1434
F959.2930001005361
tp1440
a(g1434
g885
F41.463169815728754
tp1441
aF52.213365386935564
g1436
S'2012-03-02 12:50:28'
p1442
I24
F1000.7561699162649
F919.3646449353311
tp1443
a((lp1444
(g359
g885
F939.086035866615
tp1445
a(g885
g1434
F980.5492056374832
tp1446
a(g1434
g362
F581.9794787312672
tp1447
a(g362
g364
F96.02023021019455
tp1448
aF107.48834277705767
g1442
S'2012-03-02 12:51:55'
p1449
I0
F2597.63495044556
F463.50343463635915
tp1450
a((lp1451
(g369
g364
F1791.2414908746618
tp1452
a(g364
g371
F1695.221260666139
tp1453
a(g371
S'398'
p1454
F196.15471150406674
tp1455
aF236.73969405288435
g1449
S'2012-03-02 12:52:51'
p1456
I33
F3682.6174630448677
F100.54705558651355
tp1457
a((lp1458
(g369
g1454
F385.8247672273558
tp1459
a(g1454
g336
F1.9053741398584754
tp1460
aF37.72509483572895
g1456
S'2012-03-02 12:53:28'
p1461
I33
F387.73014136721423
F307.26715106840624
tp1462
a((lp1463
(g359
g336
F1118.130721281497
tp1464
a(g336
g338
F14.227502450762382
tp1465
aF42.463433389959725
g1461
S'2012-03-02 12:55:04'
p1466
I0
F1132.3582237322594
F1102.1718842211205
tp1467
a((lp1468
(g334
g338
F1117.6527876568982
tp1469
a(g338
S'406'
p1470
F1280.716757645314
tp1471
a(g1470
S'37'
p1472
F227.78314974168813
tp1473
aF59.8363905199876
g1466
S'2012-03-02 12:57:42'
p1474
I79
F2626.1526950439
F2169.988402495408
tp1475
a((lp1476
(g235
g235
F0.0
tp1477
aF14.134688970878667
g1474
S'2012-03-02 12:58:43'
p1478
I24
F239.5044520065552
F239.74545003796257
tp1479
a((lp1480
(g235
g1472
F698.1741321314612
tp1481
a(g1472
S'231'
p1482
F1230.1532257749107
tp1483
a(g1482
g807
F373.65454097386885
tp1484
a(g807
S'231'
p1485
F377.321303726676
tp1486
aF78.41863032020245
g1478
S'2012-03-02 13:00:46'
p1487
I40
F2679.303202606917
F1868.1063449562455
tp1488
a((lp1489
(g807
g1485
F3.666762752907523
tp1490
a(g1485
S'101'
p1491
F2128.2368240663845
tp1492
a(g1491
S'923'
p1493
F17.545983830755283
tp1494
aF54.87956350595866
g1487
S'2012-03-02 13:03:07'
p1495
I0
F2149.4495706500475
F2144.3141919819122
tp1496
a((lp1497
(S'101'
p1498
g1493
F947.9065239056074
tp1499
a(g1493
g795
F930.3605400765287
tp1500
a(g795
S'307'
p1501
F18.239250883635002
tp1502
aF126.43375432438472
g1495
S'2012-03-02 13:04:01'
p1503
I0
F1896.506314865771
F60.80988028983123
tp1504
a((lp1505
(g1498
g1501
F498.1349271497244
tp1506
a(g1501
S'12'
p1507
F336.87317808984017
tp1508
a(g1507
S'1104'
p1509
F340.35709427387536
tp1510
a(g1509
S'12'
p1511
F347.715049356211
tp1512
aF91.38481493217907
g1503
S'2012-03-02 13:05:01'
p1513
I27
F1523.080248869651
F793.0635927836898
tp1514
a((lp1515
(S'1104'
p1516
g1511
F7.357955082441221
tp1517
a(g1511
g220
F336.87317808984017
tp1518
a(g220
g1507
F366.38234003690405
tp1519
aF232.56440941391529
g1513
S'2012-03-02 13:05:12'
p1520
I0
F710.6134732091855
F72.22915089858701
tp1521
a((lp1522
(S'307'
p1523
g1507
F29.509161951487506
tp1524
a(g1507
S'324'
p1525
F348.33486400960794
tp1526
a(g1525
S'233'
p1527
F522.2079091612247
tp1528
a(g1527
g117
F505.9919712639641
tp1529
a(g117
g119
F343.4160234801613
tp1530
a(g119
g121
F502.52151206068487
tp1531
a(g121
g161
F85.01224257499776
tp1532
aF133.54249625726445
g1520
S'2012-03-02 13:06:15'
p1533
I40
F2336.993684502128
F801.1488028788326
tp1534
a((lp1535
(g128
g161
F814.3614061005437
tp1536
a(g161
g100
F899.3736486026992
tp1537
a(g100
g102
F502.52151206068487
tp1538
a(g102
g121
F4.1461301257349
tp1539
aF119.30521953436994
g1533
S'2012-03-02 13:07:22'
p1540
I0
F2220.402696889663
F507.1023194364092
tp1541
a((lp1542
(S'371'
p1543
g121
F498.3753819362743
tp1544
a(g121
g102
F502.52151206068487
tp1545
a(g102
S'414'
p1546
F739.6760747221767
tp1547
a(g1546
S'929'
p1548
F303.12038890948725
tp1549
a(g1548
S'842'
p1550
F138.91582185729666
tp1551
a(g1550
S'1115'
p1552
F66.90960696823575
tp1553
aF35.36361411019634
g1540
S'2012-03-02 13:11:11'
p1554
I0
F2249.518786454156
F902.6976529136624
tp1555
a((lp1556
(S'842'
p1557
g1552
F576.522536554395
tp1558
a(g1552
S'842'
p1559
F509.6129296096181
tp1560
a(g1559
S'1027'
p1561
F108.42347341772006
tp1562
a(g1561
S'887'
p1563
F974.3320508593303
tp1564
a(g1563
S'1189'
p1565
F56.831059310482196
tp1566
aF133.54332298509271
g1554
S'2012-03-02 13:12:11'
p1567
I20
F2225.722049751545
F588.3829792490167
tp1568
a((lp1569
(S'887'
p1570
g1565
F268.71510377336983
tp1571
a(g1565
S'887'
p1572
F211.8840444636607
tp1573
a(g1572
S'989'
p1574
F399.47647263715123
tp1575
aF52.80453725245091
g1567
S'2012-03-02 13:13:11'
p1576
I11
F880.0756208741818
F405.9407217204902
tp1577
a((lp1578
(g1570
g1574
F291.43986581363754
tp1579
a(g1574
S'887'
p1580
F4.020403724747001
tp1581
aF1.1045243721061102
g1576
S'2012-03-02 13:29:14'
p1582
I50
F295.4602695383845
F288.3064245067264
tp1583
a((lp1584
(S'989'
p1585
g1580
F686.895934631631
tp1586
a(g1580
S'1027'
p1587
F974.3320508593303
tp1588
a(g1587
S'842'
p1589
F108.42347341772006
tp1590
a(g1589
S'929'
p1591
F138.91582185729666
tp1592
a(g1591
S'414'
p1593
F303.12038890948725
tp1594
a(g1593
S'371'
p1595
F739.6760747221767
tp1596
a(g1595
g121
F502.52151206068487
tp1597
a(g121
g161
F899.3736486026992
tp1598
a(g161
g176
F1654.504702992569
tp1599
a(g176
S'348'
p1600
F749.9190888032648
tp1601
a(g1600
g96
F359.7382615493715
tp1602
aF36.088331620087935
g1582
S'2012-03-02 13:41:04'
p1603
I48
F7117.420958406232
F5280.211404429629
tp1604
a((lp1605
(S'348'
p1606
g96
F1109.6573503270108
tp1607
a(g96
g1600
F749.9190888032648
tp1608
a(g1600
S'423'
p1609
F401.7062149289834
tp1610
a(g1609
S'27'
p1611
F360.14779166603097
tp1612
a(g1611
S'107'
p1613
F112.12366673347017
tp1614
aF134.8054082856375
g1603
S'2012-03-02 13:42:17'
p1615
I0
F2733.5541124587603
F761.9449476498144
tp1616
a((lp1617
(S'27'
p1618
g1613
F1265.8178084365945
tp1619
a(g1613
g992
F269.0371341692761
tp1620
a(g992
g1003
F837.7247684747507
tp1621
a(g1003
S'312'
p1622
F44.432163803848574
tp1623
aF129.86929476991182
g1615
S'2012-03-02 13:43:24'
p1624
I51
F2417.01187488447
F542.9468557989773
tp1625
a((lp1626
(S'465'
p1627
g1622
F430.7212774185389
tp1628
a(g1622
S'465'
p1629
F475.1534412115984
tp1630
a(g1629
S'222'
p1631
F661.4755210137
tp1632
a(g1631
S'465'
p1633
F205.60853626573845
tp1634
aF31.754485538678967
g1624
S'2012-03-02 13:46:45'
p1635
I0
F1772.9587759095757
F5.460945313079587
tp1636
a((lp1637
(S'222'
p1638
g1638
F0.0
tp1639
aF0.90520703379392
g1635
S'2012-03-02 13:46:46'
p1640
I0
F0.2514463982760889
F0.8355960851726397
tp1641
a((lp1642
(g1638
g1633
F455.61553836314897
tp1643
a(g1633
g1631
F661.4755210137
tp1644
a(g1631
S'148'
p1645
F469.607614717815
tp1646
a(g1645
S'251'
p1647
F463.29562876543946
tp1648
aF461.2487181435234
g1640
S'2012-03-02 13:47:02'
p1649
I0
F2049.9943028601037
F11.37638805362132
tp1650
a((lp1651
(S'148'
p1652
g1647
F804.7627816584255
tp1653
a(g1647
S'308'
p1654
F403.5816978228858
tp1655
a(g1654
S'226'
p1656
F350.99273546354016
tp1657
a(g1656
S'312'
p1658
F203.12191604004383
tp1659
a(g1658
g1629
F475.1534412115984
tp1660
a(g1629
g1009
F63.226222139851004
tp1661
aF36.329033594784384
g1649
S'2012-03-02 13:50:50'
p1662
I0
F2300.8387943363446
F4.203168226666443
tp1663
a((lp1664
(g1627
g1009
F900.9509905585868
tp1665
a(g1009
g1003
F837.7247684747507
tp1666
a(g1003
g1631
F661.4755210137
tp1667
a(g1631
g1645
F469.607614717815
tp1668
a(g1645
S'222'
p1669
F460.5021103737646
tp1670
aF62.44239384634908
g1662
S'2012-03-02 13:54:02'
p1671
I0
F3330.2610051386173
F10.404772163495538
tp1672
a((lp1673
(g1652
g1669
F9.105504346292784
tp1674
a(g1669
g1633
F661.4755210137
tp1675
a(g1633
g1009
F71.83536012033645
tp1676
aF44.54498312881976
g1671
S'2012-03-02 13:55:02'
p1677
I0
F742.4163854803293
F0.9765001490759319
tp1678
a((lp1679
(g1627
g1009
F909.5601285308205
tp1680
a(g1009
g1003
F837.7247684747507
tp1681
a(g1003
g1622
F475.1534412115984
tp1682
a(g1622
g1629
F497.0198627945529
tp1683
aF71.46021550103798
g1677
S'2012-03-02 13:57:19'
p1684
I0
F2719.458201011723
F431.1606803595782
tp1685
a((lp1686
(S'312'
p1687
g1629
F21.86642158915689
tp1688
a(g1629
g1009
F837.7247684747507
tp1689
a(g1009
g1018
F269.0371341692761
tp1690
a(g1018
g1041
F327.4845229639087
tp1691
a(g1041
g1043
F204.10192602860755
tp1692
a(g1043
S'76'
p1693
F359.61768621072923
tp1694
aF60.59497378309288
g1684
S'2012-03-02 13:59:19'
p1695
I31
F2019.8324594364294
F966.2666165122407
tp1696
a((lp1697
(S'225'
p1698
g1693
F698.0136001134471
tp1699
a(g1693
g51
F209.84399480520491
tp1700
a(g51
g53
F213.86956785060167
tp1701
a(g53
g55
F161.32840893425416
tp1702
a(g55
g57
F395.85993435963036
tp1703
aF53.96514126631516
g1695
S'2012-03-02 14:01:11'
p1704
I16
F1678.915506063138
F600.2758449692625
tp1705
a((lp1706
(g62
g57
F263.89317808207556
tp1707
a(g57
S'240'
p1708
F169.08417818446196
tp1709
a(g1708
S'95'
p1710
F214.6022011136531
tp1711
aF93.25145626274745
g1704
S'2012-03-02 14:01:36'
p1712
I0
F647.5795573801906
F40.260685466895275
tp1713
a((lp1714
(S'240'
p1715
g1710
F342.41103200700576
tp1716
a(g1710
S'46'
p1717
F169.5426482928923
tp1718
a(g1717
g990
F476.8074148105531
tp1719
aF25.793767698533507
g1712
S'2012-03-02 14:03:54'
p1720
I33
F988.7610951104512
F635.3668910858289
tp1721
a((lp1722
(S'46'
p1723
g990
F149.32289186633122
tp1724
a(g990
g1020
F185.99425882035192
tp1725
aF20.11902904120099
g1720
S'2012-03-02 14:04:54'
p1726
I31
F335.31715068668314
F334.0873154336548
tp1727
a((lp1728
(g1025
g1020
F4594.156635558157
tp1729
a(g1020
S'180'
p1730
F232.33275572458027
tp1731
a(g1730
S'318'
p1732
F82.82675595211529
tp1733
a(g1732
S'257'
p1734
F120.4073126418999
tp1735
a(g1734
g956
F496.1147848574999
tp1736
a(g956
g958
F297.8794616636202
tp1737
a(g958
g965
F601.6634620718969
tp1738
a(g965
g967
F280.97647332925493
tp1739
a(g967
g969
F986.920472794794
tp1740
a(g969
g3
F366.4817423643772
tp1741
a(g3
S'34'
p1742
F219.55797221061383
tp1743
aF80.55552482434517
g1726
S'2012-03-02 14:11:04'
p1744
I62
F8279.31782916881
F1967.0634154045974
tp1745
a((lp1746
(S'105'
p1747
g1742
F645.9160575047823
tp1748
a(g1742
S'171'
p1749
F361.50220986718784
tp1750
a(g1749
S'79'
p1751
F22.370307989203678
tp1752
aF30.893657260835216
g1744
S'2012-03-02 14:13:04'
p1753
I61
F1029.7885753611738
F909.106238448281
tp1754
a((lp1755
(S'171'
p1756
g1751
F281.2133467542486
tp1757
a(g1751
S'171'
p1758
F292.5917724961958
tp1759
aF43.951030410672345
g1753
S'2012-03-02 14:13:51'
p1760
I42
F573.8051192504445
F12.091000167794887
tp1761
a((lp1762
(g1093
g1758
F33.74873373193725
tp1763
a(g1758
S'311'
p1764
F197.878605692179
tp1765
a(g1764
S'444'
p1766
F119.87242291813655
tp1767
a(g1766
g41
F192.01126587807087
tp1768
a(g41
g43
F158.54371200493
tp1769
a(g43
g45
F186.91338092701662
tp1770
a(g45
g47
F399.4579415901899
tp1771
aF34.87469042009666
g1760
S'2012-03-02 14:16:04'
p1772
I31
F1288.42606274246
F919.6080936810374
tp1773
a((lp1774
(S'85'
p1775
g47
F165.62908550781515
tp1776
a(g47
S'143'
p1777
F296.1322850478427
tp1778
a(g1777
g986
F313.46295524232704
tp1779
aF111.63230291490983
g1772
S'2012-03-02 14:16:29'
p1780
I59
F775.2243257979849
F186.12959405080872
tp1781
a((lp1782
(S'143'
p1783
g986
F92.4255326739957
tp1784
a(g986
g988
F204.10192602860755
tp1785
a(g988
g75
F146.62123309864816
tp1786
a(g75
g55
F161.32840893425416
tp1787
a(g55
g57
F361.9623128842623
tp1788
aF144.9659120429652
g1780
S'2012-03-02 14:16:53'
p1789
I0
F966.439413619768
F60.298007051074975
tp1790
a((lp1791
(g62
g57
F493.9290691489698
tp1792
a(g57
g64
F131.96675629555088
tp1793
a(g64
g66
F161.32840893425416
tp1794
a(g66
S'461'
p1795
F213.86956785060167
tp1796
a(g1795
S'76'
p1797
F209.84399480520491
tp1798
a(g1797
S'225'
p1799
F10.34788523303023
tp1800
aF41.87265196346096
g1789
S'2012-03-02 14:18:38'
p1801
I33
F1221.2856822676115
F194.49417805531343
tp1802
a((lp1803
(S'76'
p1804
g1799
F348.7437991876772
tp1805
a(g1799
g1693
F338.3959139553396
tp1806
a(g1693
S'328'
p1807
F564.5510797903912
tp1808
a(g1807
g191
F304.77298423724176
tp1809
a(g191
g198
F766.4395078482208
tp1810
a(g198
g187
F203.58885267450654
tp1811
aF32.253091119489916
g1801
S'2012-03-02 14:23:20'
p1812
I12
F2526.492137693377
F1280.219382362014
tp1813
a((lp1814
(g1093
g1093
F0.0
tp1815
aF0.0
g1812
S'2012-03-02 14:25:20'
p1816
I0
F0.0
F0.0
tp1817
a((lp1818
(g1093
g1093
F0.0
tp1819
aF0.0
g1816
S'2012-03-02 14:26:20'
p1820
I0
F0.0
F0.0
tp1821
a((lp1822
(g1093
g1093
F0.0
tp1823
aF0.0
g1820
S'2012-03-02 14:27:20'
p1824
I0
F0.0
F0.0
tp1825
a((lp1826
(g1093
g1093
F0.0
tp1827
aF0.0
g1824
S'2012-03-02 14:29:20'
p1828
I0
F0.0
F0.0
tp1829
a((lp1830
(g1093
g1093
F0.0
tp1831
aF0.0
g1828
S'2012-03-02 14:31:20'
p1832
I0
F0.0
F0.0
tp1833
a((lp1834
(g1093
g1093
F0.0
tp1835
aF0.0
g1832
S'2012-03-02 14:32:17'
p1836
I0
F0.0
F0.0
tp1837
a((lp1838
(g1093
g1093
F0.0
tp1839
aF0.0
g1836
S'2012-03-02 14:32:18'
p1840
I0
F0.0
F0.0
tp1841
a((lp1842
(g1093
g187
F562.8506552802237
tp1843
a(g187
g189
F304.77298423724176
tp1844
a(g189
g1146
F208.72880849237106
tp1845
a(g1146
g1148
F611.7560822228065
tp1846
a(g1148
g1150
F423.40012907983873
tp1847
a(g1150
g90
F368.9484986175782
tp1848
a(g90
g92
F175.03635260490466
tp1849
a(g92
g94
F401.59962843252373
tp1850
a(g94
g96
F749.9190888032648
tp1851
a(g96
g98
F1654.504702992569
tp1852
a(g98
g100
F899.3736486026992
tp1853
a(g100
g102
F502.52151206068487
tp1854
a(g102
g104
F343.4160234801613
tp1855
a(g104
g106
F505.9919712639641
tp1856
a(g106
g216
F522.2079091612247
tp1857
a(g216
g218
F348.33486400960794
tp1858
a(g218
g220
F336.87317808984017
tp1859
a(g220
g222
F516.3741780275716
tp1860
a(g222
g224
F2128.2368240663845
tp1861
a(g224
g226
F1230.1532257749107
tp1862
a(g226
g228
F709.895434390015
tp1863
a(g228
S'235'
p1864
F12.303502403157514
tp1865
aF252.1342856349055
g1840
S'2012-03-02 14:35:31'
p1866
I0
F13517.199202093545
F854.8760328031495
tp1867
a((lp1868
(g235
g1864
F1268.4132552657102
tp1869
a(g1864
g1470
F1280.716757645314
tp1870
a(g1470
g230
F30.318447170650224
tp1871
aF663.2867468781449
g1866
S'2012-03-02 14:35:45'
p1872
I0
F2579.4484600816745
F49.52990919790489
tp1873
a((lp1874
(g235
g230
F553.4590478479553
tp1875
a(g230
S'406'
p1876
F523.1406006777456
tp1877
a(g1876
g1864
F1280.716757645314
tp1878
a(g1864
g322
F382.2990862744564
tp1879
aF164.37692954672826
g1872
S'2012-03-02 14:36:45'
p1880
I20
F2739.6154924454713
F888.7998085102554
tp1881
a((lp1882
(g327
g322
F1485.7243707589116
tp1883
a(g322
g329
F1116.2253471445076
tp1884
a(g329
g885
F980.5492056374832
tp1885
a(g885
g1434
F336.9709426435679
tp1886
aF31.495739996125206
g1880
S'2012-03-02 14:44:13'
p1887
I68
F3919.46986618447
F3245.623935834092
tp1888
a((lp1889
(g1439
g1434
F643.578263243584
tp1890
a(g1434
g336
F166.8924965007854
tp1891
aF48.62824558466217
g1887
S'2012-03-02 14:45:13'
p1892
I22
F810.4707597443694
F811.0217557571599
tp1893
a((lp1894
(g359
g336
F949.3328508511313
tp1895
a(g336
g338
F425.85579909154995
tp1896
aF19.263342956395537
g1892
S'2012-03-02 14:49:30'
p1897
I83
F1375.1886499426812
F1374.0119040703025
tp1898
a((lp1899
(g334
g338
F677.5694865125764
tp1900
a(g338
g322
F1103.42528522692
tp1901
a(g322
g329
F427.81420494814904
tp1902
aF132.52853860125876
g1897
S'2012-03-02 14:50:30'
p1903
I16
F2208.8089766876456
F100.73875161751964
tp1904
a((lp1905
(g334
g334
F0.0
tp1906
aF14.02269455534982
g1903
S'2012-03-02 14:51:27'
p1907
I18
F222.02599712637218
F234.9266657243817
tp1908
a((lp1909
(g334
g329
F1322.013554632857
tp1910
a(g329
g336
F1116.2253471445076
tp1911
a(g336
S'350'
p1912
F3.1235332509553912
tp1913
aF85.32917248642673
g1907
S'2012-03-02 14:53:10'
p1914
I5
F2441.3624350283203
F295.2361238666998
tp1915
a((lp1916
(g334
g1912
F571.2093824043864
tp1917
a(g1912
S'172'
p1918
F1068.9242700134396
tp1919
a(g1918
S'128'
p1920
F673.8897918142452
tp1921
a(g1920
S'463'
p1922
F579.5406775008636
tp1923
a(g1922
g1876
F523.1406006777456
tp1924
a(g1876
g1472
F356.02631069122776
tp1925
aF57.30730683192772
g1914
S'2012-03-02 14:57:07'
p1926
I0
F3772.731033101908
F1546.0573848918314
tp1927
a((lp1928
(g235
g1472
F1065.921744761398
tp1929
a(g1472
g228
F709.895434390015
tp1930
a(g228
g1864
F1280.716757645314
tp1931
a(g1864
g322
F17.083251531511443
tp1932
aF92.20851564984716
g1926
S'2012-03-02 14:59:07'
p1933
I7
F3073.6171883282386
F946.9903217978631
tp1934
a((lp1935
(g327
g322
F1086.342033719672
tp1936
a(g322
g338
F1103.42528522692
tp1937
a(g338
g1470
F411.74350013787796
tp1938
aF36.30015096396935
g1933
S'2012-03-02 15:03:25'
p1939
I0
F2601.5108190844703
F433.9084332877452
tp1940
a((lp1941
(g327
g327
F0.0
tp1942
aF19.88495141290518
g1939
S'2012-03-02 15:05:25'
p1943
I38
F662.831713763506
F713.8520654865183
tp1944
a((lp1945
(g327
g1470
F1029.6285443307718
tp1946
a(g1470
g1472
F113.86230629992284
tp1947
aF68.60945103784168
g1943
S'2012-03-02 15:06:25'
p1948
I57
F1143.4908506306947
F915.4382023600773
tp1949
a((lp1950
(g235
g1472
F823.7577406109841
tp1951
a(g1472
g1482
F120.17592019905248
tp1952
aF56.6360196486022
g1948
S'2012-03-02 15:07:25'
p1953
I31
F943.9336608100366
F702.9753616842769
tp1954
a((lp1955
(S'37'
p1956
g1482
F1350.3291457355801
tp1957
a(g1482
g798
F431.4165089207828
tp1958
aF106.90473927938179
g1953
S'2012-03-02 15:08:25'
p1959
I46
F1781.745654656363
F918.7085227342116
tp1960
a((lp1961
(S'231'
p1962
g798
F1227.0047523397845
tp1963
a(g798
g800
F795.5882439156834
tp1964
a(g800
g807
F373.65454097386885
tp1965
a(g807
g816
F1185.6258624438292
tp1966
a(g816
g831
F698.4005052534098
tp1967
a(g831
g237
F41.211875568817526
tp1968
aF85.95220336896917
g1959
S'2012-03-02 15:11:26'
p1969
I46
F4321.485780495394
F1528.7090123796947
tp1970
a((lp1971
(S'463'
p1972
g237
F957.9573125124849
tp1973
a(g237
g860
F916.7454369448138
tp1974
a(g860
g866
F260.2937372609603
tp1975
aF128.09978920309555
g1969
S'2012-03-02 15:12:26'
p1976
I20
F2134.996486718259
F263.1178419446858
tp1977
a((lp1978
(g1972
g866
F319.2469402965528
tp1979
a(g866
g868
F83.25864194953009
tp1980
aF19.320267947811978
g1976
S'2012-03-02 15:13:41'
p1981
I53
F402.5055822460829
F565.4675227881085
tp1982
a((lp1983
(S'128'
p1984
g1984
F0.0
tp1985
aF0.04421633093902497
g1981
S'2012-03-02 15:13:51'
p1986
I0
F0.12282314149729157
F8.194306957859737
tp1987
a((lp1988
(g1984
g868
F590.7539730449724
tp1989
a(g868
g350
F68.55627066841068
tp1990
aF13.961863984518702
g1986
S'2012-03-02 15:16:41'
p1991
I0
F659.3102437133831
F533.6474788724036
tp1992
a((lp1993
(g320
g350
F1137.480540583098
tp1994
a(g350
g1918
F1068.9242700134396
tp1995
a(g1918
S'99'
p1996
F970.6293936388311
tp1997
a(g1996
g313
F233.7451025803611
tp1998
aF314.84116678299046
g1991
S'2012-03-02 15:17:20'
p1999
I11
F3410.77930681573
F268.1565805971881
tp2000
a((lp2001
(g309
g313
F736.8842910589892
tp2002
a(g313
g1996
F970.6293936388311
tp2003
a(g1996
g1203
F384.78659929766803
tp2004
a(g1203
g1205
F225.3777301642604
tp2005
a(g1205
S'1326'
p2006
F691.146827141222
tp2007
a(g2006
S'1343'
p2008
F335.7915781764397
tp2009
a(g2008
S'1239'
p2010
F393.6433366208233
tp2011
a(g2010
S'1385'
p2012
F284.15816107859195
tp2013
aF62.41682974929557
g1999
S'2012-03-02 15:21:12'
p2014
I0
F4022.4179171768255
F1584.114112095554
tp2015
a((lp2016
(S'1239'
p2017
g2012
F1058.400781362048
tp2018
a(g2012
S'1239'
p2019
F774.24262055248
tp2020
a(g2019
S'1341'
p2021
F696.5996653122756
tp2022
a(g2021
g1241
F348.7127956498148
tp2023
aF112.61566419951986
g2014
S'2012-03-02 15:22:44'
p2024
I0
F2877.9558628766185
F609.4756895866874
tp2025
a((lp2026
(S'1341'
p2027
g1241
F429.7280387511578
tp2028
a(g1241
g1243
F395.0942341200572
tp2029
a(g1243
S'1372'
p2030
F24.01279171346744
tp2031
aF50.930103875080945
g2024
S'2012-03-02 15:23:44'
p2032
I53
F848.8350645846824
F494.447875253354
tp2033
a((lp2034
(g1250
g2030
F644.0522356816525
tp2035
a(g2030
S'1246'
p2036
F401.2293386563323
tp2037
a(g2036
S'1369'
p2038
F651.4652151570776
tp2039
a(g2038
g1243
F186.2972207017067
tp2040
aF376.60880203935386
g2032
S'2012-03-02 15:24:02'
p2041
I12
F1883.0440101967692
F170.56388684153353
tp2042
a((lp2043
(S'1369'
p2044
g1243
F208.7970134359811
tp2045
a(g1243
S'1369'
p2046
F395.0942341200572
tp2047
a(g2046
S'1246'
p2048
F651.4652151570776
tp2049
a(g2048
S'1237'
p2050
F31.29579838804037
tp2051
aF15.543450134107927
g2041
S'2012-03-02 15:29:00'
p2052
I38
F1286.6522611011562
F692.0194957274477
tp2053
a((lp2054
(S'1246'
p2055
g2050
F764.5417957658119
tp2056
a(g2050
S'1386'
p2057
F400.05667678215144
tp2058
a(g2057
S'1295'
p2059
F329.92055347398576
tp2060
a(g2059
S'1395'
p2061
F75.25695082312785
tp2062
aF47.09327930535232
g2052
S'2012-03-02 15:31:00'
p2063
I9
F1569.7759768450771
F1419.039699913561
tp2064
a((lp2065
(S'1295'
p2066
g2061
F735.852351291216
tp2067
a(g2061
S'1377'
p2068
F573.4757749753169
tp2069
a(g2068
S'1240'
p2070
F450.20487229242497
tp2071
a(g2070
S'1344'
p2072
F286.7194605027013
tp2073
aF54.165506269279206
g2063
S'2012-03-02 15:33:16'
p2074
I0
F2046.252459061659
F1637.1354148744751
tp2075
a((lp2076
(S'1240'
p2077
g2072
F567.8082139180518
tp2078
a(g2072
S'1264'
p2079
F368.4326560017038
tp2080
a(g2079
g263
F491.1492433133898
tp2081
a(g263
S'871'
p2082
F803.5379876651724
tp2083
a(g2082
S'1382'
p2084
F50.16613604719236
tp2085
aF31.706329162176978
g2074
S'2012-03-02 15:37:35'
p2086
I53
F2281.09423694551
F1658.7362865282792
tp2087
a((lp2088
(S'871'
p2089
g2084
F853.7041236717998
tp2090
a(g2084
g2082
F803.5379876651724
tp2091
a(g2082
g248
F7.33778295029712
tp2092
aF166.45798942872696
g2086
S'2012-03-02 15:38:11'
p2093
I11
F1664.5798942872696
F216.3336596434216
tp2094
a((lp2095
(g2089
g248
F723.7725086310746
tp2096
a(g248
g250
F393.0490934460226
tp2097
a(g250
S'1137'
p2098
F725.1210142806609
tp2099
a(g2098
g844
F376.2374638577382
tp2100
aF399.2724144387893
g2093
S'2012-03-02 15:38:31'
p2101
I0
F2218.180080215496
F27.823784722460456
tp2102
a((lp2103
(g849
g844
F28.644148247303384
tp2104
a(g844
g2084
F803.5379876651724
tp2105
a(g2084
S'1284'
p2106
F318.13073004142086
tp2107
aF86.27346494654225
g2101
S'2012-03-02 15:39:19'
p2108
I7
F1150.3128659538966
F400.7100027764652
tp2109
a((lp2110
(g270
g2106
F48.60291650420392
tp2111
a(g2106
g241
F731.1102915769052
tp2112
a(g241
g248
F473.7788413329345
tp2113
aF188.02380741210655
g2108
S'2012-03-02 15:39:43'
p2114
I0
F1253.4920494140435
F63.11446670743849
tp2115
a((lp2116
(g2089
g248
F257.3314503476894
tp2117
a(g248
S'1402'
p2118
F532.13818844487
tp2119
a(g2118
g1194
F391.4745659135401
tp2120
a(g1194
g1196
F142.98964389493918
tp2121
aF39.71801545803116
g2114
S'2012-03-02 15:41:43'
p2122
I38
F1323.9338486010388
F732.2036849542386
tp2123
a((lp2124
(g1201
g1196
F777.6361982539315
tp2125
a(g1196
S'451'
p2126
F634.6465544405745
tp2127
a(g2126
S'268'
p2128
F44.901345701735835
tp2129
aF87.43104590377452
g2122
S'2012-03-02 15:42:43'
p2130
I12
F1457.184098396242
F166.95787131128318
tp2131
a((lp2132
(g1201
g1201
F0.0
tp2133
aF9.281628488140328
g2130
S'2012-03-02 15:44:13'
p2134
I22
F232.04071220350818
F232.0852239707436
tp2135
a((lp2136
(g1201
g2128
F43.63408607768071
tp2137
a(g2128
S'451'
p2138
F230.77345257950506
tp2139
a(g2138
S'1303'
p2140
F558.7300773543896
tp2141
a(g2140
g2098
F26.134451888888705
tp2142
aF39.156701828375574
g2134
S'2012-03-02 15:45:32'
p2143
I18
F859.2720679004641
F549.8695011679799
tp2144
a((lp2145
(g257
g2098
F751.2554661530422
tp2146
a(g2098
g844
F404.8816121047468
tp2147
a(g844
g2084
F803.5379876651724
tp2148
a(g2084
g1190
F428.37022871653176
tp2149
aF63.21296368163365
g2143
S'2012-03-02 15:47:48'
p2150
I0
F2388.0452946394935
F767.1355143408351
tp2151
a((lp2152
(g270
g1190
F62.77901461263913
tp2153
a(g1190
g1192
F228.23448105151797
tp2154
a(g1192
g261
F469.0221952905596
tp2155
aF45.602141457283004
g2150
S'2012-03-02 15:48:48'
p2156
I24
F760.0356909547168
F494.99463557862043
tp2157
a((lp2158
(S'1402'
p2159
g261
F697.2566763401422
tp2160
a(g261
g1192
F228.23448105151797
tp2161
a(g1192
g1194
F391.4745659135401
tp2162
a(g1194
g2128
F118.72273861581813
tp2163
aF178.223395272954
g2156
S'2012-03-02 15:49:17'
p2164
I0
F1435.6884619210184
F41.22578514743476
tp2165
a((lp2166
(g1201
g2128
F112.05071396374287
tp2167
a(g2128
g2138
F87.93408968492287
tp2168
aF37.8918575334314
g2164
S'2012-03-02 15:49:36'
p2169
I16
F199.98480364866572
F24.107393768024167
tp2170
a((lp2171
(S'268'
p2172
g2138
F142.8393628946338
tp2173
a(g2138
g2128
F230.77345257950506
tp2174
a(g2128
S'128'
p2175
F237.5139753635254
tp2176
aF15.068879774079392
g2169
S'2012-03-02 15:52:02'
p2177
I0
F611.1267908376642
F362.40089774323127
tp2178
a((lp2179
(g2172
g2175
F474.3017851683338
tp2180
a(g2175
S'268'
p2181
F711.8157605305048
tp2182
a(g2181
g2138
F230.77345257950506
tp2183
a(g2138
g1196
F634.6465544405745
tp2184
a(g1196
g304
F151.14183549660834
tp2185
aF132.16076329293156
g2177
S'2012-03-02 15:53:02'
p2186
I16
F2202.679388215526
F305.1532653426443
tp2187
a((lp2188
(g309
g304
F865.3084930771876
tp2189
a(g304
g311
F714.166657688526
tp2190
a(g311
g1203
F227.3096888414608
tp2191
aF135.50886297053808
g2186
S'2012-03-02 15:53:50'
p2192
I53
F1806.7848396071745
F284.889557367578
tp2193
a((lp2194
(g309
g309
F0.0
tp2195
aF5.888878123788007
g2192
S'2012-03-02 15:54:19'
p2196
I0
F47.438184886070054
F47.55950024985352
tp2197
a((lp2198
(g309
g1203
F564.6581032528233
tp2199
a(g1203
g302
F384.78659929766803
tp2200
a(g302
g2126
F14.73191833203911
tp2201
aF56.90222680618212
g2196
S'2012-03-02 15:55:20'
p2202
I29
F964.1766208825303
F541.1713043316771
tp2203
a((lp2204
(g309
g2126
F619.9146361153884
tp2205
a(g2126
g259
F391.4745659135401
tp2206
a(g259
g261
F228.23448105151797
tp2207
a(g261
S'1330'
p2208
F612.8101096718462
tp2209
a(g2208
g1207
F389.4707510404453
tp2210
a(g1207
S'1396'
p2211
F0.7673456280658587
tp2212
aF112.13359447104018
g2202
S'2012-03-02 15:56:32'
p2213
I0
F2242.671889420804
F228.78536103051874
tp2214
a((lp2215
(g294
g2211
F667.7737194288264
tp2216
a(g2211
S'1389'
p2217
F668.5410650565225
tp2218
a(g2217
g298
F389.4707510404453
tp2219
a(g298
g1207
F45.715966854193894
tp2220
aF151.8429859182847
g2213
S'2012-03-02 15:57:14'
p2221
I0
F1771.5015023799883
F65.56995171558879
tp2222
a((lp2223
(S'1330'
p2224
g1207
F343.75478418636027
tp2225
a(g1207
g289
F262.3624076285935
tp2226
a(g289
g296
F263.7979363433445
tp2227
aF78.29236153424682
g2221
S'2012-03-02 15:57:54'
p2228
I37
F869.9151281582981
F342.16706361711636
tp2229
a((lp2230
(S'1282'
p2231
g296
F1.4355287148039584
tp2232
a(g296
g1209
F319.02403759519916
tp2233
a(g1209
g287
F288.3038562612287
tp2234
aF39.13479145100776
g2228
S'2012-03-02 15:58:50'
p2235
I0
F608.7634225712318
F245.26353120561433
tp2236
a((lp2237
(g1215
g287
F30.720181337182332
tp2238
a(g287
g289
F262.3624076285935
tp2239
a(g289
S'1395'
p2240
F520.1417399140412
tp2241
a(g2240
S'1295'
p2242
F660.5954005099251
tp2243
a(g2242
S'1386'
p2244
F329.92055347398576
tp2245
a(g2244
S'1249'
p2246
F1043.0772787454132
tp2247
a(g2246
S'1269'
p2248
F337.6809430955943
tp2249
a(g2248
S'1335'
p2250
F752.828030332418
tp2251
a(g2250
S'1294'
p2252
F25.118507130836118
tp2253
aF53.62707575866452
g2235
S'2012-03-02 16:03:16'
p2254
I0
F3962.4450421679894
F1947.2420413916711
tp2255
a((lp2256
(S'1335'
p2257
g2252
F490.03132093648753
tp2258
a(g2252
S'1279'
p2259
F383.85231039779774
tp2260
a(g2259
S'1367'
p2261
F683.5601147274087
tp2262
a(g2261
S'1279'
p2263
F5.819353115573732
tp2264
aF37.02465234893529
g2254
S'2012-03-02 16:05:48'
p2265
I0
F1563.2630991772678
F1082.193092197418
tp2266
a((lp2267
(S'1367'
p2268
g2263
F689.3794678429824
tp2269
a(g2263
g2261
F683.5601147274087
tp2270
a(g2261
S'1286'
p2271
F16.047877862996817
tp2272
aF64.10711355846406
g2265
S'2012-03-02 16:07:06'
p2273
I20
F1388.987460433388
F24.6734995829077
tp2274
a((lp2275
(g2268
g2268
F0.0
tp2276
aF9.806962856747793
g2273
S'2012-03-02 16:07:07'
p2277
I9
F2.724156349096609
F2.724275702953638
tp2278
a((lp2279
(g2268
g2271
F736.1311987099378
tp2280
a(g2271
S'1367'
p2281
F722.8074771960407
tp2282
a(g2281
S'1234'
p2283
F41.49385572984572
tp2284
aF180.05190379629892
g2277
S'2012-03-02 16:07:37'
p2285
I9
F1500.4325316358243
F106.34226531355853
tp2286
a((lp2287
(g2268
g2283
F468.45423811727034
tp2288
a(g2283
S'1367'
p2289
F426.9603823968392
tp2290
a(g2289
g2271
F722.8074771960407
tp2291
a(g2271
S'1353'
p2292
F1.0405322253154323
tp2293
aF58.88227745219876
g2285
S'2012-03-02 16:09:16'
p2294
I1
F1619.2626299354656
F671.7524489599069
tp2295
a((lp2296
(S'1286'
p2297
g2292
F1462.9265444372172
tp2298
a(g2292
g615
F1461.886012214432
tp2299
a(g615
S'1250'
p2300
F204.88150175530103
tp2301
a(g2300
S'1261'
p2302
F299.5365199052857
tp2303
a(g2302
S'1250'
p2304
F33.05593459680974
tp2305
aF52.814540027426126
g2294
S'2012-03-02 16:13:12'
p2306
I0
F3462.286512909046
F499.2255746345626
tp2307
a((lp2308
(S'1261'
p2309
g2304
F266.48058530988715
tp2310
a(g2304
g2302
F299.5365199052857
tp2311
a(g2302
S'1247'
p2312
F425.043722578582
tp2313
aF82.97253441994226
g2306
S'2012-03-02 16:13:55'
p2314
I37
F991.0608277937548
F399.15034080576555
tp2315
a((lp2316
(g2309
g2312
F877.9479090602896
tp2317
a(g2312
S'1261'
p2318
F452.9041865730224
tp2319
a(g2318
g2304
F465.95817789150533
tp2320
aF196.01566620270734
g2314
S'2012-03-02 16:14:28'
p2321
I0
F1796.8102735248174
F41.71835747097392
tp2322
a((lp2323
(g2309
g2304
F166.42165799832694
tp2324
a(g2304
S'1286'
p2325
F204.88150175530103
tp2326
a(g2325
g622
F873.144134384409
tp2327
a(g622
g624
F34.629363130130145
tp2328
aF76.74459943609003
g2321
S'2012-03-02 16:15:28'
p2329
I14
F1279.076657268167
F909.9098321495202
tp2330
a((lp2331
(g629
g629
F0.0
tp2332
aF0.0
g2329
S'2012-03-02 16:17:29'
p2333
I70
F0.0
F0.0
tp2334
a((lp2335
(g629
g624
F5546.394493357404
tp2336
a(g624
g639
F117.95681148015007
tp2337
a(g639
S'838'
p2338
F690.8846058389883
tp2339
a(g2338
S'1082'
p2340
F427.5037898483401
tp2341
a(g2340
S'796'
p2342
F38.62761926587566
tp2343
aF102.74862908471435
g2333
S'2012-03-02 16:21:28'
p2344
I0
F6821.367319790758
F6694.366187447997
tp2345
a((lp2346
(S'1082'
p2347
g2342
F98.65743920527844
tp2348
a(g2342
S'988'
p2349
F37.46020309095503
tp2350
a(g2349
S'777'
p2351
F428.69502991180303
tp2352
a(g2351
S'1185'
p2353
F465.5645320107461
tp2354
a(g2353
S'1073'
p2355
F401.933419412357
tp2356
a(g2355
S'987'
p2357
F353.0801425853139
tp2358
aF107.12344597298723
g2344
S'2012-03-02 16:22:28'
p2359
I55
F1785.3907662164536
F1056.1900310224808
tp2360
a((lp2361
(S'1073'
p2362
g2357
F938.3966402297028
tp2363
a(g2357
S'1189'
p2364
F541.0596802687863
tp2365
a(g2364
g1572
F211.8840444636607
tp2366
a(g1572
g1587
F974.3320508593303
tp2367
a(g1587
g1589
F108.42347341772006
tp2368
a(g1589
g1591
F138.91582185729666
tp2369
a(g1591
g1593
F303.12038890948725
tp2370
a(g1593
S'203'
p2371
F110.55925503297553
tp2372
a(g2371
S'431'
p2373
F369.98613606887915
tp2374
a(g2373
S'392'
p2375
F175.65318164956304
tp2376
aF46.93734148796852
g2359
S'2012-03-02 16:27:25'
p2377
I61
F3872.330672757402
F3706.2626611640194
tp2378
a((lp2379
(S'431'
p2380
g2375
F282.1830027834463
tp2381
a(g2375
S'431'
p2382
F457.83618440901
tp2383
a(g2382
S'140'
p2384
F334.7646258643055
tp2385
a(g2384
S'263'
p2386
F435.87853113202175
tp2387
a(g2386
S'1115'
p2388
F472.4206568274532
tp2389
a(g2388
S'989'
p2390
F1111.3964106739522
tp2391
a(g2390
S'1036'
p2392
F786.7860140536283
tp2393
a(g2392
S'1151'
p2394
F499.30418929770127
tp2395
a(g2394
S'1232'
p2396
F572.8013873462398
tp2397
a(g2396
S'901'
p2398
F500.4166198457959
tp2399
a(g2398
S'1157'
p2400
F329.43858562166434
tp2401
a(g2400
S'809'
p2402
F755.0004704445299
tp2403
a(g2402
S'900'
p2404
F402.12062267872676
tp2405
aF5.784961862357609
g2377
S'2012-03-02 17:39:24'
p2406
I16
F6940.347300978476
F5307.852455613866
tp2407
a((lp2408
(S'809'
p2409
g2404
F1076.9148688679081
tp2410
a(g2404
S'809'
p2411
F674.794246559625
tp2412
a(g2411
S'1157'
p2413
F248.17332207862907
tp2414
aF16.55075120694755
g2406
S'2012-03-02 17:46:39'
p2415
I51
F1999.8824375061622
F737.5452636913164
tp2416
a((lp2417
(g2409
g2413
F1003.1737924235687
tp2418
a(g2413
g2402
F755.0004704445299
tp2419
a(g2402
g2404
F674.794246559625
tp2420
a(g2404
g2411
F365.48874127847796
tp2421
aF167.90743504237207
g2415
S'2012-03-02 17:47:39'
p2422
I0
F2798.457250706201
F4.040575993592013
tp2423
a((lp2424
(S'900'
p2425
g2411
F309.3055053779479
tp2426
a(g2411
g2404
F303.5103909766455
tp2427
aF36.768953781275606
g2422
S'2012-03-02 17:48:39'
p2428
I0
F612.8158963545934
F6.006451975100759
tp2429
a((lp2430
(g2409
g2404
F371.28385567947294
tp2431
a(g2404
g2411
F383.7274009292578
tp2432
aF20.436394915725042
g2428
S'2012-03-02 17:50:52'
p2433
I0
F755.0112566087307
F19.387470262535327
tp2434
a((lp2435
(g2425
g2411
F291.0668457260064
tp2436
a(g2411
g2404
F674.794246559625
tp2437
a(g2404
S'1101'
p2438
F275.2548823574682
tp2439
aF49.64463898572399
g2433
S'2012-03-02 17:52:22'
p2440
I0
F1241.1159746430997
F269.8687997302286
tp2441
a((lp2442
(g2425
g2438
F783.569369294084
tp2443
a(g2438
S'900'
p2444
F1058.824251630271
tp2445
a(g2444
g2411
F674.794246559625
tp2446
a(g2411
S'1114'
p2447
F639.1126192225747
tp2448
a(g2447
S'993'
p2449
F35.92722327765302
tp2450
aF191.53366259905246
g2440
S'2012-03-02 17:53:22'
p2451
I14
F3192.2277099842076
F451.2093080446591
tp2452
a((lp2453
(S'1114'
p2454
g2449
F901.079751328615
tp2455
a(g2449
S'1114'
p2456
F865.1525280555261
tp2457
a(g2456
S'809'
p2458
F639.1126192225747
tp2459
a(g2458
g2404
F674.794246559625
tp2460
a(g2404
S'967'
p2461
F217.51739317672622
tp2462
a(g2461
S'1154'
p2463
F633.0663908294133
tp2464
a(g2463
S'1010'
p2465
F507.7471347885134
tp2466
a(g2465
S'906'
p2467
F262.81410516769273
tp2468
aF141.0385250738606
g2451
S'2012-03-02 17:55:22'
p2469
I9
F4701.284169128687
F1009.1983121634858
tp2470
a((lp2471
(g723
g2467
F1363.7532648527902
tp2472
a(g2467
g680
F504.1784455245772
tp2473
a(g680
g687
F282.7294827992773
tp2474
a(g687
g689
F352.8185604851902
tp2475
a(g689
S'1041'
p2476
F692.7516666069633
tp2477
a(g2476
S'827'
p2478
F149.24142315011065
tp2479
aF308.81287785405317
g2469
S'2012-03-02 17:56:01'
p2480
I46
F3345.472843418909
F307.587305062599
tp2481
a((lp2482
(S'1041'
p2483
g2478
F540.2703885020534
tp2484
a(g2478
g725
F390.24923028502263
tp2485
a(g725
g672
F384.6361930519455
tp2486
a(g672
g674
F180.02401804237786
tp2487
aF234.0281472857843
g2480
S'2012-03-02 17:56:24'
p2488
I0
F1495.1798298813997
F59.678803226808846
tp2489
a((lp2490
(S'1139'
p2491
g674
F819.8748235695942
tp2492
a(g674
g676
F19.54452710951113
tp2493
aF25.18258052037316
g2488
S'2012-03-02 17:58:24'
p2494
I31
F839.4193506791054
F856.8050759496684
tp2495
a((lp2496
(S'1160'
p2497
g676
F302.2740099086313
tp2498
a(g676
S'835'
p2499
F64.25213798500901
tp2500
aF21.99156887361842
g2494
S'2012-03-02 17:59:24'
p2501
I46
F366.5261478936403
F304.2364465576626
tp2502
a((lp2503
(S'1113'
p2504
g2499
F3809.0723367412597
tp2505
a(g2499
S'1057'
p2506
F3008.537946635903
tp2507
a(g2506
S'894'
p2508
F310.6033695711171
tp2509
a(g2508
S'942'
p2510
F338.90166780966075
tp2511
a(g2510
S'1056'
p2512
F259.19830405018683
tp2513
a(g2512
S'1179'
p2514
F270.4413970166197
tp2515
a(g2514
S'1056'
p2516
F250.93728609389544
tp2517
aF146.26449413057688
g2501
S'2012-03-02 18:02:47'
p2518
I40
F8247.692307918642
F621.2006730026408
tp2519
a((lp2520
(S'1179'
p2521
g2516
F19.504110924305884
tp2522
a(g2516
g2514
F270.4413970166197
tp2523
a(g2514
S'985'
p2524
F260.8126478603897
tp2525
aF12.70980359541497
g2518
S'2012-03-02 18:05:23'
p2526
I0
F550.7581558013153
F590.6405353830557
tp2527
a((lp2528
(g2521
g2524
F14.534526637659454
tp2529
a(g2524
S'942'
p2530
F262.1011850602843
tp2531
a(g2530
g2512
F11.237843052467966
tp2532
aF3.2487297714780006
g2526
S'2012-03-02 18:10:42'
p2533
I18
F287.8735547504117
F6.163476457417217
tp2534
a((lp2535
(S'942'
p2536
g2536
F0.0
tp2537
aF23.53005181670392
g2533
S'2012-03-02 18:11:42'
p2538
I20
F392.16753027839866
F392.29657532159365
tp2539
a((lp2540
(g2536
g2512
F144.20706928069413
tp2541
a(g2512
S'942'
p2542
F259.19830405018683
tp2543
a(g2542
S'830'
p2544
F565.0355820413071
tp2545
a(g2544
S'906'
p2546
F1055.3265253741486
tp2547
a(g2546
g680
F504.1784455245772
tp2548
a(g680
g687
F162.24868519829573
tp2549
aF94.948045110678
g2538
S'2012-03-02 18:13:24'
p2550
I29
F2690.1946114692096
F613.1142475215353
tp2551
a((lp2552
(g2504
g687
F444.9781679951886
tp2553
a(g687
g676
F282.7294827992773
tp2554
a(g676
g2499
F59.892061822639455
tp2555
aF17.945309907731517
g2550
S'2012-03-02 18:16:02'
p2556
I0
F787.5997126171054
F381.7529616256101
tp2557
a((lp2558
(g2504
g2499
F3813.4324128201347
tp2559
a(g2499
S'1113'
p2560
F3873.324473476086
tp2561
a(g2560
g687
F282.7294827992773
tp2562
a(g687
S'1139'
p2563
F259.7664868944702
tp2564
aF361.2842717263889
g2556
S'2012-03-02 18:17:24'
p2565
I0
F8229.25285598997
F533.621812066513
tp2566
a((lp2567
(g2497
g2563
F740.1323547222268
tp2568
a(g2563
S'909'
p2569
F384.6361930519455
tp2570
a(g2569
S'827'
p2571
F390.24923028502263
tp2572
a(g2571
S'1041'
p2573
F689.5118116434894
tp2574
a(g2573
g2478
F29.55704880446652
tp2575
aF118.27517497979035
g2565
S'2012-03-02 18:18:32'
p2576
I16
F2234.086638507151
F456.4923522825752
tp2577
a((lp2578
(g2483
g2478
F719.068860445724
tp2579
a(g2478
g725
F390.24923028502263
tp2580
a(g725
g672
F384.6361930519455
tp2581
a(g672
g2569
F222.37740171735166
tp2582
aF294.22828894286465
g2576
S'2012-03-02 18:18:53'
p2583
I18
F1716.3316855000437
F60.41151852742493
tp2584
a((lp2585
(g2491
g2569
F607.0135947675989
tp2586
a(g2569
g727
F286.06989179438705
tp2587
a(g727
g729
F214.99477288859876
tp2588
a(g729
g639
F81.12202534656372
tp2589
aF28.16526990309036
g2583
S'2012-03-02 18:21:25'
p2590
I0
F1189.2002847971485
F1027.3400504198403
tp2591
a((lp2592
(S'873'
p2593
g639
F199.07883682623265
tp2594
a(g639
g641
F263.909236928096
tp2595
a(g641
g738
F252.5830223782035
tp2596
a(g738
g740
F363.99526731937345
tp2597
a(g740
g742
F480.1669052301094
tp2598
a(g742
S'1062'
p2599
F183.41867360754313
tp2600
a(g2599
S'1150'
p2601
F194.7563084101235
tp2602
a(g2601
S'1016'
p2603
F239.8655483360997
tp2604
aF40.62168744315448
g2590
S'2012-03-02 18:24:38'
p2605
I0
F2177.7737990357814
F1511.194645962242
tp2606
a((lp2607
(S'1150'
p2608
g2603
F716.4384403524655
tp2609
a(g2603
S'1150'
p2610
F476.5728920163904
tp2611
a(g2610
S'1062'
p2612
F194.7563084101235
tp2613
a(g2612
S'974'
p2614
F183.41867360754313
tp2615
a(g2614
g744
F656.1638760738123
tp2616
a(g744
S'814'
p2617
F72.70815209495704
tp2618
aF138.0035005533175
g2605
S'2012-03-02 18:25:38'
p2619
I18
F2300.058342555292
F578.656741225374
tp2620
a((lp2621
(S'991'
p2622
g2617
F667.2598633904054
tp2623
a(g2617
S'991'
p2624
F594.5517113284113
tp2625
a(g2624
g746
F237.07629077782101
tp2626
a(g746
g748
F271.47786881346633
tp2627
aF106.22194405860625
g2619
S'2012-03-02 18:26:38'
p2628
I3
F1770.365734310104
F518.3639787103427
tp2629
a((lp2630
(S'874'
p2631
g748
F220.57125053489588
tp2632
a(g748
g750
F360.6074231124015
tp2633
a(g750
g752
F348.66405624127844
tp2634
a(g752
S'1135'
p2635
F306.13932436498743
tp2636
aF27.466267872301408
g2628
S'2012-03-02 18:29:20'
p2637
I40
F1235.9820542535633
F854.5842038446724
tp2638
a((lp2639
(S'1124'
p2640
g2635
F558.6338531201752
tp2641
a(g2635
S'955'
p2642
F207.71700266283523
tp2643
a(g2642
S'844'
p2644
F135.70247565144197
tp2645
a(g2644
S'1045'
p2646
F161.05814139702346
tp2647
a(g2646
S'1218'
p2648
F380.2508287917065
tp2649
a(g2648
S'986'
p2650
F24.544158156000314
tp2651
aF70.45951006940076
g2637
S'2012-03-02 18:30:35'
p2652
I20
F1467.9064597791826
F397.8278300233562
tp2653
a((lp2654
(S'1218'
p2655
g2650
F398.80290329843814
tp2656
a(g2650
S'869'
p2657
F313.4132600262387
tp2658
a(g2657
S'1045'
p2659
F443.17745880440634
tp2660
a(g2659
g777
F175.3280188986896
tp2661
aF49.90206153854148
g2652
S'2012-03-02 18:32:11'
p2662
I0
F1330.7216410277729
F151.5127322952157
tp2663
a((lp2664
(S'1045'
p2665
g777
F14.269877501740432
tp2666
a(g777
g779
F135.70247565144197
tp2667
a(g779
g781
F56.66466961496389
tp2668
a(g781
g783
F182.17650096521103
tp2669
a(g783
g785
F195.5482192140499
tp2670
a(g785
g787
F106.9390388791336
tp2671
a(g787
S'1213'
p2672
F159.27354120793285
tp2673
a(g2672
S'1066'
p2674
F3.3353682293762548
tp2675
aF76.8518722137465
g2662
S'2012-03-02 18:32:51'
p2676
I25
F853.90969126385
F192.32562303662897
tp2677
a((lp2678
(S'1213'
p2679
g2674
F122.67067272721862
tp2680
a(g2674
S'1170'
p2681
F134.29559832461862
tp2682
a(g2681
S'959'
p2683
F135.9977572931447
tp2684
a(g2683
S'806'
p2685
F197.56237677218394
tp2686
a(g2685
S'1020'
p2687
F61.454839335474496
tp2688
aF130.39624889052806
g2676
S'2012-03-02 18:33:09'
p2689
I0
F651.9812444526403
F65.92219198719961
tp2690
a((lp2691
(S'806'
p2692
g2687
F198.96446644933715
tp2693
a(g2687
S'806'
p2694
F137.50962711414766
tp2695
a(g2694
S'1207'
p2696
F147.94654702667398
tp2697
aF48.44206405901588
g2689
S'2012-03-02 18:33:45'
p2698
I42
F484.42064059015877
F200.2092569509117
tp2699
a((lp2700
(g2692
g2696
F6.908810044675441
tp2701
a(g2696
S'1145'
p2702
F142.994246033289
tp2703
a(g2702
S'1028'
p2704
F210.6065185280842
tp2705
a(g2704
S'772'
p2706
F230.208379433524
tp2707
a(g2706
S'819'
p2708
F232.03849592151013
tp2709
a(g2708
S'1233'
p2710
F280.1051964205321
tp2711
a(g2710
S'819'
p2712
F316.42039964201456
tp2713
aF41.880453817090704
g2698
S'2012-03-02 18:35:47'
p2714
I0
F1419.2820460236294
F635.3076416859757
tp2715
a((lp2716
(S'1233'
p2717
g2712
F36.31520322533186
tp2718
a(g2712
g2710
F197.0758511130342
tp2719
aF27.1034772780038
g2714
S'2012-03-02 18:36:18'
p2720
I18
F233.39105433836605
F161.34078613374325
tp2721
a((lp2722
(S'819'
p2723
g2710
F477.1810475027528
tp2724
a(g2710
S'886'
p2725
F203.95830291726205
tp2726
a(g2725
S'1222'
p2727
F498.13109666342655
tp2728
a(g2727
S'1209'
p2729
F529.8005662370716
tp2730
a(g2729
S'1104'
p2731
F340.0113446486208
tp2732
a(g2731
S'121'
p2733
F119.44090877372172
tp2734
aF75.79304621625514
g2720
S'2012-03-02 18:38:01'
p2735
I0
F2168.5232667428554
F543.8807317031507
tp2736
a((lp2737
(g1516
g2733
F468.39297413959486
tp2738
a(g2733
S'1104'
p2739
F348.95206538914294
tp2740
a(g2739
S'1209'
p2741
F340.0113446486208
tp2742
a(g2741
g2731
F118.56015661075926
tp2743
aF40.64866855608164
g2735
S'2012-03-02 18:39:54'
p2744
I31
F1275.916540788118
F277.8760282146516
tp2745
a((lp2746
(S'1209'
p2747
g2731
F221.45118804849582
tp2748
a(g2731
g1511
F340.35709427387536
tp2749
a(g1511
g1509
F377.29621292372354
tp2750
aF18.782089904921897
g2744
S'2012-03-02 18:42:54'
p2751
I0
F939.1044952460948
F5.986677523300097
tp2752
a((lp2753
(S'12'
p2754
g1509
F36.93911865043863
tp2755
a(g1509
g2741
F340.0113446486208
tp2756
a(g2741
g2731
F116.39531696636007
tp2757
aF14.800373407962589
g2751
S'2012-03-02 18:44:54'
p2758
I0
F493.34578026541953
F2.8418084214543846
tp2759
a((lp2760
(g2747
g2731
F223.61602769280313
tp2761
a(g2731
g2741
F232.50412421067713
tp2762
aF27.367209114208816
g2758
S'2012-03-02 18:45:54'
p2763
I0
F456.1201519034803
F12.551219527753034
tp2764
a((lp2765
(g1516
g2741
F107.50722044806943
tp2766
a(g2741
S'324'
p2767
F42.835555113439746
tp2768
aF9.02056653369055
g2763
S'2012-03-02 18:46:54'
p2769
I0
F150.34277556150917
F11.493097725383143
tp2770
a((lp2771
(g2747
g2747
F0.0
tp2772
aF0.1856240906715392
g2769
S'2012-03-02 18:47:54'
p2773
I0
F3.0937348445256534
F3.0869163260247383
tp2774
a((lp2775
(g2747
g2767
F375.43574084944333
tp2776
a(g2767
S'1209'
p2777
F372.3604596439752
tp2778
aF14.955924009868374
g2773
S'2012-03-02 18:50:54'
p2779
I0
F747.7962004934186
F3.2062924194860227
tp2780
a((lp2781
(S'324'
p2782
g2777
F42.85400875242816
tp2783
a(g2777
g2731
F114.64702205874117
tp2784
aF9.45006184867016
g2779
S'2012-03-02 18:51:54'
p2785
I0
F157.50103081116933
F2.3791559203081385
tp2786
a((lp2787
(g2747
g2747
F0.0
tp2788
aF0.12025042340617138
g2785
S'2012-03-02 18:54:55'
p2789
I0
F6.045924065699173
F6.044970007801978
tp2790
a((lp2791
(g2747
g2747
F0.0
tp2792
aF0.10578875841126247
g2789
S'2012-03-02 18:56:55'
p2793
I0
F3.526291947042082
F3.590792095178166
tp2794
a((lp2795
(g2747
g2731
F215.79210658815785
tp2796
a(g2731
g2741
F340.0113446486208
tp2797
a(g2741
g2767
F329.50645089237776
tp2798
a(g2767
g1527
F118.4930598939501
tp2799
aF27.170606490851004
g2793
S'2012-03-02 18:59:08'
p2800
I0
F1003.8029620231065
F11.365490485105813
tp2801
a((lp2802
(g2782
g1527
F640.7009690074375
tp2803
a(g1527
g108
F314.42150737049457
tp2804
a(g108
g2729
F529.8005662370716
tp2805
a(g2729
g2731
F340.0113446486208
tp2806
a(g2731
g2741
F226.57445903927422
tp2807
aF160.5528662324008
g2800
S'2012-03-02 18:59:54'
p2808
I0
F2051.5088463028987
F2.468527371508711
tp2809
a((lp2810
(g1516
g2741
F113.43688561975753
tp2811
a(g2741
g2767
F329.50645089237776
tp2812
a(g2767
g218
F348.33486400960794
tp2813
a(g218
g220
F230.45776160426348
tp2814
aF27.246292323360176
g2808
S'2012-03-02 19:02:09'
p2815
I0
F1021.7359621260067
F605.8983816867848
tp2816
a((lp2817
(g2754
g220
F106.41541649553601
tp2818
a(g220
g222
F516.3741780275716
tp2819
a(g222
g224
F51.73946652740419
tp2820
aF10.840645624026081
g2815
S'2012-03-02 19:05:53'
p2821
I37
F674.5290610505117
F678.0378642590085
tp2822
a((lp2823
(g1498
g224
F2076.497357808105
tp2824
a(g224
g1491
F2128.2368240663845
tp2825
a(g1491
g1501
F516.3741780275716
tp2826
a(g1501
g1507
F336.87317808984017
tp2827
a(g1507
g1509
F340.35709427387536
tp2828
a(g1509
g2733
F10.5344433844822
tp2829
aF105.82577756707028
g2821
S'2012-03-02 19:08:57'
p2830
I0
F5408.873075650258
F1130.8427044010746
tp2831
a((lp2832
(g1516
g2733
F338.41762200605467
tp2833
a(g2733
S'915'
p2834
F317.2464914021481
tp2835
a(g2834
S'1170'
p2836
F0.8514921906765552
tp2837
aF41.464143511508176
g2830
S'2012-03-02 19:09:54'
p2838
I0
F656.5156055988793
F61.60514187461422
tp2839
a((lp2840
(S'915'
p2841
g2836
F417.8288922280002
tp2842
a(g2836
g791
F134.29559832461862
tp2843
a(g791
g793
F420.7598114745809
tp2844
aF89.80470480251076
g2838
S'2012-03-02 19:10:33'
p2845
I37
F972.8843020271997
F343.0998266866764
tp2846
a((lp2847
(S'1066'
p2848
g793
F828.2941633406718
tp2849
a(g793
S'1066'
p2850
F407.53435205726896
tp2851
a(g2850
g2681
F134.29559832461862
tp2852
a(g2681
S'1020'
p2853
F201.74042609344684
tp2854
a(g2853
g2694
F108.87066902678288
tp2855
aF65.06071776165635
g2845
S'2012-03-02 19:12:06'
p2856
I0
F1680.735208842789
F185.9327994548322
tp2857
a((lp2858
(S'1020'
p2859
g2694
F28.63895808752162
tp2860
a(g2694
S'921'
p2861
F107.48268907765393
tp2862
a(g2861
g785
F195.5482192140499
tp2863
a(g785
S'1135'
p2864
F204.01000968206168
tp2865
aF30.1319930284474
g2856
S'2012-03-02 19:13:10'
p2866
I29
F535.6798760612871
F361.92869932283475
tp2867
a((lp2868
(S'927'
p2869
g2864
F36.4385518241971
tp2870
a(g2864
g2642
F207.71700266283523
tp2871
a(g2642
g781
F130.34941543070437
tp2872
aF11.622568031929761
g2866
S'2012-03-02 19:15:06'
p2873
I31
F374.50496991773673
F135.65117478456386
tp2874
a((lp2875
(S'955'
p2876
g781
F187.01408504547447
tp2877
a(g781
S'955'
p2878
F56.66466961496389
tp2879
a(g2878
g2644
F135.70247565144197
tp2880
a(g2644
g2646
F161.05814139702346
tp2881
a(g2646
g777
F429.6722509563176
tp2882
aF58.20669735991328
g2873
S'2012-03-02 19:16:06'
p2883
I44
F970.1116226652214
F427.51452024949424
tp2884
a((lp2885
(g2665
g777
F268.61410956196477
tp2886
a(g777
g779
F135.70247565144197
tp2887
a(g779
g781
F56.66466961496389
tp2888
a(g781
g783
F182.17650096521103
tp2889
a(g783
g785
F195.5482192140499
tp2890
a(g785
g787
F106.9390388791336
tp2891
a(g787
g789
F135.9977572931447
tp2892
a(g789
g791
F134.29559832461862
tp2893
a(g791
g793
F378.49906075821514
tp2894
aF133.48778485920644
g2883
S'2012-03-02 19:16:49'
p2895
I33
F1594.4374302627436
F84.77291451478496
tp2896
a((lp2897
(g2848
g793
F786.0334126522655
tp2898
a(g793
g2850
F407.53435205726896
tp2899
a(g2850
g2681
F134.29559832461862
tp2900
a(g2681
g2683
F135.9977572931447
tp2901
a(g2683
g2685
F197.56237677218394
tp2902
a(g2685
g2696
F141.0377369821515
tp2903
a(g2696
S'799'
p2904
F101.1060544565955
tp2905
a(g2904
S'921'
p2906
F113.68683065779277
tp2907
aF177.12475192940678
g2895
S'2012-03-02 19:17:30'
p2908
I0
F2017.2541191960215
F8.775565490442878
tp2909
a((lp2910
(S'799'
p2911
g2906
F24.55308618259164
tp2912
a(g2906
S'806'
p2913
F107.48268907765393
tp2914
a(g2913
g2687
F137.50962711414766
tp2915
a(g2687
g2694
F464.3497795268302
tp2916
aF44.0337109140734
g2908
S'2012-03-02 19:18:30'
p2917
I12
F733.8951819012234
F334.2510320807662
tp2918
a((lp2919
(g2859
g2694
F326.8401524168673
tp2920
a(g2694
g2861
F107.48268907765393
tp2921
a(g2861
g785
F195.5482192140499
tp2922
a(g785
g2864
F240.4485615059529
tp2923
a(g2864
S'1124'
p2924
F864.7731774810748
tp2925
a(g2924
S'1009'
p2926
F343.5463299595581
tp2927
a(g2926
S'1122'
p2928
F192.40012572586818
tp2929
aF68.13117766143075
g2917
S'2012-03-02 19:20:30'
p2930
I18
F2271.039255381025
F931.0332326573281
tp2931
a((lp2932
(S'1009'
p2933
g2928
F595.4052119515653
tp2934
a(g2928
S'804'
p2935
F206.81292493199675
tp2936
aF87.51470584184312
g2930
S'2012-03-02 19:21:03'
p2937
I40
F802.218136883562
F139.36742686066944
tp2938
a((lp2939
(S'1122'
p2940
g2935
F729.9125053331948
tp2941
a(g2935
S'1122'
p2942
F936.7254302074238
tp2943
a(g2942
S'1186'
p2944
F682.0643108370471
tp2945
a(g2944
S'792'
p2946
F326.58745247299765
tp2947
aF100.32336370689987
g2937
S'2012-03-02 19:22:39'
p2948
I0
F2675.289698850663
F484.64001405321204
tp2949
a((lp2950
(S'1186'
p2951
g2946
F760.1996228074777
tp2952
a(g2946
S'1186'
p2953
F433.61217033519375
tp2954
a(g2953
S'1122'
p2955
F425.42293079006026
tp2956
aF10.936669805174173
g2948
S'2012-03-02 19:31:32'
p2957
I12
F1619.2347239327316
F105.08731255433638
tp2958
a((lp2959
(g2951
g2955
F256.64138006473195
tp2960
a(g2955
g2935
F936.7254302074238
tp2961
a(g2935
S'888'
p2962
F436.4498289725836
tp2963
a(g2962
S'1213'
p2964
F398.42229143270566
tp2965
a(g2964
g2674
F126.00604095646439
tp2966
a(g2674
g2681
F134.29559832461862
tp2967
a(g2681
S'915'
p2968
F418.6803844186766
tp2969
a(g2968
S'121'
p2970
F317.2464914021481
tp2971
a(g2970
S'307'
p2972
F357.3260212740558
tp2973
aF42.41970899439815
g2957
S'2012-03-02 19:36:19'
p2974
I51
F3381.793467053408
F2132.757187930389
tp2975
a((lp2976
(S'121'
p2977
g2972
F712.6137342753804
tp2978
a(g2972
S'121'
p2979
F355.28771301773605
tp2980
a(g2979
g2834
F317.2464914021481
tp2981
a(g2834
g2836
F418.6803844186766
tp2982
a(g2836
g2853
F201.74042609344684
tp2983
a(g2853
S'1145'
p2984
F130.58266088195757
tp2985
aF68.05438120638624
g2974
S'2012-03-02 19:38:12'
p2986
I0
F2136.1514100893455
F328.4723381937443
tp2987
a((lp2988
(g2859
g2984
F7.802555699407506
tp2989
a(g2984
S'1104'
p2990
F725.1024325879025
tp2991
a(g2990
g1511
F340.35709427387536
tp2992
a(g1511
g220
F336.87317808984017
tp2993
a(g220
g222
F393.79789754035625
tp2994
aF54.117994745741456
g2986
S'2012-03-02 19:40:12'
p2995
I16
F1803.9331581913818
F974.692891887914
tp2996
a((lp2997
(g1523
g222
F122.57628051733315
tp2998
a(g222
g224
F298.20471623744976
tp2999
aF21.039049837739146
g2995
S'2012-03-02 19:41:24'
p3000
I53
F420.7809967547829
F421.025361057767
tp3001
a((lp3002
(g1498
g224
F1830.0321091953797
tp3003
a(g224
g1491
F2128.2368240663845
tp3004
a(g1491
g1501
F516.3741780275716
tp3005
a(g1501
g2979
F355.28771301773605
tp3006
a(g2979
g2834
F317.2464914021481
tp3007
a(g2834
g2836
F119.53111925846284
tp3008
aF100.85186364831732
g3000
S'2012-03-02 19:44:32'
p3009
I24
F5266.7084349676825
F680.0835397216106
tp3010
a((lp3011
(g2841
g2841
F0.0
tp3012
aF12.628896908274534
g3009
S'2012-03-02 19:45:17'
p3013
I37
F157.86121135343166
F157.61123075239584
tp3014
a((lp3015
(g2841
g2836
F380.3502923242412
tp3016
a(g2836
g791
F134.29559832461862
tp3017
a(g791
S'1213'
p3018
F126.00604095646439
tp3019
a(g3018
S'888'
p3020
F398.42229143270566
tp3021
a(g3020
S'804'
p3022
F436.4498289725836
tp3023
a(g3022
S'982'
p3024
F162.9732821838501
tp3025
aF98.30984005166783
g3013
S'2012-03-02 19:46:17'
p3026
I37
F1638.4973341944637
F791.153403264428
tp3027
a((lp3028
(S'804'
p3029
g3024
F303.01441846977923
tp3030
a(g3024
S'1009'
p3031
F754.638799327876
tp3032
a(g3031
S'1124'
p3033
F343.5463299595581
tp3034
a(g3033
g2926
F346.6489627536403
tp3035
aF79.6487928840389
g3026
S'2012-03-02 19:47:36'
p3036
I35
F1747.8485105108534
F992.2678025680569
tp3037
a((lp3038
(g2640
g2926
F3.102632794526167
tp3039
a(g2926
S'1007'
p3040
F58.83123026314522
tp3041
aF3.7160317834602834
g3036
S'2012-03-02 19:48:36'
p3042
I0
F61.93386305767139
F18.06164281788251
tp3043
a((lp3044
(g2933
g2933
F0.0
tp3045
aF28.586536832636874
g3042
S'2012-03-02 19:48:44'
p3046
I12
F63.52563740585972
F64.02613563831925
tp3047
a((lp3048
(g2933
g3040
F676.6608065645096
tp3049
a(g3040
S'1186'
p3050
F322.0478439414783
tp3051
a(g3050
g2946
F282.18516007920465
tp3052
aF76.85362863511155
g3046
S'2012-03-02 19:49:44'
p3053
I38
F1280.8938105851926
F930.8004207878985
tp3054
a((lp3055
(g2951
g2946
F151.42701025611922
tp3056
a(g2946
S'1162'
p3057
F393.5275279288238
tp3058
a(g3057
S'1211'
p3059
F415.9513587847988
tp3060
aF57.65435381818451
g3053
S'2012-03-02 19:50:44'
p3061
I37
F960.9058969697418
F460.7875809339053
tp3062
a((lp3063
(S'1162'
p3064
g3059
F822.8063326747662
tp3065
a(g3059
S'1013'
p3066
F355.0266673083767
tp3067
a(g3066
S'792'
p3068
F441.0365406997711
tp3069
a(g3068
S'814'
p3070
F350.26427291339104
tp3071
a(g3070
g2624
F59.042963775047056
tp3072
aF2433.8121328456227
g3061
S'2012-03-02 19:50:47'
p3073
I0
F2028.1767773713523
F1.848097603352097
tp3074
a((lp3075
(S'814'
p3076
g2624
F535.5087475746634
tp3077
a(g2624
S'974'
p3078
F656.1638760738123
tp3079
a(g3078
S'833'
p3080
F480.1669052301094
tp3081
a(g3080
S'852'
p3082
F363.99526731937345
tp3083
a(g3082
S'791'
p3084
F252.5830223782035
tp3085
a(g3084
g643
F86.46279162511098
tp3086
aF29.58328787793974
g3073
S'2012-03-02 19:55:36'
p3087
I0
F2374.880610201273
F1509.3836583193508
tp3088
a((lp3089
(S'791'
p3090
g643
F312.5971382954502
tp3091
a(g643
g645
F216.3351626994758
tp3092
aF31.735938059695563
g3087
S'2012-03-02 19:56:36'
p3093
I20
F528.932300994926
F603.2363463118005
tp3094
a((lp3095
(S'1107'
p3096
g645
F494.75929396153396
tp3097
a(g645
g660
F278.424131296127
tp3098
a(g660
S'852'
p3099
F264.7955081021066
tp3100
a(g3099
S'883'
p3101
F36.29840712908647
tp3102
aF77.3479685151975
g3093
S'2012-03-02 19:57:26'
p3103
I0
F1074.277340488854
F59.09390725544037
tp3104
a((lp3105
(S'852'
p3106
g3101
F292.9864884722441
tp3107
a(g3101
S'1068'
p3108
F115.05830496594493
tp3109
a(g3108
S'1032'
p3110
F72.44133774173015
tp3111
aF28.82916787079515
g3103
S'2012-03-02 19:58:26'
p3112
I25
F480.48613117991914
F371.48534208318415
tp3113
a((lp3114
(S'1068'
p3115
g3110
F215.10691313549216
tp3116
a(g3110
S'796'
p3117
F361.8967412680692
tp3118
a(g3117
S'1082'
p3119
F137.28505847111882
tp3120
a(g3119
S'1127'
p3121
F6.8306029289612695
tp3122
a(g3121
S'967'
p3123
F165.30526895916122
tp3124
aF54.08692381603542
g3112
S'2012-03-02 19:59:25'
p3125
I37
F886.4245847628027
F519.6441108596864
tp3126
a.