(lp0
((lp1
(S'1154'
p2
S'873'
p3
F213.80368363078816
tp4
a(g3
S'1292'
p5
F5581.023855259741
tp6
a(g5
S'1286'
p7
F302.5773001788548
tp8
aF73.1688580688326
S'2012-03-02 10:12:41'
p9
S'2012-03-02 10:17:41'
p10
I77
F6097.404839069384
F6090.2802941020045
tp11
a((lp12
(S'1292'
p13
g7
F570.566834377423
tp14
a(g7
S'1250'
p15
F204.88150175530103
tp16
a(g15
S'1261'
p17
F299.5365199052857
tp18
a(g17
S'1247'
p19
F466.11570015523284
tp20
aF82.80540301933841
g10
S'2012-03-02 10:18:48'
p21
I66
F1541.1005561932425
F551.7142134350719
tp22
a((lp23
(S'1261'
p24
g19
F919.019886623442
tp25
a(g19
S'1401'
p26
F447.950409986665
tp27
aF53.49014204126506
g21
S'2012-03-02 10:20:20'
p28
I12
F1366.970296610107
F476.523849871256
tp29
a((lp30
(S'1247'
p31
g26
F1333.0051342961829
tp32
a(g26
S'1298'
p33
F798.1601105279849
tp34
a(g33
S'1332'
p35
F651.7249898921416
tp36
a(g35
S'1278'
p37
F443.0096384527584
tp38
a(g37
S'1261'
p39
F286.1937784490775
tp40
aF197.55526790352067
g28
S'2012-03-02 10:21:24'
p41
I24
F3512.093651618145
F565.1430684311819
tp42
a((lp43
(S'1278'
p44
g39
F570.2294971028973
tp45
a(g39
S'1278'
p46
F856.423275392782
tp47
a(g46
S'1332'
p48
F96.81568311069553
tp49
aF91.40810733638249
g41
S'2012-03-02 10:22:24'
p50
I0
F1523.4684556063748
F5.008981342470848
tp51
a((lp52
(g44
g48
F539.8253215513845
tp53
a(g48
g37
F443.0096384527584
tp54
a(g37
g39
F856.423275392782
tp55
a(g39
S'1250'
p56
F95.74613475631755
tp57
aF87.07519665689593
g50
S'2012-03-02 10:23:44'
p58
I0
F1935.0043701532427
F606.9019875605962
tp59
a((lp60
(g24
g56
F203.79038515205477
tp61
a(g56
S'1286'
p62
F204.88150175530103
tp63
a(g62
S'1292'
p64
F873.144134384409
tp65
a(g64
S'873'
p66
F10.591957078217133
tp67
aF36.635186788440436
g58
S'2012-03-02 10:25:51'
p68
I42
F1292.407978369982
F1007.2202309021321
tp69
a((lp70
(g13
g66
F5591.6158119594
tp71
a(g66
S'936'
p72
F117.95681148015007
tp73
a(g72
S'791'
p74
F263.909236928096
tp75
a(g74
S'834'
p76
F344.3991517532198
tp77
a(g76
S'1068'
p78
F128.40964248009593
tp79
a(g78
S'834'
p80
F52.418966947791546
tp81
aF53.414051683962356
g68
S'2012-03-02 10:33:09'
p82
I0
F6498.709621548754
F5771.897448382921
tp83
a((lp84
(S'1068'
p85
g80
F180.82860942783458
tp86
a(g80
S'791'
p87
F344.3991517532198
tp88
a(g87
g76
F89.68643811151574
tp89
aF170.28393211178863
g82
S'2012-03-02 10:33:22'
p90
I0
F614.9141992925701
F70.2763424930918
tp91
a((lp92
(S'791'
p93
g76
F254.7127136505598
tp94
a(g76
g78
F128.40964248009593
tp95
a(g78
S'1032'
p96
F287.5482508719534
tp97
a(g96
S'796'
p98
F361.8967412680692
tp99
a(g98
S'1082'
p100
F137.28505847111882
tp101
a(g100
S'1127'
p102
F6.8306029289612695
tp103
a(g102
S'967'
p104
F164.27434257539696
tp105
aF40.22872056738467
g90
S'2012-03-02 10:35:22'
p106
I38
F1340.9573522461556
F859.0583777969525
tp107
a((lp108
(S'1127'
p109
g104
F354.9320074043412
tp110
a(g104
S'1127'
p111
F190.65766483400054
tp112
a(g111
S'988'
p113
F152.49726409143645
tp114
a(g113
S'937'
p115
F84.85729485795852
tp116
a(g115
S'1061'
p117
F38.03297872082315
tp118
aF9.951238907982544
g106
S'2012-03-02 10:40:19'
p119
I0
F820.9772099085599
F128.03564144139844
tp120
a((lp121
(S'937'
p122
g117
F892.5660588082974
tp123
a(g117
S'937'
p124
F930.5990375079346
tp125
a(g124
S'796'
p126
F117.72042469973982
tp127
a(g126
S'937'
p128
F151.4781063346472
tp129
aF443.088768144837
g119
S'2012-03-02 10:40:36'
p130
I0
F2092.363627350619
F68.00170063797394
tp131
a((lp132
(S'796'
p133
g128
F33.75768163580667
tp134
a(g128
S'901'
p135
F654.3387647481585
tp136
a(g135
S'1232'
p137
F500.4166198457959
tp138
a(g137
S'1151'
p139
F27.102772276797502
tp140
aF36.46847515519676
g130
S'2012-03-02 10:42:36'
p141
I33
F1215.6158385065585
F869.3486098738397
tp142
a((lp143
(S'1232'
p144
g139
F599.9041596212302
tp145
a(g139
S'1232'
p146
F572.8013873462398
tp147
a(g146
S'1031'
p148
F536.64824962327
tp149
a(g148
S'824'
p150
F46.15588656776289
tp151
aF105.33058098951017
g141
S'2012-03-02 10:43:36'
p152
I22
F1755.5096831585029
F492.5279371471792
tp153
a((lp154
(S'1031'
p155
g150
F510.3889519739634
tp156
a(g150
S'1031'
p157
F464.2330654185904
tp158
a(g157
S'1232'
p159
F46.15707041320437
tp160
aF408.31163512230324
g152
S'2012-03-02 10:43:45'
p161
I0
F1020.7790878057581
F1.234263686108017
tp162
a((lp163
(g155
g159
F490.4911792241765
tp164
a(g159
g148
F536.64824962327
tp165
a(g148
g150
F15.719250059342718
tp166
aF220.8406614155554
g161
S'2012-03-02 10:44:02'
p167
I0
F1042.8586789067892
F61.781802859048504
tp168
a((lp169
(g155
g150
F448.5138153631488
tp170
a(g150
g157
F464.2330654185904
tp171
a(g157
g159
F536.64824962327
tp172
a(g159
g139
F572.8013873462398
tp173
a(g139
S'1036'
p174
F499.30418929770127
tp175
a(g174
S'987'
p176
F700.189491494048
tp177
a(g176
S'1073'
p178
F0.5315086865468642
tp179
aF3.6546938078217903
g167
S'2012-03-02 11:36:56'
p180
I25
F3222.221707229545
F1653.1923625523027
tp181
a((lp182
(S'987'
p183
g178
F585.848006376196
tp184
a(g178
S'987'
p185
F585.3164976896943
tp186
a(g185
S'1229'
p187
F828.6057404004235
tp188
a(g187
S'895'
p189
F249.3697768587104
tp190
a(g189
S'973'
p191
F444.35669521011835
tp192
a(g191
S'1191'
p193
F228.2127574881823
tp194
aF54.21728920868026
g180
S'2012-03-02 11:40:10'
p195
I0
F2921.709474023325
F1780.622700072468
tp196
a((lp197
(S'973'
p198
g193
F184.1963761807874
tp199
a(g193
S'1218'
p200
F264.7542280364345
tp201
a(g200
S'986'
p202
F423.3470614498756
tp203
a(g202
S'1218'
p204
F369.94636280414494
tp205
aF95.15060643609516
g195
S'2012-03-02 11:40:57'
p206
I20
F1242.2440284712425
F145.271684104881
tp207
a((lp208
(S'986'
p209
g204
F53.400698655104634
tp210
a(g204
S'1191'
p211
F264.7542280364345
tp212
a(g211
g200
F37.96772788046309
tp213
aF14.736109844358712
g206
S'2012-03-02 11:42:24'
p214
I16
F356.1226545720022
F62.95861270167648
tp215
a((lp216
(S'1191'
p217
g200
F226.78650015598177
tp218
a(g200
S'1045'
p219
F380.2508287917065
tp220
a(g219
S'844'
p221
F161.05814139702346
tp222
a(g221
S'955'
p223
F135.70247565144197
tp224
a(g223
S'813'
p225
F56.66466961496389
tp226
a(g225
S'921'
p227
F182.17650096521103
tp228
a(g227
S'806'
p229
F107.48268907765393
tp230
a(g229
S'1020'
p231
F89.17262260415288
tp232
aF40.17883284774406
g214
S'2012-03-02 11:44:24'
p233
I33
F1339.2944282581354
F1185.8607007356281
tp234
a((lp235
(S'806'
p236
g231
F48.337004510182176
tp237
a(g231
S'1170'
p238
F201.74042609344684
tp239
a(g238
S'1066'
p240
F134.29559832461862
tp241
a(g240
S'923'
p242
F458.21326227003004
tp243
aF303.33106483137993
g233
S'2012-03-02 11:44:34'
p244
I1
F842.5862911982776
F13.582299213827376
tp245
a((lp246
(S'1066'
p247
g242
F865.7476141097062
tp248
a(g242
S'1066'
p249
F407.53435205726896
tp250
a(g249
S'1170'
p251
F134.29559832461862
tp252
a(g251
S'1020'
p253
F201.74042609344684
tp254
a(g253
S'806'
p255
F330.04022649267154
tp256
aF45.63195804888735
g244
S'2012-03-02 11:47:07'
p257
I0
F1939.3582170777122
F364.8619161040738
tp258
a((lp259
(S'1020'
p260
g255
F467.5498536025629
tp261
a(g255
S'959'
p262
F197.56237677218394
tp263
a(g262
S'1170'
p264
F135.9977572931447
tp265
a(g264
g240
F134.29559832461862
tp266
a(g240
g242
F428.32274918947473
tp267
aF109.0982668145588
g257
S'2012-03-02 11:47:52'
p268
I31
F1363.728335181985
F258.8055275279876
tp269
a((lp270
(g247
g242
F835.857101050356
tp271
a(g242
g249
F407.53435205726896
tp272
a(g249
g251
F134.29559832461862
tp273
a(g251
g253
F201.74042609344684
tp274
a(g253
S'1145'
p275
F138.3852165812993
tp276
a(g275
S'1028'
p277
F210.6065185280842
tp278
a(g277
S'772'
p279
F230.208379433524
tp280
a(g279
S'819'
p281
F232.03849592151013
tp282
a(g281
S'1233'
p283
F246.1127573590343
tp284
aF39.717170892288344
g268
S'2012-03-02 11:51:51'
p285
I0
F2636.7788453491426
F972.3305501008277
tp286
a((lp287
(S'819'
p288
g283
F33.99243906413608
tp289
a(g283
S'820'
p290
F255.3750506846333
tp291
a(g290
S'887'
p292
F1042.7797147525323
tp293
a(g292
S'1189'
p294
F211.8840444636607
tp295
a(g294
S'987'
p296
F497.92178645445773
tp297
aF38.48707291890007
g285
S'2012-03-02 11:55:02'
p298
I31
F2041.9530354194203
F1243.2079538773128
tp299
a((lp300
(S'1189'
p301
g296
F1038.9814666568918
tp302
a(g296
S'1189'
p303
F541.0596802687863
tp304
a(g303
S'887'
p305
F211.8840444636607
tp306
a(g305
g294
F412.0770095600916
tp307
aF132.24013205696585
g298
S'2012-03-02 11:56:02'
p308
I44
F2204.0022009494305
F696.2962737549522
tp309
a((lp310
(S'887'
p311
g294
F200.19296510071513
tp312
a(g294
g296
F541.0596802687863
tp313
a(g296
S'1036'
p314
F700.189491494048
tp315
a(g314
S'1151'
p316
F499.30418929770127
tp317
a(g316
g146
F572.8013873462398
tp318
a(g146
S'901'
p319
F500.4166198457959
tp320
a(g319
S'1157'
p321
F329.43858562166434
tp322
a(g321
S'1075'
p323
F42.87757714138974
tp324
a(g323
S'1159'
p325
F653.229543764915
tp326
a(g325
S'763'
p327
F12.65872730361995
tp328
a(g327
S'793'
p329
F807.7571788598872
tp330
a(g329
S'926'
p331
F153.4496992306447
tp332
a(g331
S'1039'
p333
F362.4720122345972
tp334
aF80.63771486265007
g308
S'2012-03-02 12:00:02'
p335
I70
F5375.847657510005
F3217.4499989243122
tp336
a.