(lp0
((lp1
(S'936'
p2
g2
F0.0
tp3
aF2.155120474159987
S'2012-03-02 14:03:48'
p4
S'2012-03-02 14:04:30'
p5
I0
F25.14307219853318
F45.441400932885166
tp6
a((lp7
(g2
S'873'
p8
F40.189694763425805
tp9
a(g8
S'817'
p10
F214.99477288859876
tp11
a(g10
S'909'
p12
F286.06989179438705
tp13
a(g12
S'1139'
p14
F384.6361930519455
tp15
a(g14
S'1160'
p16
F999.898841596365
tp17
a(g16
S'1113'
p18
F446.5598225427796
tp19
aF70.58229074293394
g5
S'2012-03-02 14:06:31'
p20
I18
F2372.3492166375017
F1394.4885445249313
tp21
a((lp22
(S'1160'
p23
g18
F729.289305331145
tp24
a(g18
S'906'
p25
F504.1784455245772
tp26
a(g25
S'830'
p27
F1055.3265253741486
tp28
a(g27
S'942'
p29
F565.0355820413071
tp30
a(g29
S'1056'
p31
F259.19830405018683
tp32
a(g31
S'942'
p33
F376.9623771166995
tp34
aF69.79981078876128
g20
S'2012-03-02 14:09:31'
p35
I50
F3489.990539438064
F1297.0005124159147
tp36
a((lp37
(S'1056'
p38
g38
F0.0
tp39
aF25.973134690767996
g35
S'2012-03-02 14:10:31'
p40
I40
F432.88557817946656
F432.9296334578103
tp41
a((lp42
(g38
g33
F203.275102987411
tp43
a(g33
S'985'
p44
F5.945949260982402
tp45
aF34.23617218610074
g40
S'2012-03-02 14:10:53'
p46
I48
F209.2210522483934
F109.48006728778681
tp47
a((lp48
(S'942'
p49
g44
F256.1552357997467
tp50
a(g44
S'942'
p51
F262.1011850602843
tp52
a(g51
S'830'
p53
F565.0355820413071
tp54
a(g53
S'906'
p55
F1055.3265253741486
tp56
a(g55
S'1010'
p57
F1626.56736988427
tp58
a(g57
S'1154'
p59
F507.7471347885134
tp60
a(g59
S'838'
p61
F408.60278932750214
tp62
a(g61
S'1032'
p63
F227.63652122124267
tp64
a(g63
S'903'
p65
F505.46234075930016
tp66
a(g65
S'1158'
p67
F3486.0167626901602
tp68
a(g67
S'233'
p69
F505.9919712639641
tp70
a(g69
S'324'
p71
F262.6524222229624
tp72
aF5.428799910411766
g46
S'2012-03-02 15:57:45'
p73
I0
F9669.2958404334
F8273.197010139274
tp74
a((lp75
(S'233'
p76
g71
F259.55548698092025
tp77
a(g71
S'233'
p78
F522.2079091612247
tp79
a(g78
S'1158'
p80
F505.9919712639641
tp81
a(g80
S'371'
p82
F343.4160234801613
tp83
a(g82
S'323'
p84
F502.52151206068487
tp85
a(g84
S'195'
p86
F899.3736486026992
tp87
a(g86
S'160'
p88
F1654.504702992569
tp89
a(g88
S'206'
p90
F186.97670520857986
tp91
aF145.02787318266854
g73
S'2012-03-02 15:59:46'
p92
I62
F4874.547959750804
F2461.7634395831014
tp93
a((lp94
(S'160'
p95
g90
F2790.9571935969216
tp96
a(g90
S'160'
p97
F2977.933896935319
tp98
a(g97
S'195'
p99
F1654.504702992569
tp100
a(g99
S'323'
p101
F899.3736486026992
tp102
a(g101
S'371'
p103
F502.52151206068487
tp104
a(g103
S'1158'
p105
F343.4160234801613
tp106
a(g105
g69
F505.9919712639641
tp107
a(g69
g71
F522.2079091612247
tp108
a(g71
S'12'
p109
F348.33486400960794
tp110
a(g109
S'307'
p111
F336.87317808984017
tp112
a(g111
S'101'
p113
F516.3741780275716
tp114
a(g113
S'231'
p115
F2128.2368240663845
tp116
a(g115
S'37'
p117
F1230.1532257749107
tp118
a(g117
S'406'
p119
F709.895434390015
tp120
a(g119
S'235'
p121
F8.52083132525035
tp122
aF309.5059078755425
g92
S'2012-03-02 16:02:46'
p123
I77
F15475.295393777124
F3090.041283839227
tp124
a((lp125
(S'406'
p126
g121
F1272.1959263363813
tp127
a(g121
S'406'
p128
F1280.716757645314
tp129
a(g128
S'463'
p130
F0.3135516174578988
tp131
aF158.47611117511988
g123
S'2012-03-02 16:03:44'
p132
I0
F2553.2262355991534
F59.77074340019498
tp133
a((lp134
(g126
g130
F523.4541522950924
tp135
a(g130
S'1303'
p136
F120.65174252365313
tp137
aF38.64635368912474
g132
S'2012-03-02 16:04:44'
p138
I27
F644.1058948187456
F644.3754862155491
tp139
a((lp140
(S'463'
p141
g141
F0.0
tp142
aF24.52030865031663
g138
S'2012-03-02 16:05:17'
p143
I42
F224.76949596123578
F224.81382201087172
tp144
a((lp145
(g141
g136
F571.3241984661399
tp146
a(g136
S'1284'
p147
F329.8939352505153
tp148
aF58.98882329781744
g143
S'2012-03-02 16:06:12'
p149
I0
F901.2181337166553
F240.03167485675172
tp150
a((lp151
(S'1303'
p152
g147
F722.9430286883554
tp153
a(g147
S'1303'
p154
F393.0490934460226
tp155
a(g154
S'451'
p156
F5.347673687224161
tp157
aF57.66890378511097
g149
S'2012-03-02 16:07:22'
p158
I0
F1121.3397958216021
F30.81934573646698
tp159
a((lp160
(g152
g156
F553.3824036690105
tp161
a(g156
S'1303'
p162
F558.7300773543896
tp163
a(g162
g147
F258.82813386620694
tp164
aF329.02574757350567
g158
S'2012-03-02 16:07:37'
p165
I0
F1370.9406148896069
F40.607602615300266
tp166
a((lp167
(g152
g147
F651.8772273064491
tp168
a(g147
S'1402'
p169
F532.13818844487
tp170
a(g169
S'1345'
p171
F621.7851744782233
tp172
a(g171
S'99'
p173
F384.78659929766803
tp174
a(g173
S'250'
p175
F217.82705895405996
tp176
aF56.66857055250048
g165
S'2012-03-02 16:10:10'
p177
I25
F2408.4142484812705
F973.5383309741513
tp178
a((lp179
(S'99'
p180
g175
F931.9937164750384
tp181
a(g175
S'99'
p182
F714.166657688526
tp183
a(g182
S'1345'
p184
F15.43290526243529
tp185
aF106.81671082024285
g177
S'2012-03-02 16:11:06'
p186
I0
F1661.5932794259998
F44.48600351644373
tp187
a((lp188
(g180
g184
F400.21950456009256
tp189
a(g184
S'1402'
p190
F621.7851744782233
tp191
a(g190
S'1284'
p192
F66.37189844877823
tp193
aF53.67336546511698
g186
S'2012-03-02 16:12:19'
p194
I25
F1088.3765774870942
F362.38206011403685
tp195
a((lp196
(S'1402'
p197
g192
F598.510086868926
tp198
a(g192
g154
F393.0490934460226
tp199
a(g154
S'463'
p200
F916.7454369448138
tp201
a(g200
g136
F74.43160053587262
tp202
aF57.102803072514284
g194
S'2012-03-02 16:14:24'
p203
I27
F1982.736217795635
F1009.9337974741183
tp204
a((lp205
(g141
g136
F842.3138364108368
tp206
a(g136
g200
F916.7454369448138
tp207
a(g200
S'406'
p208
F2.524779388488518
tp209
aF192.17280575390606
g203
S'2012-03-02 16:14:57'
p210
I0
F1761.584052744139
F72.22614234689406
tp211
a((lp212
(g141
g208
F525.665380066159
tp213
a(g208
g130
F75.19151168004348
tp214
aF47.0235828323115
g210
S'2012-03-02 16:15:43'
p215
I40
F600.8568917462025
F450.73294872662456
tp216
a((lp217
(g126
g130
F447.94908899848303
tp218
a(g130
g208
F488.0892353872207
tp219
aF59.118209961202346
g215
S'2012-03-02 16:16:40'
p220
I0
F936.0383243857037
F40.17190811570797
tp221
a((lp222
(g141
g208
F35.05136529090537
tp223
a(g208
S'37'
p224
F709.895434390015
tp225
a(g224
S'231'
p226
F1230.1532257749107
tp227
a(g226
S'101'
p228
F2128.2368240663845
tp229
a(g228
S'307'
p230
F516.3741780275716
tp231
a(g230
S'12'
p232
F336.87317808984017
tp233
a(g232
S'324'
p234
F348.33486400960794
tp235
a(g234
g78
F522.2079091612247
tp236
a(g78
g80
F505.9919712639641
tp237
a(g80
g82
F343.4160234801613
tp238
a(g82
g84
F502.52151206068487
tp239
a(g84
g86
F899.3736486026992
tp240
a(g86
g88
F1654.504702992569
tp241
a(g88
S'348'
p242
F749.9190888032648
tp243
a(g242
S'40'
p244
F401.59962843252373
tp245
a(g244
S'400'
p246
F175.03635260490466
tp247
a(g246
S'359'
p248
F368.9484986175782
tp249
a(g248
S'220'
p250
F423.40012907983873
tp251
a(g250
S'196'
p252
F611.7560822228065
tp253
a(g252
S'328'
p254
F208.72880849237106
tp255
a(g254
S'196'
p256
F324.5560391295785
tp257
aF389.90638393780205
g220
S'2012-03-02 16:18:40'
p258
I20
F12996.879464593401
F1186.2636540872697
tp259
a((lp260
(S'328'
p261
g256
F533.2848475780058
tp262
a(g256
S'220'
p263
F611.7560822228065
tp264
a(g263
S'359'
p265
F423.40012907983873
tp266
a(g265
S'400'
p267
F368.9484986175782
tp268
a(g267
S'40'
p269
F175.03635260490466
tp270
a(g269
S'348'
p271
F401.59962843252373
tp272
a(g271
S'160'
p273
F749.9190888032648
tp274
a(g273
g99
F288.70207609970174
tp275
aF106.57940110315874
g258
S'2012-03-02 16:20:40'
p276
I72
F3552.6467034386246
F2479.141689838518
tp277
a((lp278
(g95
g99
F1365.8026276770477
tp279
a(g99
g101
F899.3736486026992
tp280
a(g101
S'200'
p281
F638.105914332198
tp282
a(g281
S'190'
p283
F65.9676834156334
tp284
a(g283
S'1'
p285
F133.23962227802784
tp286
a(g285
S'392'
p287
F439.22360540167267
tp288
aF70.83426203414558
g276
S'2012-03-02 16:23:40'
p289
I68
F3541.713101707279
F3273.5833202333124
tp290
a.