(lp0
((lp1
(S'967'
p2
g2
F0.0
tp3
aF1.8677355764455925
S'2012-03-02 07:50:06'
p4
S'2012-03-02 07:51:45'
p5
I5
F51.3627283522538
F64.12136346762308
tp6
a((lp7
(g2
S'1154'
p8
F474.21543201862244
tp9
a(g8
S'967'
p10
F633.0663908294133
tp11
a(g10
S'900'
p12
F217.51739317672622
tp13
a(g12
S'809'
p14
F144.0605230869943
tp15
aF160.23924426673702
g5
S'2012-03-02 07:52:18'
p16
I27
F1468.859739111756
F242.66932170116556
tp17
a((lp18
(S'900'
p19
g14
F818.8547695457501
tp20
a(g14
S'900'
p21
F674.794246559625
tp22
a(g21
S'967'
p23
F217.51739317672622
tp24
a(g23
g8
F633.0663908294133
tp25
a(g8
S'873'
p26
F283.675693040847
tp27
aF295.63970547964067
g16
S'2012-03-02 07:52:50'
p28
I0
F2627.9084931523616
F56.98061539781554
tp29
a((lp30
(S'1154'
p31
g26
F943.3398908760133
tp32
a(g26
S'1292'
p33
F46.70342600281252
tp34
aF45.69430693286889
g28
S'2012-03-02 07:54:08'
p35
I31
F990.0433168788259
F888.8329038586761
tp36
a((lp37
(S'873'
p38
g33
F5627.727279582269
tp39
a(g33
S'873'
p40
F5581.023855259741
tp41
a(g40
S'817'
p42
F214.99477288859876
tp43
a(g42
S'909'
p44
F286.06989179438705
tp45
a(g44
S'1139'
p46
F423.6235951205601
tp47
aF766.3224880828773
g35
S'2012-03-02 07:55:05'
p48
I0
F12133.439394645557
F51.56763210167275
tp49
a((lp50
(S'909'
p51
g46
F808.2597881682057
tp52
a(g46
S'909'
p53
F384.6361930519455
tp54
a(g53
S'817'
p55
F286.06989179438705
tp56
a(g55
S'873'
p57
F214.99477288859876
tp58
a(g57
S'1154'
p59
F354.68764401308664
tp60
aF58.532808283320676
g48
S'2012-03-02 07:57:11'
p61
I27
F2048.648289916224
F395.2541831517267
tp62
a((lp63
(g38
g59
F1014.3518417777786
tp64
a(g59
g26
F659.6641980397137
tp65
a(g26
g42
F214.99477288859876
tp66
a(g42
g44
F286.06989179438705
tp67
a(g44
S'827'
p68
F290.5046149060364
tp69
aF986.2341277626058
g61
S'2012-03-02 07:57:20'
p70
I9
F2465.5853194065144
F60.74174278847547
tp71
a((lp72
(g51
g68
F680.7538451022667
tp73
a(g68
S'909'
p74
F390.24923028502263
tp75
a(g74
g55
F286.06989179438705
tp76
a(g55
g57
F214.99477288859876
tp77
a(g57
g33
F0.6436981975843501
tp78
aF94.36268629607159
g70
S'2012-03-02 07:58:20'
p79
I38
F1572.7114382678596
F342.0723992696717
tp80
a((lp81
(g38
g33
F5580.3801570851565
tp82
a(g33
g40
F5581.023855259741
tp83
a(g40
g59
F659.6641980397137
tp84
a(g59
g10
F633.0663908294133
tp85
a(g10
S'1127'
p86
F198.957394780076
tp87
aF257.3510236473376
g79
S'2012-03-02 08:01:17'
p88
I0
F12653.0919959941
F869.5876168472001
tp89
a((lp90
(g2
g86
F389.6150596073553
tp91
a(g86
S'988'
p92
F152.49726409143645
tp93
a(g92
S'777'
p94
F428.69502991180303
tp95
a(g94
S'1185'
p96
F465.5645320107461
tp97
a(g96
S'1073'
p98
F401.933419412357
tp99
a(g98
S'987'
p100
F488.32488296008546
tp101
aF22.39537079352305
g88
S'2012-03-02 08:07:31'
p102
I0
F2326.6301879937837
F2497.9304921327516
tp103
a((lp104
(S'1073'
p105
g100
F96.99161473608342
tp106
a(g100
S'1189'
p107
F541.0596802687863
tp108
a(g107
S'887'
p109
F211.8840444636607
tp110
a(g109
S'1027'
p111
F974.3320508593303
tp112
a(g111
S'842'
p113
F108.42347341772006
tp114
a(g113
S'929'
p115
F138.91582185729666
tp116
a(g115
S'414'
p117
F303.12038890948725
tp118
a(g117
S'371'
p119
F739.6760747221767
tp120
a(g119
S'1'
p121
F725.2487623614271
tp122
a(g121
S'333'
p123
F975.8745201557714
tp124
a(g123
S'117'
p125
F172.715636685259
tp126
a(g125
S'132'
p127
F2691.837296797234
tp128
a(g127
S'434'
p129
F360.3865388054371
tp130
aF48.242795424238025
g102
S'2012-03-02 08:17:31'
p131
I57
F8040.46590403967
F7431.0385172351625
tp132
a((lp133
(S'132'
p134
g129
F801.0003796323601
tp135
a(g129
S'132'
p136
F1161.3869181685393
tp137
a(g136
S'117'
p138
F2691.837296797234
tp139
a(g138
S'333'
p140
F172.715636685259
tp141
a(g140
g121
F975.8745201557714
tp142
a(g121
S'190'
p143
F163.22765477895774
tp144
aF4.143085004318141
g131
S'2012-03-02 09:43:55'
p145
I68
F5966.042406218122
F4223.815416168832
tp146
a((lp147
(g121
g143
F296.46727704929464
tp148
a(g143
g121
F133.23962227802784
tp149
a(g121
S'371'
p150
F725.2487623614271
tp151
a(g150
S'1158'
p152
F343.4160234801613
tp153
a(g152
S'233'
p154
F505.9919712639641
tp155
a(g154
S'1222'
p156
F314.42150737049457
tp157
a(g156
S'1209'
p158
F529.8005662370716
tp159
a(g158
S'1104'
p160
F340.0113446486208
tp161
a(g160
S'121'
p162
F348.95206538914294
tp163
a(g162
S'307'
p164
F33.126354125181315
tp165
aF75.17211566743973
g145
S'2012-03-02 09:46:46'
p166
I72
F3570.6754942033867
F2704.206720142285
tp167
a((lp168
(S'121'
p169
g164
F322.16135889330604
tp170
a(g164
S'101'
p171
F516.3741780275716
tp172
a(g171
S'923'
p173
F930.3605400765287
tp174
a(g173
S'1066'
p175
F70.0659935751592
tp176
aF29.423393129161045
g166
S'2012-03-02 09:50:31'
p177
I0
F1838.9620705725654
F712.5468194021015
tp178
a((lp179
(S'923'
p180
g175
F477.6003456139686
tp181
a(g175
S'1170'
p182
F134.29559832461862
tp183
a(g182
S'959'
p184
F135.9977572931447
tp185
a(g184
S'927'
p186
F106.9390388791336
tp187
a(g186
S'921'
p188
F195.5482192140499
tp189
a(g188
S'813'
p190
F182.17650096521103
tp191
a(g190
S'955'
p192
F56.66466961496389
tp193
a(g192
S'844'
p194
F135.70247565144197
tp195
a(g194
S'1045'
p196
F161.05814139702346
tp197
a(g196
S'869'
p198
F179.63495925559937
tp199
aF34.9243062766646
g177
S'2012-03-02 09:53:33'
p200
I0
F1765.6177062091551
F807.7261484216725
tp201
a((lp202
(S'1045'
p203
g203
F0.0
tp204
aF0.0
g200
S'2012-03-02 09:57:35'
p205
I0
F0.0
F0.0
tp206
a((lp207
(g203
g203
F0.0
tp208
aF0.0
g205
S'2012-03-02 10:01:35'
p209
I0
F0.0
F0.0
tp210
a((lp211
(g203
g203
F0.0
tp212
aF0.0
g209
S'2012-03-02 10:03:36'
p213
I0
F0.0
F0.0
tp214
a((lp215
(g203
g203
F0.0
tp216
aF0.0
g213
S'2012-03-02 10:04:36'
p217
I0
F0.0
F0.0
tp218
a((lp219
(g203
g203
F0.0
tp220
aF0.0
g217
S'2012-03-02 10:05:36'
p221
I0
F0.0
F0.0
tp222
a((lp223
(g203
g203
F0.0
tp224
aF0.0
g221
S'2012-03-02 10:06:36'
p225
I0
F0.0
F0.0
tp226
a((lp227
(g203
g203
F0.0
tp228
aF0.0
g225
S'2012-03-02 10:09:36'
p229
I0
F0.0
F0.0
tp230
a((lp231
(g203
g203
F0.0
tp232
aF0.0
g229
S'2012-03-02 10:12:36'
p233
I0
F0.0
F0.0
tp234
a((lp235
(g203
g198
F622.8124180019216
tp236
a(g198
S'1046'
p237
F156.17213501704404
tp238
a(g237
S'1111'
p239
F224.7758530051457
tp240
a(g239
S'1215'
p241
F235.85216675763905
tp242
a(g241
S'799'
p243
F216.60117519723585
tp244
a(g243
S'1207'
p245
F101.1060544565955
tp246
a(g245
S'806'
p247
F141.0377369821515
tp248
a(g247
S'959'
p249
F197.56237677218394
tp250
a(g249
S'1170'
p251
F135.9977572931447
tp252
a(g251
S'1066'
p253
F134.29559832461862
tp254
a(g253
S'923'
p255
F159.66900901094834
tp256
aF35.32985743015639
g233
S'2012-03-02 10:16:33'
p257
I0
F2325.8822808186287
F252.67122216807593
tp258
a((lp259
(S'1066'
p260
g255
F567.2033610184537
tp261
a(g255
S'888'
p262
F173.41132553254465
tp263
aF17.426227918847022
g257
S'2012-03-02 10:19:06'
p264
I0
F740.6146865509984
F634.2419024684823
tp265
a.