(lp0
((lp1
(S'824'
p2
S'1159'
p3
F501.7462197463305
tp4
a(g3
S'824'
p5
F590.0411371143654
tp6
a(g5
S'1031'
p7
F487.39236654672976
tp8
aF284.2523502133366
S'2012-03-02 08:37:42'
p9
S'2012-03-02 08:38:02'
p10
I0
F1579.1797234074256
F45.8739025338969
tp11
a((lp12
(g2
g7
F23.159301133999588
tp13
a(g7
S'1232'
p14
F536.64824962327
tp15
a(g14
S'1151'
p16
F6.324322088617219
tp17
aF37.74212485639246
g10
S'2012-03-02 08:38:56'
p18
I27
F566.1318728458868
F431.92945085511775
tp19
a((lp20
(S'1232'
p21
g16
F579.1257094344027
tp22
a(g16
S'1232'
p23
F572.8013873462398
tp24
a(g23
S'1031'
p25
F536.64824962327
tp26
a(g25
g14
F490.79106289423777
tp27
aF280.2042526240479
g18
S'2012-03-02 08:39:24'
p28
I0
F2179.3664092981503
F35.572798020155766
tp29
a((lp30
(S'1031'
p31
g14
F45.85718674306142
tp32
a(g14
g16
F248.55487234271297
tp33
aF17.664723545146465
g28
S'2012-03-02 08:40:24'
p34
I20
F294.4120590857744
F269.7518707903524
tp35
a((lp36
(g21
g16
F324.24651501213424
tp37
a(g16
S'1036'
p38
F10.189712257383347
tp39
aF11.576638636252532
g34
S'2012-03-02 08:42:08'
p40
I25
F334.4362272695176
F314.10769958524475
tp41
a((lp42
(S'1151'
p43
g38
F509.4939015549316
tp44
a(g38
S'989'
p45
F786.7860140536283
tp46
a(g45
S'1115'
p47
F1111.3964106739522
tp48
a(g47
S'263'
p49
F61.08454721453482
tp50
aF29.526708121559366
g40
S'2012-03-02 08:47:09'
p51
I12
F2468.7608734970468
F2339.754421628781
tp52
a((lp53
(S'1115'
p54
g49
F533.5052040381441
tp55
a(g49
S'393'
p56
F445.7984204400668
tp57
a(g56
S'414'
p58
F82.01156142123234
tp59
a(g58
S'371'
p60
F739.6760747221767
tp61
a(g60
S'323'
p62
F502.52151206068487
tp63
a(g62
S'195'
p64
F59.47293787827955
tp65
aF1.1506490677692554
g51
S'2012-03-02 10:50:22'
p66
I0
F2362.9857105605847
F1811.9590077621306
tp67
a((lp68
(S'323'
p69
g64
F958.846586421353
tp70
a(g64
S'160'
p71
F1654.504702992569
tp72
a(g71
S'206'
p73
F76.01674833823476
tp74
aF80.6810411325647
g66
S'2012-03-02 10:52:22'
p75
I85
F2689.368037752157
F2684.595772099356
tp76
a((lp77
(S'160'
p78
g73
F2901.917149387574
tp79
a(g73
S'160'
p80
F2977.933896935319
tp81
a(g80
S'195'
p82
F1654.504702992569
tp83
a(g82
S'323'
p84
F899.3736486026992
tp85
a(g84
S'371'
p86
F502.52151206068487
tp87
a(g86
S'1158'
p88
F343.4160234801613
tp89
a(g88
S'233'
p90
F505.9919712639641
tp91
a(g90
S'324'
p92
F522.2079091612247
tp93
a(g92
S'12'
p94
F348.33486400960794
tp95
a(g94
S'307'
p96
F336.87317808984017
tp97
a(g96
S'101'
p98
F516.3741780275716
tp99
a(g98
S'231'
p100
F2128.2368240663845
tp101
a(g100
S'37'
p102
F1230.1532257749107
tp103
a(g102
S'406'
p104
F709.895434390015
tp105
a(g104
S'463'
p106
F41.61960527025573
tp107
aF312.3870824702557
g75
S'2012-03-02 10:55:22'
p108
I79
F15619.354123512783
F3190.988843966599
tp109
a((lp110
(S'406'
p111
g111
F0.0
tp112
aF3.6021079100668256
g108
S'2012-03-02 10:56:02'
p113
I0
F40.02342122296473
F40.109810163567865
tp114
a((lp115
(g111
g106
F524.7367847249793
tp116
a(g106
S'1303'
p117
F373.76995155005665
tp118
aF53.91040417650216
g113
S'2012-03-02 10:57:02'
p119
I25
F898.506736275036
F898.6335503860167
tp120
a((lp121
(S'463'
p122
g117
F542.9754854008276
tp123
a(g117
S'1284'
p124
F311.35813665020333
tp125
aF17.086672441020617
g119
S'2012-03-02 11:00:02'
p126
I18
F854.3336220510309
F854.0287056858768
tp127
a((lp128
(S'1303'
p129
g124
F81.69095679672357
tp130
a(g124
S'1382'
p131
F37.95801354399463
tp132
aF9.571917627257456
g126
S'2012-03-02 11:00:47'
p133
I31
F119.6489703407182
F118.36148967593886
tp134
a((lp135
(S'1284'
p136
g131
F231.5697999948707
tp137
a(g131
S'1264'
p138
F491.1492433133898
tp139
a(g138
S'1344'
p140
F368.4326560017038
tp141
a(g140
S'1240'
p142
F250.2318674071064
tp143
aF80.48301400302424
g133
S'2012-03-02 11:01:47'
p144
I38
F1341.3835667170706
F817.0196468368345
tp145
a((lp146
(S'1344'
p147
g142
F30.856886010646885
tp148
a(g142
S'1377'
p149
F450.20487229242497
tp150
a(g149
S'1328'
p151
F333.1517187827906
tp152
aF66.61746630702511
g144
S'2012-03-02 11:02:31'
p153
I40
F814.2134770858625
F399.1409215149988
tp154
a((lp155
(S'1377'
p156
g151
F4.798336377569293
tp157
a(g151
S'1300'
p158
F18.30816149075679
tp159
aF1.4593577601048051
g153
S'2012-03-02 11:03:28'
p160
I0
F23.10649786832608
F54.9266040022989
tp161
a((lp162
(S'1328'
p163
g158
F1005.1040265958195
tp164
a(g158
S'1378'
p165
F353.5592161318944
tp166
aF81.51979456366283
g160
S'2012-03-02 11:04:28'
p167
I31
F1358.6632427277139
F652.3737444884376
tp168
a((lp169
(S'1300'
p170
g165
F549.111807426786
tp171
a(g165
S'1381'
p172
F486.319094641144
tp173
a(g172
S'1279'
p174
F595.3972903281316
tp175
a(g174
S'1294'
p176
F383.85231039779774
tp177
a(g176
S'1354'
p178
F449.461399645074
tp179
aF49.282838048778665
g167
S'2012-03-02 11:07:28'
p180
I77
F2464.1419024389334
F1331.0505085526975
tp181
a((lp182
(S'1294'
p183
g178
F945.3346770064738
tp184
a(g178
S'1294'
p185
F495.8732773813718
tp186
a(g185
S'1335'
p187
F464.9128138057232
tp188
a(g187
S'1314'
p189
F1.2942930767935115
tp190
aF46.39658257144125
g180
S'2012-03-02 11:09:56'
p191
I0
F1907.4150612703625
F164.11352812649878
tp192
a((lp193
(S'1335'
p194
g189
F379.4652565187882
tp195
a(g189
S'1257'
p196
F331.9978721556281
tp197
a(g196
S'1300'
p198
F909.1318739707772
tp199
a(g198
S'1328'
p200
F1023.4121880864786
tp201
a(g200
S'1384'
p202
F573.9604384116748
tp203
a(g202
S'1382'
p204
F446.6556103196644
tp205
a(g204
S'871'
p206
F469.15012441258057
tp207
aF38.754125286333675
g191
S'2012-03-02 11:16:20'
p208
I0
F4133.773363875592
F2990.107374322931
tp209
a((lp210
(S'1382'
p211
g206
F334.38786340152035
tp212
a(g206
S'1137'
p213
F404.8816121047468
tp214
a(g213
S'1072'
p215
F827.5221670782628
tp216
a(g215
S'271'
p217
F455.13887535379115
tp218
a(g217
S'336'
p219
F145.7434125243181
tp220
a(g219
S'26'
p221
F285.23407285737323
tp222
aF30.875765076755403
g208
S'2012-03-02 11:21:06'
p223
I0
F2452.9080033200125
F2136.4331278755153
tp224
a((lp225
(S'336'
p226
g221
F36.188768907361656
tp227
a(g221
S'5'
p228
F259.35658898200876
tp229
a(g228
S'231'
p230
F373.65454097386885
tp231
a(g230
S'101'
p232
F2128.2368240663845
tp233
a(g232
S'923'
p234
F930.3605400765287
tp235
a(g234
S'1066'
p236
F482.6612861906792
tp237
aF252.62751295180993
g223
S'2012-03-02 11:22:06'
p238
I70
F4210.458549196832
F1304.4721473828745
tp239
a((lp240
(S'923'
p241
g236
F890.1956380122366
tp242
a(g236
S'1170'
p243
F134.29559832461862
tp244
a(g243
S'959'
p245
F135.9977572931447
tp246
a(g245
S'806'
p247
F197.56237677218394
tp248
a(g247
S'1207'
p249
F141.0377369821515
tp250
a(g249
S'806'
p251
F424.8090151832468
tp252
aF8.17713487750094
g238
S'2012-03-02 11:36:13'
p253
I66
F1923.8981225675823
F1737.7009749045792
tp254
a((lp255
(S'1207'
p256
g251
F565.8467521250658
tp257
a(g251
S'959'
p258
F197.56237677218394
tp259
a(g258
S'1213'
p260
F159.27354120793285
tp261
a(g260
S'1066'
p262
F23.40543968428938
tp263
aF14.938233312465346
g253
S'2012-03-02 11:40:01'
p264
I35
F946.0881097894719
F766.7350149093805
tp265
a((lp266
(S'1213'
p267
g262
F149.4114806405713
tp268
a(g262
g243
F134.29559832461862
tp269
a(g243
g245
F135.9977572931447
tp270
a(g245
g247
F197.56237677218394
tp271
a(g247
g249
F141.0377369821515
tp272
a(g249
S'799'
p273
F101.1060544565955
tp274
a(g273
S'1215'
p275
F216.60117519723585
tp276
a(g275
S'1030'
p277
F229.64658602255514
tp278
a(g277
S'860'
p279
F230.54817177966603
tp280
a(g279
S'1069'
p281
F231.70867622577373
tp282
a(g281
S'970'
p283
F400.91478496545534
tp284
aF38.844723558088695
g264
S'2012-03-02 11:43:22'
p285
I20
F2168.830398659952
F1391.789245810412
tp286
a((lp287
(S'1069'
p288
g283
F100.72461276532616
tp289
a(g283
S'820'
p290
F247.7378419176489
tp291
a(g290
S'887'
p292
F378.314127005826
tp293
aF28.13328703311488
g285
S'2012-03-02 11:44:55'
p294
I46
F726.776581688801
F309.9042253153657
tp295
a((lp296
(S'820'
p297
g297
F0.0
tp298
aF35.44962397689682
g294
S'2012-03-02 11:44:59'
p299
I25
F39.388471085440905
F39.40326944784495
tp300
a((lp301
(g297
g292
F625.0771169868999
tp302
a(g292
S'1189'
p303
F211.8840444636607
tp304
a(g303
S'987'
p305
F200.72890430356074
tp306
aF76.23845381050687
g299
S'2012-03-02 11:45:48'
p307
I37
F1037.6900657541214
F523.405897624795
tp308
a((lp309
(S'1189'
p310
g305
F741.7885845532151
tp311
a(g305
S'1189'
p312
F541.0596802687863
tp313
a(g312
S'887'
p314
F211.8840444636607
tp315
a(g314
S'989'
p316
F47.12684588617673
tp317
aF326.51135050697764
g307
S'2012-03-02 11:46:05'
p318
I0
F1541.8591551718387
F54.854368504582446
tp319
a((lp320
(S'887'
p321
g316
F738.0431842113671
tp322
a(g316
S'1230'
p323
F396.62742466432553
tp324
a(g323
S'812'
p325
F422.7302870225144
tp326
aF93.44405375389243
g318
S'2012-03-02 11:47:05'
p327
I25
F1557.4008958982072
F713.4774597030803
tp328
a((lp329
(S'1230'
p330
g325
F775.2278644230704
tp331
a(g325
S'966'
p332
F46.97816078752045
tp333
a(g332
S'1043'
p334
F32.97473740487848
tp335
a(g334
S'1156'
p336
F231.04496056614346
tp337
a(g336
S'761'
p338
F230.5019342328771
tp339
a(g338
S'1035'
p340
F250.99979661307464
tp341
a(g340
S'1134'
p342
F205.6372669879012
tp343
a(g342
S'1055'
p344
F108.10349436699097
tp345
a(g344
S'910'
p346
F86.53522993240091
tp347
a(g346
S'828'
p348
F133.26943002905048
tp349
a(g348
S'1026'
p350
F38.614359926515476
tp351
a(g350
S'841'
p352
F626.7879620953058
tp353
a(g352
S'1174'
p354
F184.86381936710976
tp355
a(g354
S'824'
p356
F106.9204403928481
tp357
a(g356
g3
F590.0411371143654
tp358
a(g3
S'763'
p359
F12.65872730361995
tp360
a(g359
S'793'
p361
F807.7571788598872
tp362
a(g361
S'1187'
p363
F936.9634855721417
tp364
a(g363
S'1164'
p365
F539.6604647224013
tp366
a(g365
S'822'
p367
F297.58031311490504
tp368
a(g367
S'1182'
p369
F298.5349557647092
tp370
a(g369
S'1133'
p371
F12.743405002588746
tp372
a(g371
S'1177'
p373
F544.2648983785294
tp374
a(g373
S'997'
p375
F26.910723178818078
tp376
aF1.1331920787248995
g327
S'2012-03-02 18:04:22'
p377
I48
F7125.574746137653
F5916.520750660025
tp378
a((lp379
(S'1177'
p380
g375
F451.69877730849817
tp381
a(g375
S'1177'
p382
F478.6095004805797
tp383
a(g382
S'1133'
p384
F544.2648983785294
tp385
a(g384
S'1182'
p386
F12.743405002588746
tp387
a(g386
S'822'
p388
F298.5349557647092
tp389
a(g388
S'1164'
p390
F297.58031311490504
tp391
a(g390
S'1187'
p392
F539.6604647224013
tp393
a(g392
S'793'
p394
F936.9634855721417
tp395
a(g394
S'763'
p396
F807.7571788598872
tp397
a(g396
S'1159'
p398
F242.39365465437407
tp399
aF3.2632213688342535
g377
S'2012-03-02 19:29:08'
p400
I9
F4610.206633858615
F3397.6382051859664
tp401
a((lp402
(S'763'
p403
g398
F229.73492735147858
tp404
a(g398
S'1075'
p405
F653.229543764915
tp406
a(g405
S'1099'
p407
F42.78531232202776
tp408
a(g407
S'1157'
p409
F104.33250620655384
tp410
aF1236.0987475739703
g400
S'2012-03-02 19:29:11'
p411
I0
F1030.0822896449752
F0.8803602805840884
tp412
a((lp413
(S'1099'
p414
g409
F114.95645334779425
tp415
a(g409
S'901'
p416
F308.86865307206807
tp417
aF762.8851915557522
g411
S'2012-03-02 19:29:13'
p418
I0
F423.8251064198623
F0.244628839019434
tp419
a((lp420
(S'1157'
p421
g416
F638.3072386062889
tp422
a(g416
S'1157'
p423
F329.43858562166434
tp424
a(g423
S'1075'
p425
F42.87757714138974
tp426
a(g425
S'1159'
p427
F653.229543764915
tp428
a(g427
g359
F12.65872730361995
tp429
a(g359
g398
F246.14610651095816
tp430
aF115.35946673693017
g418
S'2012-03-02 19:30:13'
p431
I0
F1922.6577789488363
F10.88456476070674
tp432
a((lp433
(g403
g398
F233.4873792080862
tp434
a(g398
g5
F94.61368459304057
tp435
aF62.166517351792436
g431
S'2012-03-02 19:30:32'
p436
I0
F328.10106380112677
F17.92245959566536
tp437
a((lp438
(S'1159'
p439
g5
F684.6548217023146
tp440
a(g5
g3
F590.0411371143654
tp441
a(g3
g359
F12.65872730361995
tp442
a(g359
g398
F248.7325925341769
tp443
aF38.943057768705046
g436
S'2012-03-02 19:32:54'
p444
I0
F1536.087278654477
F25.26047900142203
tp445
a((lp446
(g403
g398
F236.07386523132124
tp447
a(g398
g405
F653.229543764915
tp448
a(g405
S'1157'
p449
F42.87757714138974
tp450
a(g449
g416
F305.4407112782209
tp451
aF74.25730184495082
g444
S'2012-03-02 19:33:54'
p452
I0
F1237.621697415847
F5.008942426778077
tp453
a((lp454
(g421
g416
F634.8792968138762
tp455
a(g416
g423
F329.43858562166434
tp456
a(g423
g425
F42.87757714138974
tp457
a(g425
g407
F267.37380984913796
tp458
aF38.237078082782055
g452
S'2012-03-02 19:35:54'
p459
I0
F1274.5692694260683
F7.6115909843992275
tp460
a((lp461
(S'1075'
p462
g407
F310.15912216692806
tp463
a(g407
g409
F10.623947141242395
tp464
a(g409
g416
F174.09422446001173
tp465
aF21.464557320065733
g459
S'2012-03-02 19:37:17'
p466
I0
F494.8772937681822
F517.1649982911374
tp467
a((lp468
(g421
g421
F0.0
tp469
aF17.415666650491236
g466
S'2012-03-02 19:37:46'
p470
I46
F140.29287024006828
F160.94684537314916
tp471
a((lp472
(g421
g421
F0.0
tp473
aF4.057037483135663
g470
S'2012-03-02 19:38:03'
p474
I0
F19.15823255925174
F33.74217087979115
tp475
a((lp476
(g421
g416
F4.106741625275498
tp477
a(g416
S'937'
p478
F274.9837854796505
tp479
aF10.047258975777337
g474
S'2012-03-02 19:39:43'
p480
I18
F279.090527104926
F260.14695417121345
tp481
a((lp482
(S'901'
p483
g478
F379.35497934769813
tp484
a(g478
S'988'
p485
F84.85729485795852
tp486
a(g485
S'1127'
p487
F152.49726409143645
tp488
a(g487
S'967'
p489
F190.65766483400054
tp490
a(g489
S'900'
p491
F217.51739317672622
tp492
a(g491
S'809'
p493
F674.794246559625
tp494
a(g493
S'1157'
p495
F125.10783872919886
tp496
aF41.84224238055999
g480
S'2012-03-02 19:42:20'
p497
I25
F1824.7866815966438
F668.6963313317501
tp498
a((lp499
(S'809'
p500
g495
F629.8926317469317
tp501
a(g495
S'809'
p502
F755.0004704445299
tp503
a(g502
S'900'
p504
F211.24037369365905
tp505
aF147.33539777401114
g497
S'2012-03-02 19:42:59'
p506
I0
F1596.1334758851206
F50.0339585422756
tp507
a((lp508
(g500
g504
F463.55387294982313
tp509
a(g504
S'1082'
p510
F405.2662958943754
tp511
a(g510
S'796'
p512
F137.28505847111882
tp513
a(g512
S'937'
p514
F135.87501660533323
tp515
aF18.945294369190517
g506
S'2012-03-02 19:46:36'
p516
I18
F1141.9802439206505
F914.5498053943347
tp517
a((lp518
(S'796'
p519
g514
F253.59544130014467
tp520
a(g514
g485
F84.85729485795852
tp521
a(g485
S'937'
p522
F196.79475419807352
tp523
aF32.11484942137061
g516
S'2012-03-02 19:47:36'
p524
I22
F535.2474903561767
F372.184526258982
tp525
a((lp526
(S'988'
p527
g522
F111.93745934211879
tp528
a(g522
S'901'
p529
F435.80601260608245
tp530
aF32.864608316892074
g524
S'2012-03-02 19:48:36'
p531
I25
F547.7434719482012
F318.763404518189
tp532
a((lp533
(S'937'
p534
g529
F218.5327522143828
tp535
a(g529
S'1232'
p536
F500.4166198457959
tp537
a(g536
S'901'
p538
F219.76317519268102
tp539
aF18.774250945057194
g531
S'2012-03-02 19:51:36'
p540
I24
F938.7125472528597
F820.1529762269195
tp541
a((lp542
(g21
g21
F0.0
tp543
aF7.252511585140363
g540
S'2012-03-02 19:53:03'
p544
I14
F175.26902997422542
F175.20529347821895
tp545
a((lp546
(g21
g538
F544.9107650630897
tp547
a(g538
g536
F500.4166198457959
tp548
a(g536
g16
F163.86994134314347
tp549
aF72.55183957512175
g544
S'2012-03-02 19:54:03'
p550
I5
F1209.197326252029
F109.58605260942112
tp551
a((lp552
(g21
g16
F408.9314460102433
tp553
a(g16
g38
F499.30418929770127
tp554
a(g38
S'987'
p555
F700.189491494048
tp556
a(g555
g312
F470.5341411713048
tp557
aF24.947511215679565
g550
S'2012-03-02 19:59:03'
p558
I22
F2078.9592679732973
F1706.7984972278973
tp559
a.