(lp0
((lp1
(S'809'
p2
S'900'
p3
F1127.2566882921005
tp4
a(g3
S'967'
p5
F217.51739317672622
tp6
a(g5
S'1154'
p7
F633.0663908294133
tp8
a(g7
S'1010'
p9
F507.7471347885134
tp10
a(g9
S'827'
p11
F266.8104465605856
tp12
a(g11
S'1041'
p13
F689.5118116434894
tp14
a(g13
S'827'
p15
F164.06678146700273
tp16
aF15.344581475565239
S'2012-03-02 12:56:52'
p17
S'2012-03-02 13:10:58'
p18
I72
F3605.976646757831
F2646.708245074269
tp19
a((lp20
(S'1041'
p21
g15
F853.5785930955449
tp22
a(g15
S'909'
p23
F390.24923028502263
tp24
a(g23
S'817'
p25
F286.06989179438705
tp26
a(g25
S'873'
p27
F214.99477288859876
tp28
a(g27
S'936'
p29
F117.95681148015007
tp30
a(g29
S'838'
p31
F89.12572438628993
tp32
aF61.641316545157686
g18
S'2012-03-02 13:12:52'
p33
I44
F1951.9750239299933
F1208.2793340672706
tp34
a((lp35
(S'936'
p36
g31
F780.0103301664616
tp37
a(g31
S'936'
p38
F690.8846058389883
tp39
a(g38
S'873'
p40
F117.95681148015007
tp41
a(g40
g29
F64.33171003382715
tp42
aF175.04295432558638
g33
S'2012-03-02 13:13:26'
p43
I0
F1653.183457519427
F28.31609089462448
tp44
a((lp45
(S'873'
p46
g29
F182.28852151362426
tp47
a(g29
S'791'
p48
F263.909236928096
tp49
a(g48
S'1107'
p50
F102.80564011377255
tp51
aF123.5257646749859
g43
S'2012-03-02 13:13:42'
p52
I14
F549.0033985554928
F18.041840385973853
tp53
a((lp54
(S'791'
p55
g50
F328.9399867820505
tp56
a(g50
S'852'
p57
F264.7955081021066
tp58
a(g57
S'833'
p59
F363.99526731937345
tp60
a(g59
S'1128'
p61
F283.993075255733
tp62
aF27.25735252959359
g52
S'2012-03-02 13:16:26'
p63
I0
F1241.7238374592635
F1178.0212440965663
tp64
a((lp65
(S'833'
p66
g61
F20.270411078711398
tp67
a(g61
S'903'
p68
F53.61013055826668
tp69
aF17.73132999287474
g63
S'2012-03-02 13:16:41'
p70
I0
F73.88054163697808
F74.47053950353319
tp71
a((lp72
(S'1128'
p73
g68
F223.32078614325192
tp74
a(g68
S'777'
p75
F350.9006773558848
tp76
a(g75
S'1185'
p77
F465.5645320107461
tp78
a(g77
S'1073'
p79
F369.58122244945463
tp80
aF84.56203307756026
g70
S'2012-03-02 13:17:41'
p81
I42
F1409.3672179593375
F602.3793309957435
tp82
a((lp83
(S'1185'
p84
g79
F771.5146418181927
tp85
a(g79
S'987'
p86
F585.3164976896943
tp87
a(g86
S'1189'
p88
F541.0596802687863
tp89
a(g88
S'887'
p90
F211.8840444636607
tp91
a(g90
S'1027'
p92
F974.3320508593303
tp93
a(g92
S'842'
p94
F108.42347341772006
tp95
a(g94
S'929'
p96
F138.91582185729666
tp97
a(g96
S'414'
p98
F331.8266258028012
tp99
aF73.26545672354965
g81
S'2012-03-02 13:20:41'
p100
I18
F3663.2728361774816
F2997.7512931988676
tp101
a((lp102
(S'929'
p103
g98
F634.9470146888756
tp104
a(g98
S'371'
p105
F739.6760747221767
tp106
a(g105
S'1'
p107
F725.2487623614271
tp108
a(g107
S'333'
p109
F975.8745201557714
tp110
a(g109
S'117'
p111
F172.715636685259
tp112
a(g111
S'132'
p113
F2691.837296797234
tp114
a(g113
S'434'
p115
F108.37818906840708
tp116
aF72.58412993374981
g100
S'2012-03-02 13:25:41'
p117
I77
F6048.6774944791505
F5283.587405799219
tp118
a.