(lp0
((lp1
(S'843'
p2
S'932'
p3
F595.2187826344226
tp4
a(g3
S'843'
p5
F496.3588671175418
tp6
a(g5
S'993'
p7
F298.54352314033923
tp8
a(g7
S'1114'
p9
F865.1525280555261
tp10
a(g9
S'809'
p11
F639.1126192225747
tp12
a(g11
S'900'
p13
F674.794246559625
tp14
a(g13
S'1101'
p15
F1058.824251630271
tp16
a(g15
S'996'
p17
F1288.4416554530242
tp18
a(g17
S'906'
p19
F3.5681363104730597
tp20
aF507.42982372489695
S'2012-03-02 09:31:18'
p21
S'2012-03-02 09:32:00'
p22
I0
F5920.014610123798
F48.34593920056386
tp23
a((lp24
(S'996'
p25
g19
F902.5790585634072
tp26
a(g19
S'996'
p27
F899.010922256264
tp28
a(g27
S'1101'
p29
F1288.4416554530242
tp30
a(g29
S'900'
p31
F248.11104562303706
tp32
aF100.14428045687197
g22
S'2012-03-02 09:34:00'
p33
I22
F3338.1426818957325
F1522.8269674219794
tp34
a((lp35
(S'1101'
p36
g31
F810.7132060270825
tp37
a(g31
S'967'
p38
F217.51739317672622
tp39
a(g38
S'1127'
p40
F190.65766483400054
tp41
a(g40
S'988'
p42
F152.49726409143645
tp43
a(g42
S'937'
p44
F84.85729485795852
tp45
a(g44
S'1061'
p46
F930.5990375079346
tp47
a(g46
S'1062'
p48
F70.35127422336565
tp49
aF54.94344897507215
g33
S'2012-03-02 09:36:41'
p50
I72
F2457.1931347185046
F2243.6417612851737
tp51
a((lp52
(S'1061'
p53
g53
F0.0
tp54
aF12.381681277428402
g50
S'2012-03-02 09:36:55'
p55
I0
F48.1509827455549
F48.153030175074825
tp56
a((lp57
(g53
g48
F465.0995896061879
tp58
a(g48
S'1150'
p59
F194.7563084101235
tp60
a(g59
S'1016'
p61
F176.2789745075193
tp62
aF25.294836479712522
g55
S'2012-03-02 09:38:54'
p63
I25
F836.1348725238306
F469.0718600458021
tp64
a((lp65
(S'1150'
p66
g61
F652.8518665238921
tp67
a(g61
S'895'
p68
F364.23495779569595
tp69
a(g68
S'774'
p70
F292.59698578621436
tp71
aF78.58102860634816
g63
S'2012-03-02 09:39:54'
p72
I27
F1309.6838101058024
F723.0161021955948
tp73
a((lp74
(S'895'
p75
g70
F561.0180520844777
tp76
a(g70
S'970'
p77
F259.0689971198517
tp78
aF30.43622038284109
g72
S'2012-03-02 09:41:31'
p79
I44
F820.0870492043294
F277.2740585129747
tp80
a((lp81
(S'774'
p82
g77
F636.4054389829724
tp83
a(g77
S'774'
p84
F377.3364418971982
tp85
a(g84
S'895'
p86
F268.4210662990969
tp87
a(g86
g70
F12.102143107004268
tp88
aF1553.118108343526
g79
S'2012-03-02 09:41:34'
p89
I31
F1294.2650902862717
F28.85970224232872
tp90
a((lp91
(g75
g70
F256.31892319211437
tp92
a(g70
S'986'
p93
F463.31531120431856
tp94
a(g93
S'869'
p95
F313.4132600262387
tp96
a(g95
S'1045'
p97
F443.17745880440634
tp98
a(g97
S'1218'
p99
F174.56237434715683
tp100
aF40.15428634640031
g89
S'2012-03-02 09:44:02'
p101
I37
F1650.787327574235
F973.5982613195542
tp102
a((lp103
(S'1045'
p104
g99
F554.81320313701
tp105
a(g99
S'986'
p106
F423.3470614498756
tp107
a(g106
S'774'
p108
F98.70129548633665
tp109
aF29.368951638360606
g101
S'2012-03-02 09:46:14'
p110
I0
F1076.861560073222
F562.1970378473865
tp111
a((lp112
(S'986'
p113
g108
F364.6140157369839
tp114
a(g108
g77
F377.3364418971982
tp115
a(g77
S'1069'
p116
F61.31670807682835
tp117
aF30.439597858522507
g110
S'2012-03-02 09:47:49'
p118
I0
F803.2671657110105
F565.1300296566084
tp119
a((lp120
(S'970'
p121
g116
F238.87346414283036
tp122
a(g116
S'1046'
p123
F233.21024744024461
tp124
a(g123
S'869'
p125
F156.17213501704404
tp126
a(g125
g97
F7.978736160723929
tp127
aF38.174074965650576
g118
S'2012-03-02 09:48:49'
p128
I33
F636.2345827608428
F471.54883747207833
tp129
a((lp130
(S'869'
p131
g97
F451.1561949632098
tp132
a(g97
S'844'
p133
F161.05814139702346
tp134
a(g133
S'955'
p135
F135.70247565144197
tp136
a(g135
S'813'
p137
F56.66466961496389
tp138
a(g137
S'921'
p139
F182.17650096521103
tp140
a(g139
S'927'
p141
F195.5482192140499
tp142
a(g141
S'959'
p143
F106.9390388791336
tp144
a(g143
S'1170'
p145
F135.9977572931447
tp146
a(g145
S'1066'
p147
F134.29559832461862
tp148
a(g147
S'923'
p149
F207.82198053633778
tp150
aF53.02081730517405
g128
S'2012-03-02 09:50:49'
p151
I31
F1767.3605768391349
F850.2764415075849
tp152
a((lp153
(S'1066'
p154
g149
F615.356332523383
tp155
a(g149
S'101'
p156
F930.3605400765287
tp157
a(g156
S'307'
p158
F12.831251139195247
tp159
aF33.19984168911707
g151
S'2012-03-02 09:53:38'
p160
I37
F1558.548123739107
F1243.1935829645665
tp161
a((lp162
(S'101'
p163
g158
F529.2054291626947
tp164
a(g158
S'12'
p165
F336.87317808984017
tp166
a(g165
S'324'
p167
F348.33486400960794
tp168
a(g167
S'233'
p169
F522.2079091612247
tp170
a(g169
S'1158'
p171
F505.9919712639641
tp172
a(g171
S'371'
p173
F343.4160234801613
tp174
a(g173
S'323'
p175
F502.52151206068487
tp176
a(g175
S'195'
p177
F899.3736486026992
tp178
a(g177
S'160'
p179
F1654.504702992569
tp180
a(g179
S'348'
p181
F749.9190888032648
tp182
a(g181
S'40'
p183
F401.59962843252373
tp184
a(g183
S'400'
p185
F175.03635260490466
tp186
a(g185
S'359'
p187
F368.9484986175782
tp188
a(g187
S'220'
p189
F423.40012907983873
tp190
a(g189
S'196'
p191
F347.76120358900437
tp192
aF181.32135965106846
g160
S'2012-03-02 09:56:19'
p193
I0
F8109.094139950561
F1578.1345881409457
tp194
a((lp195
(S'220'
p196
g191
F959.517285565164
tp197
a(g191
S'328'
p198
F208.72880849237106
tp199
a(g198
S'62'
p200
F304.77298423724176
tp201
a(g200
S'79'
p202
F766.4395078482208
tp203
a(g202
S'206'
p204
F340.8639244928786
tp205
a(g204
S'118'
p206
F316.9802224069475
tp207
aF173.83816398256945
g193
S'2012-03-02 09:57:19'
p208
I0
F2897.302733042824
F1962.5396061602632
tp209
a((lp210
(S'206'
p211
g211
F0.0
tp212
aF17.598173052883098
g208
S'2012-03-02 09:58:19'
p213
I64
F293.3028842147183
F293.8236953713603
tp214
a((lp215
(g211
g206
F3440.339830873286
tp216
a(g206
S'147'
p217
F496.01720649402733
tp218
a(g217
S'436'
p219
F505.40295648843016
tp220
a(g219
S'205'
p221
F1240.837905599707
tp222
a(g221
S'162'
p223
F154.37951709209202
tp224
a(g223
S'356'
p225
F781.0709827778445
tp226
a(g225
S'162'
p227
F348.8595534361277
tp228
aF104.50361929142272
g213
S'2012-03-02 10:02:19'
p229
I0
F6966.907952761515
F1341.7068564524643
tp230
a((lp231
(S'356'
p232
g227
F432.2114294851791
tp233
a(g227
S'205'
p234
F154.37951709209202
tp235
a(g234
S'66'
p236
F344.157488454718
tp237
aF55.844906101919356
g229
S'2012-03-02 10:03:19'
p238
I29
F930.7484350319892
F520.0085087363698
tp239
a((lp240
(S'205'
p241
g241
F0.0
tp242
aF0.7702868131191533
g238
S'2012-03-02 10:05:11'
p243
I0
F23.964478630373655
F32.31136570758666
tp244
a((lp245
(g241
g236
F48.75895029984704
tp246
a(g236
S'205'
p247
F319.3630167860905
tp248
a(g247
S'436'
p249
F135.73560774335348
tp250
aF50.38575748292911
g243
S'2012-03-02 10:05:47'
p251
I0
F503.857574829291
F104.09997564125676
tp252
a((lp253
(g241
g249
F1376.5735130615158
tp254
a(g249
S'123'
p255
F374.6187732028866
tp256
a(g255
S'238'
p257
F297.8794616636202
tp258
a(g257
S'177'
p259
F601.6634620718969
tp260
a(g259
S'66'
p261
F280.97647332925493
tp262
a(g261
S'177'
p263
F57.66229259369516
tp264
aF283.2038503505877
g251
S'2012-03-02 10:06:25'
p265
I0
F2989.3739759228697
F50.77707325442816
tp266
a((lp267
(S'66'
p268
g263
F338.63876591595124
tp269
a(g263
g261
F280.97647332925493
tp270
a(g261
g247
F319.3630167860905
tp271
a(g247
g249
F46.39556459078954
tp272
aF104.33369865410323
g265
S'2012-03-02 10:06:59'
p273
I14
F985.3738206220861
F42.15198925126747
tp274
a((lp275
(g241
g249
F1287.2334701005427
tp276
a(g249
g221
F1240.837905599707
tp277
a(g221
g236
F268.0263268132214
tp278
aF167.76586215080826
g273
S'2012-03-02 10:07:59'
p279
I5
F2796.0977025134707
F19.822097841369747
tp280
a((lp281
(g241
g236
F51.33668997452392
tp282
a(g236
S'157'
p283
F23.34243867568173
tp284
aF10.340187043874629
g279
S'2012-03-02 10:08:25'
p285
I0
F74.67912865020566
F42.36635654960922
tp286
a((lp287
(g268
g283
F963.5780341448545
tp288
a(g283
S'91'
p289
F0.5517165405518234
tp290
aF35.41701124966799
g285
S'2012-03-02 10:10:03'
p291
I18
F964.1297506854064
F1108.0174616823092
tp292
a((lp293
(S'157'
p294
g289
F405.68064703359056
tp295
a(g289
S'34'
p296
F362.9857541263605
tp297
a(g296
S'171'
p298
F361.50220986718784
tp299
a(g298
S'79'
p300
F258.8430387665728
tp301
a(g300
g204
F340.8639244928786
tp302
a(g204
S'160'
p303
F2977.933896935319
tp304
a(g303
S'195'
p305
F1654.504702992569
tp306
a(g305
S'323'
p307
F899.3736486026992
tp308
a(g307
S'371'
p309
F502.52151206068487
tp310
a(g309
S'1158'
p311
F343.4160234801613
tp312
a(g311
S'233'
p313
F505.9919712639641
tp314
a(g313
S'324'
p315
F522.2079091612247
tp316
a(g315
S'12'
p317
F348.33486400960794
tp318
a(g317
S'307'
p319
F336.87317808984017
tp320
a(g319
S'101'
p321
F516.3741780275716
tp322
a(g321
S'231'
p323
F2128.2368240663845
tp324
a(g323
S'37'
p325
F1230.1532257749107
tp326
a(g325
S'406'
p327
F709.895434390015
tp328
a(g327
S'37'
p329
F15.832352347636844
tp330
aF194.4475320740114
g291
S'2012-03-02 10:14:30'
p331
I0
F14421.52529548918
F1516.4429143968396
tp332
a((lp333
(S'406'
p334
g329
F725.727786728093
tp335
a(g329
g327
F709.895434390015
tp336
a(g327
S'463'
p337
F15.668702784273652
tp338
aF237.4841330022079
g331
S'2012-03-02 10:14:52'
p339
I0
F1451.2919239023815
F60.62833605933709
tp340
a((lp341
(g334
g337
F507.47189789363176
tp342
a(g337
S'1303'
p343
F186.40846282361446
tp344
aF41.63282164303478
g339
S'2012-03-02 10:15:52'
p345
I25
F693.8803607172463
F694.655176123933
tp346
a((lp347
(S'463'
p348
g343
F730.3369741252812
tp349
a(g343
S'1284'
p350
F320.4892263646986
tp351
aF68.78135130479868
g345
S'2012-03-02 10:16:47'
p352
I50
F1050.8262004899798
F408.94111797657155
tp353
a((lp354
(S'1303'
p355
g355
F0.0
tp356
aF4.3640189767632345
g352
S'2012-03-02 10:17:28'
p357
I0
F49.70132723535907
F49.76694452232587
tp358
a((lp359
(g355
g350
F663.8369925695832
tp360
a(g350
S'1402'
p361
F32.72113118716121
tp362
aF21.99657232916035
g357
S'2012-03-02 10:19:22'
p363
I29
F696.5581237567444
F387.5804582436494
tp364
a((lp365
(S'1284'
p366
g361
F564.8593196204472
tp367
a(g361
S'1284'
p368
F532.13818844487
tp369
a(g368
S'871'
p370
F731.1102915769052
tp371
a(g370
S'1137'
p372
F277.37221282803085
tp373
aF63.1644003741076
g363
S'2012-03-02 10:21:22'
p374
I16
F2105.4800124702533
F694.8540264758226
tp375
a((lp376
(S'871'
p377
g372
F127.50939927771246
tp378
a(g372
S'1072'
p379
F61.534984203409806
tp380
aF11.342663008867337
g374
S'2012-03-02 10:22:22'
p381
I25
F189.04438348112228
F147.58167863112703
tp382
a((lp383
(S'1137'
p384
g379
F765.9871829198008
tp385
a(g379
S'271'
p386
F455.13887535379115
tp387
a(g386
S'336'
p388
F145.7434125243181
tp389
a(g388
S'5'
p390
F276.60213113766173
tp391
a(g390
S'26'
p392
F92.70114078918414
tp393
aF52.08518228174268
g381
S'2012-03-02 10:24:22'
p394
I25
F1736.172742724756
F1032.7976437188302
tp395
a((lp396
(g390
g392
F352.05772976041453
tp397
a(g392
S'336'
p398
F437.6165242804852
tp399
aF94.76091048490798
g394
S'2012-03-02 10:24:52'
p400
I44
F789.6742540408998
F128.14950863631498
tp401
a((lp402
(S'26'
p403
g398
F116.19368254233414
tp404
a(g398
g390
F276.60213113766173
tp405
a(g390
S'231'
p406
F373.65454097386885
tp407
a(g406
S'101'
p408
F2128.2368240663845
tp409
a(g408
S'923'
p410
F930.3605400765287
tp411
a(g410
S'1066'
p412
F107.15099955775274
tp413
aF106.43545403064896
g400
S'2012-03-02 10:27:05'
p414
I0
F3932.1987183545307
F2133.008796359268
tp415
a((lp416
(S'923'
p417
g412
F514.6853515846718
tp418
a(g412
g149
F407.53435205726896
tp419
a(g149
S'888'
p420
F212.87743668959075
tp421
aF371.48633683577395
g414
S'2012-03-02 10:27:16'
p422
I3
F1135.0971403315316
F0.8453792158829218
tp423
a((lp424
(g417
g420
F530.9329856804702
tp425
a(g420
S'1213'
p426
F398.42229143270566
tp427
a(g426
S'959'
p428
F159.27354120793285
tp429
a(g428
S'806'
p430
F197.56237677218394
tp431
a(g430
S'1207'
p432
F157.46274703817397
tp433
aF18.898742515175567
g422
S'2012-03-02 10:31:51'
p434
I0
F1443.6539421314667
F1267.0586987894726
tp435
a((lp436
(S'806'
p437
g432
F16.425010056437692
tp438
a(g432
S'799'
p439
F327.44335141091034
tp440
aF34.38683614673481
g434
S'2012-03-02 10:32:27'
p441
I33
F343.86836146734805
F223.61229190015135
tp442
a((lp443
(S'1207'
p444
g439
F226.33729695558682
tp445
a(g439
S'844'
p446
F240.77579445686675
tp447
a(g446
S'1045'
p448
F161.05814139702346
tp449
a(g448
S'869'
p450
F307.8610145224121
tp451
aF78.3654904742977
g441
S'2012-03-02 10:33:10'
p452
I0
F936.0322473318892
F52.634158144623434
tp453
a((lp454
(g104
g450
F135.31644430354896
tp455
a(g450
g97
F443.17745880440634
tp456
a(g97
g99
F126.81071856894962
tp457
aF74.67931288343699
g452
S'2012-03-02 10:33:44'
p458
I31
F705.3046216769048
F145.31398838344424
tp459
a((lp460
(g104
g99
F507.0615473594173
tp461
a(g99
g106
F423.3470614498756
tp462
a(g106
g95
F313.4132600262387
tp463
a(g95
S'1046'
p464
F156.17213501704404
tp465
a(g464
S'1069'
p466
F233.21024744024461
tp467
a(g466
S'970'
p468
F164.3736076331821
tp469
aF62.223848962823155
g458
S'2012-03-02 10:35:28'
p470
I27
F1797.5778589260024
F563.9954836961066
tp471
a((lp472
(S'1069'
p473
g468
F135.81656458920102
tp474
a(g468
g84
F377.3364418971982
tp475
a(g84
g86
F268.4210662990969
tp476
a(g86
S'1229'
p477
F249.3697768587104
tp478
a(g477
S'987'
p479
F828.6057404004235
tp480
a(g479
S'1036'
p481
F182.22707851485387
tp482
aF61.253300056784525
g470
S'2012-03-02 10:37:28'
p483
I5
F2041.776668559484
F967.7826080456638
tp484
a((lp485
(S'987'
p486
g481
F882.4165698710747
tp487
a(g481
S'1151'
p488
F499.30418929770127
tp489
a(g488
S'1073'
p490
F753.8985985699695
tp491
a(g490
S'1185'
p492
F401.933419412357
tp493
a(g492
S'777'
p494
F364.6138143482903
tp495
aF98.56414839054541
g483
S'2012-03-02 10:39:14'
p496
I40
F2902.166591499393
F612.2858911805415
tp497
a((lp498
(S'1185'
p499
g494
F830.1783463447199
tp500
a(g494
S'1185'
p501
F465.5645320107461
tp502
a(g501
S'1073'
p503
F401.933419412357
tp504
a(g503
S'1151'
p505
F753.8985985699695
tp506
a(g505
g490
F10.2232426333259
tp507
aF79.84210180446871
g496
S'2012-03-02 10:41:05'
p508
I35
F2461.7981389711185
F762.8836647738319
tp509
a((lp510
(S'1151'
p511
g490
F743.6753559433147
tp512
a(g490
g505
F753.8985985699695
tp513
a(g505
S'1232'
p514
F572.8013873462398
tp515
a(g514
S'901'
p516
F414.1467529952562
tp517
aF470.7515548145899
g508
S'2012-03-02 10:41:24'
p518
I0
F2484.52209485478
F62.33699220214794
tp519
a((lp520
(S'1232'
p521
g516
F914.5633728214857
tp522
a(g516
S'1232'
p523
F500.4166198457959
tp524
a(g523
S'1031'
p525
F536.64824962327
tp526
a(g525
S'824'
p527
F304.14015839076
tp528
aF135.34610404087869
g518
S'2012-03-02 10:42:24'
p529
I29
F2255.7684006813115
F460.4647521784905
tp530
a((lp531
(S'1031'
p532
g527
F768.3732236851321
tp533
a(g527
S'1159'
p534
F590.0411371143654
tp535
a(g534
S'1075'
p536
F653.229543764915
tp537
a(g536
S'1157'
p538
F42.87757714138974
tp539
a(g538
S'809'
p540
F755.0004704445299
tp541
a(g540
S'1114'
p542
F248.67899951449073
tp543
aF1.754785372329194
g529
S'2012-03-02 12:26:58'
p544
I62
F3058.200951664823
F1694.1254538441633
tp545
a((lp546
(S'809'
p547
g542
F390.4336197134987
tp548
a(g542
g11
F639.1126192225747
tp549
a(g11
g13
F674.794246559625
tp550
a(g13
S'1082'
p551
F405.2662958943754
tp552
a(g551
S'796'
p553
F40.24562355837363
tp554
aF128.99114429690684
g544
S'2012-03-02 12:27:58'
p555
I61
F2149.852404948447
F810.2481039109629
tp556
a((lp557
(S'1082'
p558
g553
F177.53068202933076
tp559
a(g553
S'988'
p560
F37.46020309095503
tp561
a(g560
S'777'
p562
F428.69502991180303
tp563
a(g562
g501
F465.5645320107461
tp564
a(g501
g503
F401.933419412357
tp565
a(g503
S'987'
p566
F482.76337406431924
tp567
aF119.63683443117066
g555
S'2012-03-02 12:28:58'
p568
I53
F1993.947240519511
F1006.1443847397882
tp569
a((lp570
(S'1073'
p571
g566
F1068.0798716835104
tp572
a(g566
S'1189'
p573
F541.0596802687863
tp574
a(g573
S'887'
p575
F211.8840444636607
tp576
a(g575
S'1027'
p577
F974.3320508593303
tp578
a(g577
S'842'
p579
F108.42347341772006
tp580
a(g579
S'929'
p581
F138.91582185729666
tp582
a(g581
S'414'
p583
F303.12038890948725
tp584
a(g583
S'203'
p585
F110.55925503297553
tp586
a(g585
S'393'
p587
F223.04044327094456
tp588
aF37.1033448379534
g568
S'2012-03-02 12:34:55'
p589
I59
F3679.4150297637125
F3658.044769716034
tp590
a((lp591
(S'203'
p592
g587
F349.8819548812152
tp593
a(g587
S'414'
p594
F82.01156142123234
tp595
a(g594
S'929'
p596
F303.12038890948725
tp597
a(g596
S'842'
p598
F138.91582185729666
tp599
a(g598
S'1027'
p600
F108.42347341772006
tp601
a(g600
S'887'
p602
F480.46442353094835
tp603
aF16.560199517183772
g589
S'2012-03-02 12:40:13'
p604
I0
F1462.8176240178998
F394.30749297632235
tp605
a((lp606
(S'1027'
p607
g602
F1454.7964742683334
tp608
a(g602
S'1189'
p609
F482.84871137423715
tp610
aF116.25871113855425
g604
S'2012-03-02 12:41:13'
p611
I44
F1937.6451856425706
F966.8648376882371
tp612
a((lp613
(S'887'
p614
g609
F694.7327558203975
tp615
a(g609
S'987'
p616
F541.0596802687863
tp617
a(g616
S'1073'
p618
F585.3164976896943
tp619
a(g618
g492
F401.933419412357
tp620
a(g492
g494
F44.07115194448454
tp621
aF68.01340515407159
g611
S'2012-03-02 12:43:13'
p622
I59
F2267.1135051357196
F2269.00930795456
tp623
a.