(lp0
((lp1
(S'959'
p2
S'1213'
p3
F342.9333045590341
tp4
a(g3
S'1066'
p5
F126.00604095646439
tp6
a(g5
S'923'
p7
F407.53435205726896
tp8
a(g7
S'101'
p9
F930.3605400765287
tp10
a(g9
S'231'
p11
F2128.2368240663845
tp12
a(g11
S'5'
p13
F196.33010245681007
tp14
aF41.31401164172491
S'2012-03-02 07:02:59'
p15
S'2012-03-02 07:08:59'
p16
I42
F4131.401164172491
F2874.5954645638635
tp17
a((lp18
(S'231'
p19
g13
F177.3244385197826
tp20
a(g13
S'26'
p21
F259.35658898200876
tp22
a(g21
g13
F107.7605968134345
tp23
aF32.666497458913554
g16
S'2012-03-02 07:09:59'
p24
I12
F544.4416243152259
F216.97144446587077
tp25
a((lp26
(S'26'
p27
g13
F151.59599217372994
tp28
a(g13
S'231'
p29
F373.65454097386885
tp30
a(g29
S'101'
p31
F2128.2368240663845
tp32
a(g31
S'307'
p33
F516.3741780275716
tp34
a(g33
S'121'
p35
F355.28771301773605
tp36
a(g35
S'1104'
p37
F129.49463286751066
tp38
aF54.59219075542111
g24
S'2012-03-02 07:14:00'
p39
I18
F3654.6438811268017
F2655.657859117124
tp40
a((lp41
(S'121'
p42
g37
F219.45743253332517
tp43
a(g37
S'1145'
p44
F725.1024325879025
tp45
a(g44
S'1028'
p46
F210.6065185280842
tp47
a(g46
S'772'
p48
F230.208379433524
tp49
a(g48
S'1203'
p50
F143.30202102050836
tp51
a(g50
S'1030'
p52
F175.38517232998862
tp53
aF102.24371738599996
g39
S'2012-03-02 07:15:00'
p54
I53
F1704.0619564333326
F419.4439947341294
tp55
a((lp56
(S'1203'
p57
g52
F285.51931334304146
tp58
a(g52
S'1215'
p59
F229.64658602255514
tp60
a(g59
S'799'
p61
F216.60117519723585
tp62
a(g61
S'1207'
p63
F101.1060544565955
tp64
a(g63
S'806'
p65
F398.7463937492588
tp66
aF73.8971713661212
g54
S'2012-03-02 07:16:00'
p67
I11
F1231.6195227686867
F394.1727849791303
tp68
a((lp69
(S'1207'
p70
g65
F539.784130695298
tp71
a(g65
S'1207'
p72
F141.0377369821515
tp73
a(g72
S'799'
p74
F101.1060544565955
tp75
a(g74
S'1215'
p76
F216.60117519723585
tp77
a(g76
S'1111'
p78
F277.64232066256346
tp79
aF104.41402510858725
g67
S'2012-03-02 07:16:44'
p80
I0
F1276.1714179938442
F223.70813362737678
tp81
a((lp82
(S'1215'
p83
g78
F513.494487415932
tp84
a(g78
S'1046'
p85
F224.7758530051457
tp86
a(g85
S'1069'
p87
F233.21024744024461
tp88
a(g87
S'970'
p89
F36.93652278369133
tp90
aF181.51507991610248
g80
S'2012-03-02 07:17:04'
p91
I0
F1008.4171106450136
F76.17913844539795
tp92
a((lp93
(S'1069'
p94
g89
F263.2536494342204
tp95
a(g89
S'820'
p96
F247.7378419176489
tp97
a(g96
S'1233'
p98
F255.3750506846333
tp99
a(g98
S'886'
p100
F203.95830291726205
tp101
a(g100
S'1233'
p102
F437.2524683683682
tp103
aF84.45463879932797
g91
S'2012-03-02 07:18:04'
p104
I42
F1407.5773133221328
F386.9844110248998
tp105
a((lp106
(S'886'
p107
g102
F233.29416545390885
tp108
a(g102
S'820'
p109
F255.3750506846333
tp110
a(g109
S'887'
p111
F1042.7797147525323
tp112
a(g111
S'989'
p113
F82.33746853707923
tp114
aF33.77692463919392
g104
S'2012-03-02 07:20:56'
p115
I20
F1613.7863994281538
F950.8174546496017
tp116
a((lp117
(S'887'
p118
g113
F773.2538068382753
tp119
a(g113
S'887'
p120
F690.9163383539549
tp121
a(g120
S'1189'
p122
F211.8840444636607
tp123
a(g122
S'987'
p124
F192.44445810271927
tp125
aF517.4303947639229
g115
S'2012-03-02 07:21:09'
p126
I7
F1868.49864775861
F2.9921430711277
tp127
a((lp128
(S'1189'
p129
g124
F733.5041383533654
tp130
a(g124
S'1189'
p131
F541.0596802687863
tp132
a(g131
S'887'
p133
F211.8840444636607
tp134
a(g133
g122
F20.927475816638445
tp135
aF90.44252033414706
g126
S'2012-03-02 07:22:09'
p136
I0
F1507.375338902451
F2.2464228491211173
tp137
a((lp138
(g118
g122
F190.95656864725663
tp139
a(g122
g124
F541.0596802687863
tp140
a(g124
S'1073'
p141
F585.3164976896943
tp142
a(g141
S'1185'
p143
F401.933419412357
tp144
a(g143
S'777'
p145
F40.67896027337589
tp146
aF1.000758561783177
g136
S'2012-03-02 09:07:40'
p147
I0
F1759.9451262914702
F1766.6125983007657
tp148
a((lp149
(S'1185'
p150
g145
F424.8855717381734
tp151
a(g145
S'988'
p152
F428.69502991180303
tp153
a(g152
S'1127'
p154
F152.49726409143645
tp155
a(g154
S'967'
p156
F190.65766483400054
tp157
a(g156
S'900'
p158
F217.51739317672622
tp159
a(g158
S'1101'
p160
F1058.824251630271
tp161
a(g160
S'996'
p162
F325.4071522007652
tp163
aF42.33001503907325
g147
S'2012-03-02 09:11:38'
p164
I51
F2798.484327583176
F2112.6289590924475
tp165
a((lp166
(S'1101'
p167
g162
F1613.8488075520324
tp168
a(g162
S'1101'
p169
F1288.4416554530242
tp170
a(g169
S'900'
p171
F1058.824251630271
tp172
a(g171
S'809'
p173
F674.794246559625
tp174
a(g173
S'1114'
p175
F639.1126192225747
tp176
a(g175
S'993'
p177
F61.546432478767606
tp178
aF320.19408077377767
g164
S'2012-03-02 09:12:38'
p179
I0
F5336.568012896295
F6.756750506660229
tp180
a((lp181
(S'1114'
p182
g177
F926.6989605262273
tp183
a(g177
S'1114'
p184
F865.1525280555261
tp185
a(g184
S'809'
p186
F639.1126192225747
tp187
a(g186
S'900'
p188
F674.794246559625
tp189
a(g188
S'967'
p190
F242.98675892756833
tp191
aF59.095501999262154
g179
S'2012-03-02 09:16:02'
p192
I1
F3348.7451132915216
F484.0960397894278
tp193
a((lp194
(S'900'
p195
g190
F460.5041520999896
tp196
a(g190
S'1127'
p197
F190.65766483400054
tp198
a(g197
S'1082'
p199
F6.8306029289612695
tp200
a(g199
S'796'
p201
F113.54379926836235
tp202
aF15.96281832685477
g192
S'2012-03-02 09:18:56'
p203
I25
F771.5362191313138
F763.6905497524031
tp204
a((lp205
(S'1082'
p206
g201
F23.741259202774444
tp207
a(g201
S'988'
p208
F37.46020309095503
tp209
a(g208
S'777'
p210
F428.69502991180303
tp211
a(g210
S'1185'
p212
F353.90325928478427
tp213
aF24.497412140041458
g203
S'2012-03-02 09:21:00'
p214
I3
F843.7997514903168
F909.8657399659234
tp215
a((lp216
(S'777'
p217
g212
F111.66127272781546
tp218
a(g212
S'1061'
p219
F373.27393365369306
tp220
a(g219
S'1062'
p221
F442.8992981334369
tp222
a(g221
S'1150'
p223
F194.7563084101235
tp224
a(g223
S'1016'
p225
F476.5728920163904
tp226
a(g225
S'895'
p227
F364.23495779569595
tp228
a(g227
S'774'
p229
F268.4210662990969
tp230
a(g229
S'970'
p231
F377.3364418971982
tp232
a(g231
S'1069'
p233
F300.1901722143531
tp234
a(g233
S'1046'
p235
F233.21024744024461
tp236
a(g235
S'1111'
p237
F224.7758530051457
tp238
a(g237
S'844'
p239
F216.35782443809995
tp240
a(g239
S'955'
p241
F135.70247565144197
tp242
a(g241
S'813'
p243
F308.4766442535159
tp244
aF27.205121569550666
g214
S'2012-03-02 09:29:53'
p245
I0
F4027.8693879362513
F2578.4011001577737
tp246
a((lp247
(S'955'
p248
g243
F251.81197463906335
tp249
a(g243
S'921'
p250
F182.17650096521103
tp251
a(g250
S'799'
p252
F138.23991683994163
tp253
a(g252
g63
F101.1060544565955
tp254
a(g63
S'818'
p255
F164.89384674216674
tp256
aF50.29369761857869
g245
S'2012-03-02 09:30:53'
p257
I18
F838.2282936429782
F352.45432368300993
tp258
a((lp259
(g70
g255
F48.707982211139225
tp260
a(g255
S'1203'
p261
F230.17736984156133
tp262
a(g261
S'790'
p263
F421.4019478248345
tp264
aF42.01723799265211
g257
S'2012-03-02 09:31:53'
p265
I40
F700.2872998775351
F701.0497386351194
tp266
a((lp267
(g57
g263
F191.16035229650063
tp268
a(g263
S'1203'
p269
F230.2415955502278
tp270
a(g269
S'772'
p271
F143.30202102050836
tp272
a(g271
S'819'
p273
F483.1231810224526
tp274
aF85.73131226370185
g265
S'2012-03-02 09:32:37'
p275
I25
F1047.8271498896893
F67.90792939792843
tp276
a((lp277
(S'772'
p278
g273
F251.0846851339353
tp279
a(g273
S'1233'
p280
F280.1051964205321
tp281
a(g280
g109
F255.3750506846333
tp282
a(g109
g111
F1042.7797147525323
tp283
a(g111
g122
F211.8840444636607
tp284
a(g122
g124
F541.0596802687863
tp285
a(g124
S'1229'
p286
F150.57787394685727
tp287
aF11.466571660157781
g275
S'2012-03-02 09:46:55'
p288
I25
F2732.8662456709376
F1359.0861598463414
tp289
a((lp290
(S'987'
p291
g286
F678.0278665500991
tp292
a(g286
S'895'
p293
F307.2084389603127
tp294
aF47.291342664499766
g288
S'2012-03-02 09:48:10'
p295
I44
F985.2363055104119
F370.73052933530556
tp296
a((lp297
(S'1229'
p298
g293
F556.578215770436
tp299
a(g293
g229
F268.4210662990969
tp300
a(g229
S'986'
p301
F463.31531120431856
tp302
a(g301
S'1218'
p303
F357.2982548917253
tp304
aF25.535371781879643
g295
S'2012-03-02 09:52:02'
p305
I11
F1645.612848165577
F1361.3611473569254
tp306
a((lp307
(S'986'
p308
g303
F66.04880656937762
tp309
a(g303
S'1191'
p310
F264.7542280364345
tp311
a(g310
S'1218'
p312
F12.875046375751333
tp313
aF27.494246478525074
g305
S'2012-03-02 09:52:47'
p314
I0
F343.6780809815634
F51.639824566547034
tp315
a((lp316
(S'1191'
p317
g312
F251.8791816606833
tp318
a(g312
S'1045'
p319
F380.2508287917065
tp320
a(g319
S'844'
p321
F161.05814139702346
tp322
a(g321
g241
F135.70247565144197
tp323
a(g241
g243
F56.66466961496389
tp324
a(g243
g250
F182.17650096521103
tp325
a(g250
S'927'
p326
F195.5482192140499
tp327
a(g326
S'959'
p328
F106.9390388791336
tp329
a(g328
S'1170'
p330
F135.9977572931447
tp331
a(g330
S'1066'
p332
F134.29559832461862
tp333
a(g332
g7
F63.39856810022972
tp334
aF36.89817913415878
g314
S'2012-03-02 09:55:43'
p335
I27
F1803.910979892207
F1188.5333529803545
tp336
a((lp337
(S'1066'
p338
g7
F470.9329201410183
tp339
a(g7
S'1066'
p340
F407.53435205726896
tp341
a(g340
S'1170'
p342
F134.29559832461862
tp343
a(g342
S'1020'
p344
F438.28112057247233
tp345
aF47.48871243584875
g335
S'2012-03-02 09:57:33'
p346
I0
F1451.0439910953783
F522.2489025763284
tp347
a((lp348
(S'1170'
p349
g344
F640.0215465994747
tp350
a(g344
S'1145'
p351
F188.95557991685487
tp352
aF30.144622782411982
g346
S'2012-03-02 09:59:12'
p353
I12
F828.9771265163296
F477.0666531897205
tp354
a((lp355
(S'1020'
p356
g351
F327.3407964879777
tp357
a(g351
g46
F210.6065185280842
tp358
a(g46
g48
F230.208379433524
tp359
a(g48
g273
F232.03849592151013
tp360
a(g273
g280
F280.1051964205321
tp361
a(g280
g109
F255.3750506846333
tp362
a(g109
g111
F1042.7797147525323
tp363
a(g111
S'1027'
p364
F974.3320508593303
tp365
a(g364
S'842'
p366
F108.42347341772006
tp367
a(g366
S'1115'
p368
F125.61206596730918
tp369
aF38.18643773922507
g353
S'2012-03-02 10:05:09'
p370
I0
F3786.821742473153
F2333.279273372569
tp371
a((lp372
(S'842'
p373
g368
F635.2249955285317
tp374
a(g368
S'842'
p375
F509.6129296096181
tp376
a(g375
S'929'
p377
F138.91582185729666
tp378
a(g377
S'414'
p379
F94.85665457050077
tp380
aF82.71662409395682
g370
S'2012-03-02 10:06:09'
p381
I12
F1378.610401565947
F460.56221826913117
tp382
a((lp383
(S'929'
p384
g384
F0.0
tp385
aF27.634079189769835
g381
S'2012-03-02 10:07:09'
p386
I40
F460.56798649616394
F463.40714980417044
tp387
a((lp388
(g384
g379
F62.59094302459124
tp389
a(g379
S'203'
p390
F110.55925503297553
tp391
a(g390
S'431'
p392
F369.98613606887915
tp393
a(g392
S'392'
p394
F33.799713410763864
tp395
aF34.61616285223259
g386
S'2012-03-02 10:08:09'
p396
I9
F576.9360475372098
F456.9771061981439
tp397
a((lp398
(S'431'
p399
g394
F424.03647100518253
tp400
a(g394
S'270'
p401
F95.85961614434376
tp402
a(g401
S'433'
p403
F330.3168336032497
tp404
a(g403
S'372'
p405
F16.41495020019254
tp406
aF51.99767225717811
g396
S'2012-03-02 10:09:09'
p407
I24
F866.6278709529685
F808.6438134978304
tp408
a((lp409
(S'433'
p410
g405
F601.5125596371114
tp411
a(g405
S'433'
p412
F585.0976094380715
tp413
a(g412
S'270'
p414
F330.3168336032497
tp415
a(g414
S'392'
p416
F95.85961614434376
tp417
a(g416
S'431'
p418
F457.83618440901
tp419
a(g418
S'203'
p420
F369.98613606887915
tp421
a(g420
S'393'
p422
F126.8415116158981
tp423
a(g422
S'414'
p424
F37.892921161235584
tp425
aF2.3883972853272417
g407
S'2012-03-02 11:14:36'
p426
I55
F2605.3433720777994
F1318.257989396698
tp427
a((lp428
(S'393'
p429
g424
F119.90448258201369
tp430
a(g424
S'371'
p431
F739.6760747221767
tp432
a(g431
S'1158'
p433
F343.4160234801613
tp434
a(g433
S'233'
p435
F505.9919712639641
tp436
a(g435
S'324'
p437
F288.69979648650724
tp438
aF59.9306504560447
g426
S'2012-03-02 11:16:36'
p439
I29
F1997.6883485348233
F1662.5051107253378
tp440
a((lp441
(S'233'
p442
g437
F233.50811271689957
tp443
a(g437
S'12'
p444
F348.33486400960794
tp445
a(g444
S'307'
p446
F336.87317808984017
tp447
a(g446
S'101'
p448
F516.3741780275716
tp449
a(g448
g11
F2128.2368240663845
tp450
a(g11
g13
F373.65454097386885
tp451
a(g13
S'336'
p452
F276.60213113766173
tp453
a(g452
S'271'
p454
F145.7434125243181
tp455
a(g454
S'1072'
p456
F455.13887535379115
tp457
a(g456
S'1137'
p458
F827.5221670782628
tp459
a(g458
S'871'
p460
F404.8816121047468
tp461
a(g460
S'1382'
p462
F803.5379876651724
tp463
a(g462
S'1264'
p464
F491.1492433133898
tp465
a(g464
S'1330'
p466
F612.8101096718462
tp467
a(g466
S'1326'
p468
F691.146827141222
tp469
a(g468
S'1343'
p470
F335.7915781764397
tp471
a(g470
S'1239'
p472
F393.6433366208233
tp473
a(g472
S'1385'
p474
F774.24262055248
tp475
a(g474
S'1338'
p476
F212.25577330259463
tp477
aF30.524722210390284
g439
S'2012-03-02 11:36:58'
p478
I66
F10361.447372526924
F8795.695614986638
tp479
a((lp480
(S'1385'
p481
g476
F603.1797455607841
tp482
a(g476
S'1324'
p483
F851.0803173901818
tp484
a(g483
S'1307'
p485
F900.6330117955955
tp486
a(g485
S'6'
p487
F493.8721802930258
tp488
a(g487
S'355'
p489
F34.78252187633654
tp490
aF49.90755767739098
g478
S'2012-03-02 11:40:26'
p491
I72
F2883.5477769159234
F2366.1328598315504
tp492
a((lp493
(g487
g489
F1025.6187065510112
tp494
a(g489
g487
F52.73397724538684
tp495
aF64.70116102778388
g491
S'2012-03-02 11:41:26'
p496
I22
F1078.352683796398
F973.2178040289269
tp497
a((lp498
(S'355'
p499
g487
F1007.6672512033331
tp500
a(g487
g489
F1060.4012283836928
tp501
a(g489
S'8'
p502
F770.5077146010468
tp503
a(g502
S'243'
p504
F497.6064972180614
tp505
a(g504
S'341'
p506
F112.95714796621628
tp507
aF206.948390362341
g496
S'2012-03-02 11:42:26'
p508
I0
F3449.1398393723503
F795.3136788706687
tp509
a((lp510
(S'243'
p511
g506
F751.080954416208
tp512
a(g506
S'243'
p513
F638.123806512667
tp514
a(g513
g502
F497.6064972180614
tp515
a(g502
S'216'
p516
F797.9260092782116
tp517
a(g516
S'258'
p518
F459.21278356229413
tp519
aF188.63700305924652
g508
S'2012-03-02 11:43:26'
p520
I62
F3143.950050987442
F819.1965968384171
tp521
a((lp522
(S'216'
p523
g518
F1163.0135183369778
tp524
a(g518
S'119'
p525
F299.3720189737942
tp526
aF6.6894382901128076
g520
S'2012-03-02 11:56:33'
p527
I48
F1462.385537310772
F1225.80603145627
tp528
a((lp529
(S'258'
p530
g530
F0.0
tp531
aF27.271136860324216
g527
S'2012-03-02 11:56:57'
p532
I59
F181.80757906882812
F181.67775447922773
tp533
a((lp534
(g530
g525
F341.6828931807765
tp535
a(g525
S'376'
p536
F361.55016506392906
tp537
aF27.221924835278923
g532
S'2012-03-02 11:58:30'
p538
I0
F703.2330582447055
F481.51254557809574
tp539
a((lp540
(S'119'
p541
g536
F235.36449289286122
tp542
a(g536
S'75'
p543
F636.9774124918713
tp544
a(g543
S'158'
p545
F1096.7354764412723
tp546
a(g545
S'398'
p547
F37.07265358670005
tp548
aF48.79824410463336
g538
S'2012-03-02 12:00:58'
p549
I55
F2006.150035412705
F1725.4297601847377
tp550
a((lp551
(S'158'
p552
g552
F0.0
tp553
aF7.546784798633761
g549
S'2012-03-02 12:01:30'
p554
I0
F67.0825315434112
F67.22722591618391
tp555
a((lp556
(g552
g547
F950.5393277135643
tp557
a(g547
S'158'
p558
F40.411923921097916
tp559
aF59.45707509807973
g554
S'2012-03-02 12:02:30'
p560
I37
F990.9512516346622
F910.0650919516304
tp561
a((lp562
(S'398'
p563
g558
F940.1372817601584
tp564
a(g558
g547
F980.5492056374832
tp565
a(g547
S'340'
p566
F44.384523605470896
tp567
aF307.5763321570089
g560
S'2012-03-02 12:02:53'
p568
I0
F1965.0710110031123
F84.83300422880684
tp569
a((lp570
(g563
g566
F1071.84082360126
tp571
a(g566
S'235'
p572
F1103.42528522692
tp573
a(g572
S'406'
p574
F19.34861962616744
tp575
aF52.670753482904345
g568
S'2012-03-02 12:05:23'
p576
I48
F2194.6147284543476
F2194.0016533676526
tp577
a((lp578
(S'235'
p579
g574
F1261.3681380560643
tp580
a(g574
S'37'
p581
F709.895434390015
tp582
a(g581
S'231'
p583
F170.37733260487934
tp584
aF64.24922715152876
g576
S'2012-03-02 12:07:23'
p585
I40
F2141.6409050509587
F1799.926997393947
tp586
a((lp587
(S'37'
p588
g583
F1400.5305580292616
tp589
a(g583
S'306'
p590
F460.25975958752724
tp591
aF111.64741905700733
g585
S'2012-03-02 12:08:23'
p592
I53
F1860.7903176167888
F939.7600715202431
tp593
a((lp594
(g19
g590
F1255.8480029608716
tp595
a(g590
S'231'
p596
F795.5882439156834
tp597
a(g596
g13
F373.65454097386885
tp598
a(g13
g452
F11.091453367025377
tp599
aF41.763124135156275
g592
S'2012-03-02 12:11:53'
p600
I68
F2436.1822412174492
F595.8754626945083
tp601
a((lp602
(g13
g452
F265.51067777065003
tp603
a(g452
g454
F145.7434125243181
tp604
a(g454
g456
F455.13887535379115
tp605
a(g456
g458
F827.5221670782628
tp606
a(g458
g460
F404.8816121047468
tp607
a(g460
S'1137'
p608
F346.12840226164644
tp609
aF43.145737889883804
g600
S'2012-03-02 12:15:17'
p610
I44
F2444.9251470934155
F1468.9332532917365
tp611
a((lp612
(S'871'
p613
g608
F58.753209843667996
tp614
a(g608
S'25'
p615
F909.535541555871
tp616
a(g615
S'37'
p617
F195.31859942451325
tp618
aF34.908220524721564
g610
S'2012-03-02 12:17:17'
p619
I31
F1163.6073508240522
F1163.282900223074
tp620
a((lp621
(S'25'
p622
g617
F282.680300824255
tp623
a(g617
g583
F1230.1532257749107
tp624
a(g583
g31
F2128.2368240663845
tp625
a(g31
g11
F41.872530834357455
tp626
aF57.89779202357933
g619
S'2012-03-02 12:21:06'
p627
I61
F3682.9428814999073
F3317.068327090486
tp628
a((lp629
(S'101'
p630
g11
F2086.36429345089
tp631
a(g11
g31
F2128.2368240663845
tp632
a(g31
g33
F516.3741780275716
tp633
a(g33
S'12'
p634
F470.7675982107643
tp635
aF814.1858442400085
g627
S'2012-03-02 12:21:29'
p636
I0
F5201.74289375561
F88.9685851347929
tp637
a((lp638
(S'307'
p639
g634
F807.6407761458172
tp640
a(g634
S'324'
p641
F348.33486400960794
tp642
a(g641
S'233'
p643
F92.06472087124997
tp644
aF74.8824216616005
g636
S'2012-03-02 12:22:29'
p645
I50
F1248.040361026675
F1063.9643330058752
tp646
a((lp647
(S'324'
p648
g643
F614.2726299968866
tp649
a(g643
S'1158'
p650
F505.9919712639641
tp651
a(g650
S'371'
p652
F343.4160234801613
tp653
a(g652
S'323'
p654
F502.52151206068487
tp655
a(g654
S'371'
p656
F79.79492552873886
tp657
aF105.22270606270811
g645
S'2012-03-02 12:23:39'
p658
I44
F2045.9970623304355
F665.3768348983565
tp659
a((lp660
(S'323'
p661
g656
F422.7265865535675
tp662
a(g656
g654
F502.52151206068487
tp663
a(g654
S'195'
p664
F118.82356408696224
tp665
aF31.322149881036438
g658
S'2012-03-02 12:25:39'
p666
I48
F1044.0716627012146
F475.1397283849813
tp667
a((lp668
(g661
g664
F1018.1972125629297
tp669
a(g664
S'323'
p670
F899.3736486026992
tp671
a(g670
g656
F502.52151206068487
tp672
a(g656
S'414'
p673
F739.6760747221767
tp674
a(g673
g390
F110.55925503297553
tp675
a(g390
g392
F369.98613606887915
tp676
a(g392
S'140'
p677
F61.367885207598306
tp678
aF111.0504517277383
g666
S'2012-03-02 12:27:39'
p679
I44
F3701.6817242579436
F1383.4405495154786
tp680
a((lp681
(g399
g677
F273.3967406633086
tp682
a(g677
S'431'
p683
F334.7646258643055
tp684
a(g683
g394
F457.83618440901
tp685
a(g394
g401
F332.89438268507496
tp686
aF0.7662828607787762
g679
S'2012-03-02 14:17:11'
p687
I33
F1398.891933621699
F522.3979569242401
tp688
a((lp689
(S'392'
p690
g401
F428.7539988203651
tp691
a(g401
g416
F95.85961614434376
tp692
a(g416
g418
F457.83618440901
tp693
a(g418
g677
F334.7646258643055
tp694
a(g677
S'263'
p695
F435.87853113202175
tp696
a(g695
S'1115'
p697
F472.4206568274532
tp698
a(g697
S'989'
p699
F1111.3964106739522
tp700
a(g699
S'1036'
p701
F786.7860140536283
tp702
a(g701
S'1151'
p703
F499.30418929770127
tp704
a(g703
S'1036'
p705
F112.2801863382609
tp706
aF6.03433964206009
g687
S'2012-03-02 15:04:16'
p707
I9
F4735.280413561042
F3415.254365937929
tp708
a((lp709
(S'1151'
p710
g705
F611.5843756334958
tp711
a(g705
g703
F499.30418929770127
tp712
a(g703
S'1073'
p713
F753.8985985699695
tp714
a(g713
S'1151'
p715
F42.48082883683497
tp716
aF53.22608350710701
g707
S'2012-03-02 15:06:25'
p717
I18
F1907.2679923380015
F709.9101706184786
tp718
a((lp719
(S'1073'
p720
g715
F711.4177697597647
tp721
a(g715
g713
F753.8985985699695
tp722
a(g713
g143
F401.933419412357
tp723
a(g143
g219
F187.89405445019352
tp724
aF123.3086305315371
g717
S'2012-03-02 15:07:25'
p725
I0
F2055.143842192285
F10.5632349631994
tp726
a((lp727
(g150
g219
F561.1679880583991
tp728
a(g219
S'1185'
p729
F373.27393365369306
tp730
a(g729
S'1073'
p731
F401.933419412357
tp732
a(g731
S'987'
p733
F585.3164976896943
tp734
a(g733
g131
F541.0596802687863
tp735
a(g131
g133
F31.635225772125324
tp736
aF70.15462719904843
g725
S'2012-03-02 15:09:33'
p737
I12
F2494.3867448550554
F1161.69686657709
tp738
a((lp739
(g129
g133
F180.24881869185865
tp740
a(g133
g364
F974.3320508593303
tp741
a(g364
g366
F108.42347341772006
tp742
a(g366
g377
F138.91582185729666
tp743
a(g377
g379
F46.38332490700715
tp744
aF28.64776133538223
g737
S'2012-03-02 15:12:35'
p745
I40
F1448.3034897332127
F1435.584301521887
tp746
a((lp747
(g384
g379
F256.7370640037968
tp748
a(g379
g390
F110.55925503297553
tp749
a(g390
g392
F369.98613606887915
tp750
a(g392
g394
F457.83618440901
tp751
a(g394
g401
F95.85961614434376
tp752
a(g401
g403
F330.3168336032497
tp753
a(g403
g405
F585.0976094380715
tp754
a(g405
S'97'
p755
F63.758701035611004
tp756
a(g755
S'413'
p757
F1079.6824743926077
tp758
a(g757
S'182'
p759
F501.6805211022033
tp760
a(g759
S'58'
p761
F71.09625218363568
tp762
aF58.83915971121576
g745
S'2012-03-02 15:16:35'
p763
I33
F3922.610647414384
F3595.553309580517
tp764
a((lp765
(S'182'
p766
g761
F1121.1855841459858
tp767
a(g761
S'182'
p768
F1050.0893319780932
tp769
a(g768
S'413'
p770
F501.6805211022033
tp771
a(g770
S'210'
p772
F87.04952953942589
tp773
aF194.82388000699115
g763
S'2012-03-02 15:17:26'
p774
I24
F2760.004966765708
F58.89540195247905
tp775
a((lp776
(S'413'
p777
g772
F1738.073320841068
tp778
a(g772
S'413'
p779
F1651.0237915948608
tp780
a(g779
g759
F501.6805211022033
tp781
a(g759
g770
F347.89810609407203
tp782
aF36.418216378701516
g774
S'2012-03-02 15:24:25'
p783
I27
F4238.675739632204
F331.49094721352725
tp784
a((lp785
(g766
g770
F153.7824150093055
tp786
a(g770
S'333'
p787
F1407.7106325202305
tp788
a(g787
S'1'
p789
F975.8745201557714
tp790
a(g789
S'371'
p791
F725.2487623614271
tp792
a(g791
g433
F343.4160234801613
tp793
a(g433
g435
F505.9919712639641
tp794
a(g435
g437
F522.2079091612247
tp795
a(g437
g444
F348.33486400960794
tp796
a(g444
g446
F336.87317808984017
tp797
a(g446
g448
F516.3741780275716
tp798
a(g448
g11
F2128.2368240663845
tp799
a(g11
g13
F373.65454097386885
tp800
a(g13
S'25'
p801
F1185.6258624438292
tp802
a(g801
S'463'
p803
F698.4005052534098
tp804
a(g803
S'406'
p805
F486.2861490942768
tp806
aF10.033541387110658
g783
S'2012-03-02 16:28:27'
p807
I74
F10708.018335910874
F7664.801782013904
tp808
a((lp809
(S'463'
p810
g805
F36.85445158386876
tp811
a(g805
S'235'
p812
F42.843820873524564
tp813
aF11.476551233864638
g807
S'2012-03-02 16:28:52'
p814
I0
F79.69827245739333
F71.01135040741698
tp815
a((lp816
(S'406'
p817
g812
F1237.872936852173
tp818
a(g812
S'340'
p819
F389.95844471929615
tp820
aF97.66988289428815
g814
S'2012-03-02 16:29:52'
p821
I38
F1627.8313815714691
F847.5156450971567
tp822
a((lp823
(g579
g819
F1493.3837291849718
tp824
a(g819
S'398'
p825
F391.4405397931558
tp826
aF56.544728069343826
g821
S'2012-03-02 16:31:52'
p827
I53
F1884.8242689781275
F1883.0976760362912
tp828
a((lp829
(S'340'
p830
g825
F724.7848077228101
tp831
a(g825
g558
F980.5492056374832
tp832
a(g558
S'75'
p833
F147.07624637800225
tp834
aF55.57230779214887
g827
S'2012-03-02 16:33:52'
p835
I35
F1852.4102597382955
F1559.951131582394
tp836
a((lp837
(g552
g833
F1243.8117225815026
tp838
a(g833
g545
F1096.7354764412723
tp839
a(g545
g547
F83.53781202456003
tp840
aF396.66845635320027
g835
S'2012-03-02 16:34:14'
p841
I40
F2424.0850110473352
F62.60927993282228
tp842
a((lp843
(g552
g547
F897.0113936992201
tp844
a(g547
g558
F980.5492056374832
tp845
a(g558
g833
F1096.7354764412723
tp846
a(g833
S'376'
p847
F636.9774124918713
tp848
a(g847
S'119'
p849
F40.343694112907066
tp850
aF93.8987275469851
g841
S'2012-03-02 16:36:34'
p851
I0
F3651.617182382754
F1817.1226953653393
tp852
a((lp853
(S'376'
p854
g849
F556.5709638362746
tp855
a(g849
S'18'
p856
F0.13013921736275888
tp857
aF42.640935553044564
g851
S'2012-03-02 16:37:21'
p858
I31
F556.7011030536373
F502.7379382399104
tp859
a((lp860
(g541
g856
F613.2177000047218
tp861
a(g856
S'119'
p862
F613.0875607873952
tp863
a(g862
S'258'
p864
F439.537631471977
tp865
aF95.19102241509108
g858
S'2012-03-02 16:38:24'
p866
I0
F1665.842892264094
F439.0020556507516
tp867
a((lp868
(g541
g864
F383.32485972423973
tp869
a(g864
S'216'
p870
F703.8007348693166
tp871
a(g870
S'367'
p872
F4.3102878473076816
tp873
aF41.35967554512748
g866
S'2012-03-02 16:39:59'
p874
I0
F1091.4358824408641
F775.7839612250399
tp875
a((lp876
(g523
g872
F709.2090202916538
tp877
a(g872
S'355'
p878
F720.0000486655169
tp879
a(g878
g502
F770.5077146010468
tp880
a(g502
S'355'
p881
F75.19091686973235
tp882
aF113.74538502139752
g874
S'2012-03-02 16:41:11'
p883
I0
F2274.90770042795
F371.5608665346332
tp884
a((lp885
(g502
g881
F695.3167977777101
tp886
a(g881
g502
F770.5077146010468
tp887
a(g502
g504
F437.2902980184119
tp888
aF274.04853269719234
g883
S'2012-03-02 16:41:36'
p889
I0
F1903.1148103971689
F37.2591333520939
tp890
a((lp891
(g502
g504
F934.8967951835126
tp892
a(g504
S'1358'
p893
F820.1452521497176
tp894
a(g893
S'1327'
p895
F197.1367679524997
tp896
a(g895
S'1399'
p897
F433.91775760016844
tp898
a(g897
S'1379'
p899
F365.18936542563927
tp900
a(g899
S'1253'
p901
F169.6879575593227
tp902
a(g901
S'1287'
p903
F215.9995211997082
tp904
a(g903
S'1236'
p905
F500.94138389154773
tp906
a(g905
S'428'
p907
F1389.6055465674801
tp908
a(g907
S'146'
p909
F1975.1112733847385
tp910
a(g909
S'358'
p911
F569.3222432001658
tp912
a(g911
S'296'
p913
F271.20428853774837
tp914
a(g913
S'50'
p915
F289.17675968714605
tp916
aF121.98502368509094
g889
S'2012-03-02 16:45:36'
p917
I18
F8132.3349123393955
F1701.8612924168576
tp918
a((lp919
(S'296'
p920
g915
F1188.2561366973137
tp921
a(g915
S'163'
p922
F353.0816564616981
tp923
aF30.998972376382355
g917
S'2012-03-02 16:48:35'
p924
I29
F1541.3377931590117
F1542.0341337824257
tp925
a((lp926
(S'50'
p927
g922
F10.245362404089018
tp928
a(g922
S'63'
p929
F776.5288468757814
tp930
a(g929
S'334'
p931
F217.57277650279426
tp932
aF59.272936865862185
g924
S'2012-03-02 16:49:36'
p933
I18
F1004.3469857826647
F556.4467617992598
tp934
a((lp935
(S'63'
p936
g931
F395.84487920001857
tp937
a(g931
S'63'
p938
F178.2721027153018
tp939
a(g938
S'163'
p940
F776.5288468757814
tp941
a(g940
S'50'
p942
F342.83629405796165
tp943
a(g942
S'417'
p944
F46.50837029684273
tp945
aF14.533563283817314
g933
S'2012-03-02 16:56:47'
p946
I22
F1739.9904931459062
F548.2673043614528
tp947
a((lp948
(g927
g927
F0.0
tp949
aF12.272188530529913
g946
S'2012-03-02 16:56:59'
p950
I0
F40.90729510176637
F42.00469520570058
tp951
a((lp952
(g927
g944
F910.8262130526731
tp953
a(g944
S'334'
p954
F349.5249997777408
tp955
a(g954
g938
F178.2721027153018
tp956
a(g938
S'404'
p957
F1348.1771778466043
tp958
a(g957
S'192'
p959
F347.7222514131993
tp960
aF37.61427293766623
g950
S'2012-03-02 17:01:59'
p961
I22
F3134.5227448055193
F2338.6108412090957
tp962
a((lp963
(S'404'
p964
g959
F1611.083514577333
tp965
a(g959
S'404'
p966
F1958.8057646923883
tp967
a(g966
S'63'
p968
F1348.1771778466043
tp969
a(g968
g940
F776.5288468757814
tp970
a(g940
g942
F342.83629405796165
tp971
a(g942
S'296'
p972
F899.0793771111934
tp973
a(g972
S'358'
p974
F271.20428853774837
tp975
a(g974
S'146'
p976
F569.3222432001658
tp977
a(g976
S'428'
p978
F1975.1112733847385
tp979
a(g978
S'1236'
p980
F1389.6055465674801
tp981
a(g980
S'1287'
p982
F500.94138389154773
tp983
a(g982
S'1253'
p984
F215.9995211997082
tp985
a(g984
S'1379'
p986
F169.6879575593227
tp987
a(g986
S'1399'
p988
F365.18936542563927
tp989
a(g988
S'1327'
p990
F433.91775760016844
tp991
a(g990
S'1358'
p992
F197.1367679524997
tp993
a(g992
S'243'
p994
F820.1452521497176
tp995
a(g994
g502
F497.6064972180614
tp996
a(g502
g881
F770.5077146010468
tp997
a(g881
S'367'
p998
F720.0000486655169
tp999
a(g998
S'119'
p1000
F713.9276386045469
tp1001
a(g1000
g856
F613.0875607873952
tp1002
a(g856
S'75'
p1003
F607.417478032252
tp1004
a(g1003
g545
F1096.7354764412723
tp1005
a(g545
g547
F980.5492056374832
tp1006
a(g547
g566
F139.76031625075078
tp1007
aF239.01565238513618
g961
S'2012-03-02 17:07:00'
p1008
I40
F19984.36426886833
F2817.3210197584376
tp1009
a((lp1010
(g563
g566
F1255.9856631652954
tp1011
a(g566
S'350'
p1012
F299.2971901682053
tp1013
aF10.465454714019819
g1008
S'2012-03-02 17:15:55'
p1014
I55
F1555.2828533335007
F1610.4142540839514
tp1015
a((lp1016
(g830
g1012
F873.6301030909079
tp1017
a(g1012
S'172'
p1018
F1068.9242700134396
tp1019
a(g1018
S'235'
p1020
F565.7753153999612
tp1021
a(g1020
S'172'
p1022
F183.1750662135485
tp1023
aF80.74514264153572
g1014
S'2012-03-02 17:17:55'
p1024
I29
F2691.5047547178574
F801.3500476126488
tp1025
a((lp1026
(g579
g1022
F748.9503816122938
tp1027
a(g1022
S'128'
p1028
F673.8897918142452
tp1029
a(g1028
S'463'
p1030
F579.5406775008636
tp1031
a(g1030
g805
F523.1406006777456
tp1032
a(g805
g581
F220.48648381181752
tp1033
aF39.70131954819709
g1024
S'2012-03-02 17:22:04'
p1034
I0
F2746.0079354169657
F1103.5125214173459
tp1035
a((lp1036
(g817
g817
F0.0
tp1037
aF11.366790526102845
g1034
S'2012-03-02 17:22:36'
p1038
I29
F101.03813800980306
F101.08573731606563
tp1039
a((lp1040
(g817
g817
F0.0
tp1041
aF1.95184503380864
g1038
S'2012-03-02 17:23:36'
p1042
I0
F32.53075056347733
F32.992294598671464
tp1043
a((lp1044
(g817
g581
F796.8130295738739
tp1045
a(g581
g583
F94.57898616455803
tp1046
aF24.127904185401164
g1042
S'2012-03-02 17:25:49'
p1047
I0
F891.392015738432
F890.5521367285079
tp1048
a((lp1049
(g588
g583
F1135.5742397681192
tp1050
a(g583
g590
F280.8253632441238
tp1051
aF84.98397618073457
g1047
S'2012-03-02 17:26:49'
p1052
I59
F1416.399603012243
F854.2021861352749
tp1053
a((lp1054
(g19
g590
F1076.4136068761532
tp1055
a(g590
g596
F795.5882439156834
tp1056
a(g596
g31
F2128.2368240663845
tp1057
a(g31
g33
F516.3741780275716
tp1058
a(g33
g634
F336.87317808984017
tp1059
a(g634
g641
F348.33486400960794
tp1060
a(g641
g643
F522.2079091612247
tp1061
a(g643
g650
F505.9919712639641
tp1062
a(g650
g652
F343.4160234801613
tp1063
a(g652
g654
F502.52151206068487
tp1064
a(g654
g664
F899.3736486026992
tp1065
a(g664
S'160'
p1066
F1654.504702992569
tp1067
a(g1066
S'348'
p1068
F749.9190888032648
tp1069
a(g1068
S'40'
p1070
F401.59962843252373
tp1071
a(g1070
S'189'
p1072
F470.6320208254988
tp1073
a(g1072
S'227'
p1074
F420.212623628153
tp1075
aF135.5481293137082
g1052
S'2012-03-02 17:31:59'
p1076
I29
F11672.200024235983
F2191.2436479999983
tp1077
a((lp1078
(S'189'
p1079
g1074
F581.5350194289308
tp1080
a(g1074
S'189'
p1081
F161.32239584715794
tp1082
a(g1081
S'40'
p1083
F470.6320208254988
tp1084
a(g1083
S'348'
p1085
F401.59962843252373
tp1086
a(g1085
S'423'
p1087
F401.7062149289834
tp1088
a(g1087
S'27'
p1089
F360.14779166603097
tp1090
a(g1089
S'333'
p1091
F132.2222888166717
tp1092
aF98.1847314761399
g1076
S'2012-03-02 17:33:31'
p1093
I0
F2509.1653599457973
F747.3992220681253
tp1094
a((lp1095
(S'27'
p1096
g1091
F2898.088955977045
tp1097
a(g1091
S'27'
p1098
F3030.311243427994
tp1099
a(g1098
S'312'
p1100
F335.3367748423742
tp1101
a(g1100
S'442'
p1102
F415.63612426611155
tp1103
aF500.95298238851433
g1093
S'2012-03-02 17:34:19'
p1104
I37
F6679.373098513524
F314.66562066268415
tp1105
a((lp1106
(S'312'
p1107
g1102
F47.98789258832649
tp1108
a(g1102
S'308'
p1109
F246.59154119489165
tp1110
a(g1109
S'161'
p1111
F363.9898958922664
tp1112
a(g1111
S'38'
p1113
F395.1980491794735
tp1114
a(g1113
S'204'
p1115
F174.90340693001784
tp1116
a(g1115
S'38'
p1117
F234.7002392798095
tp1118
aF25.824194559966802
g1104
S'2012-03-02 17:37:43'
p1119
I38
F1463.3710250647855
F1086.3185578360444
tp1120
a((lp1121
(S'204'
p1122
g1117
F59.7968323500071
tp1123
a(g1117
S'161'
p1124
F286.6115742516619
tp1125
aF14.171252997341005
g1119
S'2012-03-02 17:39:11'
p1126
I5
F346.408406601669
F195.2819522875521
tp1127
a((lp1128
(S'38'
p1129
g1124
F681.8096233426454
tp1130
a(g1124
S'136'
p1131
F277.1783805218592
tp1132
a(g1131
S'442'
p1133
F216.54899126889097
tp1134
aF71.72768105898685
g1126
S'2012-03-02 17:40:10'
p1135
I20
F1175.5369951333955
F491.55940475917134
tp1136
a((lp1137
(S'136'
p1138
g1133
F583.3189565270764
tp1139
a(g1133
g1109
F246.59154119489165
tp1140
a(g1109
S'226'
p1141
F372.68933255505124
tp1142
aF35.77982966113446
g1135
S'2012-03-02 17:42:11'
p1143
I27
F1202.5998302770192
F934.2694117807067
tp1144
a((lp1145
(S'308'
p1146
g1141
F21.696597094812986
tp1147
a(g1141
S'312'
p1148
F203.12191604004383
tp1149
a(g1148
S'27'
p1150
F335.3367748423742
tp1151
a(g1150
S'423'
p1152
F360.14779166603097
tp1153
a(g1152
S'348'
p1154
F241.2906000234973
tp1155
aF31.921658372521634
g1143
S'2012-03-02 17:44:22'
p1156
I16
F1161.5936796667593
F943.7904433632385
tp1157
a((lp1158
(S'423'
p1159
g1159
F0.0
tp1160
aF8.30537811425218
g1156
S'2012-03-02 17:45:28'
p1161
I0
F152.26526542795665
F152.68467205571824
tp1162
a((lp1163
(g1159
g1154
F8.150349482005543
tp1164
a(g1154
S'160'
p1165
F749.9190888032648
tp1166
a(g1165
S'195'
p1167
F1654.504702992569
tp1168
a(g1167
g670
F441.53557236494987
tp1169
aF57.08219427285579
g1161
S'2012-03-02 17:48:28'
p1170
I37
F2854.1097136427893
F1464.0513449902166
tp1171
a((lp1172
(S'195'
p1173
g670
F1340.9092203466407
tp1174
a(g670
g664
F899.3736486026992
tp1175
a(g664
S'141'
p1176
F30.05841422682832
tp1177
aF140.91773481783113
g1170
S'2012-03-02 17:49:26'
p1178
I35
F2270.3412831761684
F374.88154387542266
tp1179
a((lp1180
(g1173
g1176
F258.6213795786165
tp1181
a(g1176
S'195'
p1182
F288.679793805085
tp1183
a(g1182
g670
F899.3736486026992
tp1184
a(g670
g656
F502.52151206068487
tp1185
a(g656
g433
F343.4160234801613
tp1186
a(g433
g435
F505.9919712639641
tp1187
a(g435
g437
F522.2079091612247
tp1188
a(g437
g444
F348.33486400960794
tp1189
a(g444
g641
F36.552092779254714
tp1190
aF889.3678067379117
g1178
S'2012-03-02 17:49:41'
p1191
I0
F3705.6991947412985
F48.620088250985454
tp1192
a((lp1193
(S'12'
p1194
g641
F384.88695678288
tp1195
a(g641
g643
F522.2079091612247
tp1196
a(g643
g650
F505.9919712639641
tp1197
a(g650
g652
F343.4160234801613
tp1198
a(g652
g673
F739.6760747221767
tp1199
a(g673
g390
F135.28250215766084
tp1200
aF24.995412071886662
g1191
S'2012-03-02 17:56:00'
p1201
I14
F2631.461437568068
F2148.488557190121
tp1202
a((lp1203
(S'414'
p1204
g390
F24.723247124823487
tp1205
a(g390
g392
F155.7551709184441
tp1206
aF10.828705082596056
g1201
S'2012-03-02 17:57:00'
p1207
I9
F180.4784180432676
F143.11408562727465
tp1208
a((lp1209
(S'203'
p1210
g392
F214.23096516315886
tp1211
a(g392
g420
F369.98613606887915
tp1212
a(g420
g422
F368.0088368231708
tp1213
aF19.815106225426312
g1207
S'2012-03-02 17:59:53'
p1214
I3
F952.2259380552088
F266.4245986905902
tp1215
a((lp1216
(g1210
g422
F494.85034842606314
tp1217
a(g422
S'203'
p1218
F126.8415116158981
tp1219
a(g1218
g392
F369.98613606887915
tp1220
a(g392
g677
F318.45755170964907
tp1221
aF174.6847397093986
g1214
S'2012-03-02 18:00:20'
p1222
I0
F1310.1355478204896
F25.504408475850166
tp1223
a((lp1224
(g399
g399
F0.0
tp1225
aF9.379738695509712
g1222
S'2012-03-02 18:01:50'
p1226
I11
F234.49346738774278
F234.3119290111627
tp1227
a((lp1228
(g399
g399
F0.0
tp1229
aF2.343661912446512
g1226
S'2012-03-02 18:03:05'
p1230
I7
F48.82628984263567
F48.85490433688771
tp1231
a((lp1232
(g399
g677
F369.90242034604717
tp1233
a(g677
g683
F334.7646258643055
tp1234
a(g683
g420
F369.98613606887915
tp1235
a(g420
g422
F126.8415116158981
tp1236
a(g422
g1218
F298.0622519622664
tp1237
aF245.38204568575574
g1230
S'2012-03-02 18:03:27'
p1238
I9
F1499.5569458573962
F29.549226113076813
tp1239
a((lp1240
(g429
g1218
F171.22074035008154
tp1241
a(g1218
g422
F126.8415116158981
tp1242
a(g422
S'263'
p1243
F152.67529151273166
tp1244
aF46.36157590066744
g1238
S'2012-03-02 18:04:02'
p1245
I0
F450.73754347871125
F43.53355749929203
tp1246
a.