(lp0
((lp1
(S'1'
p2
S'190'
p3
F355.39302082524244
tp4
a(g3
S'200'
p5
F65.9676834156334
tp6
a(g5
S'323'
p7
F638.105914332198
tp8
a(g7
S'195'
p9
F79.41511432456005
tp10
aF68.33290397385804
S'2012-03-02 08:55:14'
p11
S'2012-03-02 08:56:14'
p12
I68
F1138.881732897634
F1074.8755691975753
tp13
a((lp14
(S'323'
p15
g9
F819.958534346665
tp16
a(g9
S'141'
p17
F288.679793805085
tp18
a(g17
S'349'
p19
F144.75772780934173
tp20
a(g19
S'141'
p21
F389.82853014280886
tp22
aF98.59347516623404
g12
S'2012-03-02 08:57:14'
p23
I59
F1643.2245861039007
F1061.2923563796194
tp24
a((lp25
(S'349'
p26
g21
F245.07080235008664
tp27
a(g21
S'195'
p28
F288.679793805085
tp29
a(g28
S'160'
p30
F1654.504702992569
tp31
a(g30
S'348'
p32
F749.9190888032648
tp33
a(g32
S'40'
p34
F401.59962843252373
tp35
a(g34
S'400'
p36
F175.03635260490466
tp37
a(g36
S'359'
p38
F368.9484986175782
tp39
a(g38
S'220'
p40
F423.40012907983873
tp41
a(g40
S'196'
p42
F611.7560822228065
tp43
a(g42
S'328'
p44
F3.231308953921758
tp45
aF97.89904417848224
g23
S'2012-03-02 09:00:15'
p46
I62
F4922.146387862579
F3069.77179073611
tp47
a((lp48
(S'196'
p49
g44
F211.96011744606665
tp50
a(g44
S'62'
p51
F304.77298423724176
tp52
a(g51
S'79'
p53
F766.4395078482208
tp54
a(g53
S'206'
p55
F11.383958168329297
tp56
aF58.99245118632268
g46
S'2012-03-02 09:01:34'
p57
I44
F1294.5565676998588
F935.2558315693759
tp58
a((lp59
(S'79'
p60
g55
F329.47996632501315
tp61
a(g55
S'79'
p62
F340.8639244928786
tp63
a(g62
S'62'
p64
F766.4395078482208
tp65
a(g64
S'328'
p66
F304.77298423724176
tp67
a(g66
S'196'
p68
F339.5390467243755
tp69
aF83.24381718510921
g57
S'2012-03-02 09:03:04'
p70
I0
F2081.09542962773
F342.65462052913784
tp71
a((lp72
(S'328'
p73
g68
F548.2678551694861
tp74
a(g68
S'220'
p75
F182.84671938121087
tp76
aF43.86687447304182
g70
S'2012-03-02 09:04:04'
p77
I64
F731.114574550697
F804.257745165751
tp78
a((lp79
(g49
g75
F428.9093628994711
tp80
a(g75
S'359'
p81
F423.40012907983873
tp82
a(g81
S'400'
p83
F368.9484986175782
tp84
a(g83
S'40'
p85
F175.03635260490466
tp86
a(g85
S'348'
p87
F401.59962843252373
tp88
a(g87
S'160'
p89
F749.9190888032648
tp90
a(g89
S'195'
p91
F1654.504702992569
tp92
a(g91
S'323'
p93
F899.3736486026992
tp94
a(g93
S'371'
p95
F502.52151206068487
tp96
a(g95
S'1158'
p97
F343.4160234801613
tp98
a(g97
S'233'
p99
F505.9919712639641
tp100
a(g99
S'324'
p101
F522.2079091612247
tp102
a(g101
S'12'
p103
F348.33486400960794
tp104
a(g103
S'307'
p105
F336.87317808984017
tp106
a(g105
S'101'
p107
F516.3741780275716
tp108
a(g107
S'307'
p109
F45.22808849858116
tp110
aF155.79737311499028
g77
S'2012-03-02 09:07:14'
p111
I61
F8222.639136624486
F2243.3068149338064
tp112
a((lp113
(S'101'
p114
g109
F561.6022665105262
tp115
a(g109
S'12'
p116
F336.87317808984017
tp117
a(g116
S'324'
p118
F348.33486400960794
tp119
a(g118
S'233'
p120
F522.2079091612247
tp121
a(g120
S'1158'
p122
F505.9919712639641
tp123
a(g122
S'371'
p124
F343.4160234801613
tp125
a(g124
S'323'
p126
F502.52151206068487
tp127
a(g126
g9
F899.3736486026992
tp128
a(g9
g17
F288.679793805085
tp129
a(g17
g19
F233.60842980383413
tp130
aF272.5565758072577
g111
S'2012-03-02 09:08:14'
p131
I33
F4542.609596787628
F655.2422360399537
tp132
a((lp133
(S'141'
p134
g19
F378.36615759781097
tp135
a(g19
g21
F144.75772780934173
tp136
a(g21
g28
F288.679793805085
tp137
a(g28
g93
F899.3736486026992
tp138
a(g93
S'200'
p139
F236.7011200792047
tp140
aF58.43635343682425
g131
S'2012-03-02 09:10:14'
p141
I37
F1947.8784478941416
F1320.39014081815
tp142
a((lp143
(g15
g139
F401.4047943328423
tp144
a(g139
S'190'
p145
F65.9676834156334
tp146
a(g145
g2
F133.23962227802784
tp147
a(g2
S'371'
p148
F725.2487623614271
tp149
a(g148
g97
F343.4160234801613
tp150
a(g97
g99
F505.9919712639641
tp151
a(g99
S'1222'
p152
F314.42150737049457
tp153
a(g152
S'886'
p154
F498.13109666342655
tp155
a(g154
S'1233'
p156
F203.95830291726205
tp157
a(g156
S'820'
p158
F255.3750506846333
tp159
a(g158
S'970'
p160
F247.7378419176489
tp161
a(g160
S'1069'
p162
F341.3439466411589
tp163
aF6.3066196926979385
g141
S'2012-03-02 09:48:38'
p164
I44
F4036.2366033266803
F1845.2912920026001
tp165
a((lp166
(S'970'
p167
g162
F641.5341187779065
tp168
a(g162
S'970'
p169
F300.1901722143531
tp170
a(g169
S'774'
p171
F142.66084037808292
tp172
aF65.06310788222056
g164
S'2012-03-02 09:49:38'
p173
I42
F1084.3851313703426
F536.3425916139228
tp174
a((lp175
(g167
g171
F234.6756015260529
tp176
a(g171
S'895'
p177
F23.787694135679665
tp178
aF29.077120761944915
g173
S'2012-03-02 09:50:10'
p179
I55
F258.46329566173256
F217.53336110938727
tp180
a((lp181
(S'774'
p182
g177
F292.20876043474624
tp183
a(g177
S'1229'
p184
F249.3697768587104
tp185
a(g184
S'895'
p186
F287.53864682972215
tp187
aF33.537324301611726
g179
S'2012-03-02 09:51:39'
p188
I0
F829.1171841231787
F55.55628731273791
tp189
a((lp190
(S'1229'
p191
g186
F38.16886997411352
tp192
a(g186
S'774'
p193
F268.4210662990969
tp194
a(g193
S'970'
p195
F320.9868849695843
tp196
aF14.12047847796288
g188
S'2012-03-02 09:54:19'
p197
I27
F627.5768212427947
F347.61728527098364
tp198
a((lp199
(g182
g195
F56.34955693136867
tp200
a(g195
g171
F353.3052315109364
tp201
aF12.289643653269152
g197
S'2012-03-02 09:56:19'
p202
I48
F409.65478844230506
F489.0500299105048
tp203
a((lp204
(g167
g171
F730.6416733547624
tp205
a(g171
g195
F377.3364418971982
tp206
a(g195
S'820'
p207
F247.7378419176489
tp208
a(g207
S'887'
p209
F1042.7797147525323
tp210
a(g209
S'989'
p211
F46.92351537497157
tp212
aF80.03190067517825
g202
S'2012-03-02 09:58:09'
p213
I0
F2445.4191872971132
F658.4374079689995
tp214
a((lp215
(S'887'
p216
g211
F737.8398537002948
tp217
a(g211
S'1036'
p218
F786.7860140536283
tp219
a(g218
S'1151'
p220
F499.30418929770127
tp221
a(g220
S'1232'
p222
F572.8013873462398
tp223
a(g222
S'901'
p224
F500.4166198457959
tp225
a(g224
S'937'
p226
F654.3387647481585
tp227
a(g226
S'988'
p228
F84.85729485795852
tp229
a(g228
S'1127'
p230
F152.49726409143645
tp231
a(g230
S'967'
p232
F190.65766483400054
tp233
a(g232
S'900'
p234
F217.51739317672622
tp235
a(g234
S'1082'
p236
F349.49031316524434
tp237
aF0.9761453489187014
g213
S'2012-03-02 14:49:54'
p238
I31
F4746.5067591171855
F3518.544331036673
tp239
a((lp240
(S'900'
p241
g236
F754.7566090246834
tp242
a(g236
S'1127'
p243
F6.8306029289612695
tp244
a(g243
S'988'
p245
F152.49726409143645
tp246
a(g245
S'937'
p247
F84.85729485795852
tp248
a(g247
S'1061'
p249
F930.5990375079346
tp250
a(g249
S'1062'
p251
F386.52012295546916
tp252
aF34.45379897900494
g238
S'2012-03-02 14:53:56'
p253
I48
F2316.060931366443
F1938.7049879684998
tp254
a((lp255
(S'1061'
p256
g251
F56.37917518901318
tp257
a(g251
S'974'
p258
F148.0943421300856
tp259
aF21.65013712790458
g253
S'2012-03-02 14:54:30'
p260
I18
F204.4735173190988
F204.41510772369665
tp261
a((lp262
(S'1062'
p263
g263
F0.0
tp264
aF2.5864907731098485
g260
S'2012-03-02 14:55:30'
p265
I0
F43.10817955183081
F43.15529125027853
tp266
a((lp267
(g263
g258
F7.783848073344335
tp268
a(g258
S'991'
p269
F656.1638760738123
tp270
a(g269
S'874'
p271
F237.07629077782101
tp272
a(g271
S'867'
p273
F236.86372865946717
tp274
aF80.32148778243139
g265
S'2012-03-02 14:56:21'
p275
I27
F1137.8877435844447
F444.6851970467924
tp276
a((lp277
(S'874'
p278
g273
F728.9128480078281
tp279
a(g273
S'920'
p280
F408.84211159134935
tp281
a(g280
S'1016'
p282
F448.76378212167555
tp283
a(g282
S'1150'
p284
F476.5728920163904
tp285
a(g284
S'1062'
p286
F194.7563084101235
tp287
a(g286
S'1061'
p288
F36.9491537887513
tp289
aF89.79640810184809
g275
S'2012-03-02 14:57:53'
p290
I0
F2294.797095936118
F672.3131019179466
tp291
a((lp292
(g263
g288
F405.9501443523053
tp293
a(g288
S'1185'
p294
F373.27393365369306
tp295
a(g294
S'1073'
p296
F401.933419412357
tp297
a(g296
S'987'
p298
F307.43835859130934
tp299
aF36.705103298868444
g290
S'2012-03-02 15:00:19'
p300
I40
F1488.5958560096647
F799.0160226452927
tp301
a((lp302
(S'1073'
p303
g298
F892.754856243473
tp304
a(g298
S'1189'
p305
F541.0596802687863
tp306
a(g305
S'887'
p307
F211.8840444636607
tp308
a(g307
S'1027'
p309
F974.3320508593303
tp310
a(g309
S'842'
p311
F108.42347341772006
tp312
a(g311
S'929'
p313
F138.91582185729666
tp314
a(g313
S'414'
p315
F303.12038890948725
tp316
a(g315
S'203'
p317
F110.55925503297553
tp318
a(g317
S'431'
p319
F113.50573687014733
tp320
aF67.89110615845755
g300
S'2012-03-02 15:03:19'
p321
I42
F3394.5553079228775
F3387.4039498375205
tp322
a((lp323
(S'203'
p324
g319
F256.48039920984615
tp325
a(g319
S'203'
p326
F369.98613606887915
tp327
a(g326
S'414'
p328
F110.55925503297553
tp329
a(g328
S'929'
p330
F303.12038890948725
tp331
a(g330
S'842'
p332
F138.91582185729666
tp333
a(g332
S'1027'
p334
F108.42347341772006
tp335
a(g334
S'887'
p336
F974.3320508593303
tp337
a(g336
S'820'
p338
F18.90672981560538
tp339
aF1.109991526107355
g321
S'2012-03-02 17:06:36'
p340
I59
F2280.72425517114
F1779.86263894135
tp341
a((lp342
(g216
g338
F1061.6864445438184
tp343
a(g338
g209
F1042.7797147525323
tp344
a(g209
S'1189'
p345
F211.8840444636607
tp346
a(g345
S'987'
p347
F541.0596802687863
tp348
a(g347
S'1073'
p349
F309.4157263770131
tp350
aF190.00953662434867
g340
S'2012-03-02 17:07:36'
p351
I16
F3166.825610405811
F409.0377377406831
tp352
a((lp353
(S'987'
p354
g349
F894.7322240288437
tp355
a(g349
g298
F585.3164976896943
tp356
a(g298
g305
F541.0596802687863
tp357
a(g305
g307
F211.8840444636607
tp358
a(g307
g338
F64.20902716467276
tp359
aF318.07405019293725
g351
S'2012-03-02 17:08:02'
p360
I18
F2297.201473615658
F29.91226784407881
tp361
a((lp362
(g216
g338
F978.5706876645796
tp363
a(g338
g209
F1042.7797147525323
tp364
a(g209
g345
F211.8840444636607
tp365
a(g345
g347
F297.9104288797062
tp366
aF650.8658251955517
g360
S'2012-03-02 17:08:16'
p367
I0
F2531.144875760479
F40.30694948915537
tp368
a((lp369
(S'1189'
p370
g347
F243.14925139831288
tp371
a(g347
g349
F10.58840266536731
tp372
aF6.432785595980625
g367
S'2012-03-02 17:10:38'
p373
I11
F253.7376540636802
F256.59854302897986
tp374
a((lp375
(g354
g354
F0.0
tp376
aF28.246614284394102
g373
S'2012-03-02 17:11:38'
p377
I31
F470.77690473990174
F470.9843276879003
tp378
a((lp379
(g354
g349
F103.95119029182383
tp380
a(g349
S'1185'
p381
F401.933419412357
tp382
a(g381
S'1061'
p383
F102.7049267070602
tp384
aF43.818446621609354
g377
S'2012-03-02 17:12:28'
p385
I3
F608.589536411241
F117.92637789655825
tp386
a((lp387
(S'1185'
p388
g383
F475.97886033965364
tp389
a(g383
g251
F345.91279676715817
tp390
aF24.65674971320436
g385
S'2012-03-02 17:14:28'
p391
I37
F821.8916571068119
F900.5387620308366
tp392
a((lp393
(g256
g251
F96.9865013832511
tp394
a(g251
g258
F183.41867360754313
tp395
a(g258
S'833'
p396
F480.1669052301094
tp397
a(g396
S'852'
p398
F477.68484044894325
tp399
aF114.3006388310628
g391
S'2012-03-02 17:15:07'
p400
I29
F1238.256920669847
F220.43604634898173
tp401
a((lp402
(S'833'
p403
g398
F841.6801077544977
tp404
a(g398
S'833'
p405
F363.99526731937345
tp406
a(g405
S'974'
p407
F480.1669052301094
tp408
a(g407
g269
F450.7994961965704
tp409
aF55.73848112610134
g400
S'2012-03-02 17:17:25'
p410
I0
F2136.6417765005513
F510.1759728332137
tp411
a((lp412
(S'974'
p413
g269
F205.3643799468394
tp414
a(g269
S'814'
p415
F233.95110289913038
tp416
aF26.358928970758186
g410
S'2012-03-02 17:18:25'
p417
I7
F439.31548284596977
F439.16946115241655
tp418
a((lp419
(S'991'
p420
g415
F360.60060848629297
tp421
a(g415
S'792'
p422
F350.26427291339104
tp423
a(g422
S'814'
p424
F378.9940230834043
tp425
aF38.46560839352077
g417
S'2012-03-02 17:20:07'
p426
I31
F1089.8589044830883
F423.3551900068747
tp427
a((lp428
(S'792'
p429
g424
F28.729750174346172
tp430
a(g424
S'994'
p431
F375.362399322151
tp432
a(g431
S'963'
p433
F521.73314507341
tp434
a(g433
S'778'
p435
F513.8652496215955
tp436
a(g435
S'1044'
p437
F302.5121384580218
tp438
a(g437
S'1107'
p439
F458.99297509231917
tp440
aF70.75271757027355
g426
S'2012-03-02 17:21:59'
p441
I0
F2201.1956577418437
F544.4503713443687
tp442
a((lp443
(S'1044'
p444
g439
F737.4171062810709
tp445
a(g439
S'791'
p446
F226.13434667854332
tp447
a(g446
S'834'
p448
F344.3991517532198
tp449
a(g448
S'1068'
p450
F128.40964248009593
tp451
a(g450
S'1032'
p452
F287.5482508719534
tp453
a(g452
S'796'
p454
F361.8967412680692
tp455
a(g454
S'988'
p456
F37.46020309095503
tp457
a(g456
S'777'
p458
F272.8699694552608
tp459
aF6.408683122410851
g441
S'2012-03-02 17:44:25'
p460
I0
F2396.1354118791683
F1999.9501903816065
tp461
a((lp462
(S'988'
p463
g458
F701.5649993669583
tp464
a(g458
S'1185'
p465
F465.5645320107461
tp466
a(g465
g296
F401.933419412357
tp467
a(g296
g298
F280.70518751259226
tp468
aF55.493044149079616
g460
S'2012-03-02 17:46:25'
p469
I44
F1849.7681383026538
F1835.2989370952785
tp470
a((lp471
(g303
g298
F304.6113101887922
tp472
a(g298
g305
F93.43256002551051
tp473
aF23.491113651991633
g469
S'2012-03-02 17:47:26'
p474
I31
F398.0438702143027
F210.9546615823209
tp475
a((lp476
(g354
g305
F634.4922402866507
tp477
a(g305
g307
F471.33622958003633
tp478
aF66.34970819200123
g474
S'2012-03-02 17:48:26'
p479
I0
F1105.828469866687
F163.16226997018606
tp480
a((lp481
(g370
g370
F0.0
tp482
aF7.767408942381952
g479
S'2012-03-02 17:49:26'
p483
I7
F129.45681570636586
F129.30164589120852
tp484
a((lp485
(g370
g307
F553.7634583326242
tp486
a(g307
g345
F211.8840444636607
tp487
a(g345
g347
F541.0596802687863
tp488
a(g347
g305
F347.1338058603166
tp489
aF66.89693887788086
g483
S'2012-03-02 17:50:55'
p490
I11
F1653.8409889253878
F148.44463447447873
tp491
a((lp492
(g354
g305
F193.92587441704669
tp493
a(g305
g307
F211.8840444636607
tp494
a(g307
g309
F290.8533490324934
tp495
aF41.79979607479205
g490
S'2012-03-02 17:51:55'
p496
I14
F696.6632679132008
F114.6702196141519
tp497
a((lp498
(g216
g216
F0.0
tp499
aF46.72466807817117
g496
S'2012-03-02 17:52:55'
p500
I7
F778.7444679695194
F777.2125917473226
tp501
a((lp502
(g216
g309
F486.44093194399886
tp503
a(g309
g311
F108.42347341772006
tp504
a(g311
g313
F138.91582185729666
tp505
a(g313
g315
F303.12038890948725
tp506
a(g315
g317
F110.55925503297553
tp507
a(g317
g319
F369.98613606887915
tp508
a(g319
S'392'
p509
F190.40447541144195
tp510
aF51.23551447925399
g500
S'2012-03-02 17:54:55'
p511
I72
F1707.8504826417998
F1678.2550790448724
tp512
a.