(lp0
((lp1
(S'1229'
p2
S'895'
p3
F520.2918755497009
tp4
a(g3
S'973'
p5
F444.35669521011835
tp6
a(g5
S'1191'
p7
F421.1762999709186
tp8
aF54.823841039897324
S'2012-03-02 06:59:58'
p9
S'2012-03-02 07:01:29'
p10
I29
F1385.8248707307378
F543.062440350007
tp11
a((lp12
(S'973'
p13
g7
F833.5854334551856
tp14
a(g7
S'1218'
p15
F264.7542280364345
tp16
a(g15
S'1191'
p17
F282.1450884903468
tp18
aF49.2053970290602
g10
S'2012-03-02 07:03:10'
p19
I29
F1380.4847499819668
F787.8913280867303
tp20
a((lp21
(S'1218'
p22
g17
F17.390860453943816
tp23
a(g17
S'1124'
p24
F26.887649427542435
tp25
aF4.087247065983346
g19
S'2012-03-02 07:03:49'
p26
I0
F44.27850988148625
F72.75661706370057
tp27
a((lp28
(S'1191'
p29
g24
F321.7764068170546
tp30
a(g24
S'1135'
p31
F60.55017519618935
tp32
aF14.488165213133454
g26
S'2012-03-02 07:05:24'
p33
I40
F382.3265820132439
F333.9611920981776
tp34
a((lp35
(S'1124'
p36
g31
F804.2230022860577
tp37
a(g31
S'955'
p38
F207.71700266283523
tp39
a(g38
S'844'
p40
F135.70247565144197
tp41
a(g40
S'1045'
p42
F161.05814139702346
tp43
a(g42
S'1218'
p44
F380.2508287917065
tp45
a(g44
S'1045'
p46
F60.871143876796765
tp47
aF224.97719074275366
g33
S'2012-03-02 07:05:52'
p48
I35
F1749.8225946658617
F188.52610896849924
tp49
a((lp50
(g22
g46
F441.12197266797097
tp51
a(g46
S'844'
p52
F161.05814139702346
tp53
a(g52
S'955'
p54
F135.70247565144197
tp55
a(g54
S'813'
p56
F56.66466961496389
tp57
a(g56
S'921'
p58
F182.17650096521103
tp59
a(g58
S'927'
p60
F195.5482192140499
tp61
a(g60
S'1125'
p62
F136.19141480974062
tp63
a(g62
S'927'
p64
F106.36675698654781
tp65
aF65.29985313724383
g48
S'2012-03-02 07:07:10'
p66
I0
F1414.8301513069498
F420.69087040433834
tp67
a((lp68
(S'1125'
p69
g64
F29.8246578236667
tp70
a(g64
S'1135'
p71
F240.4485615059529
tp72
a(g71
S'982'
p73
F520.658362716069
tp74
a(g73
S'1009'
p75
F166.68425533996464
tp76
aF28.7284751215696
g66
S'2012-03-02 07:09:10'
p77
I0
F957.6158373856533
F11.893478224517214
tp78
a((lp79
(S'982'
p80
g75
F587.9545439933241
tp81
a(g75
S'1124'
p82
F343.5463299595581
tp83
a(g82
g31
F864.7731774810748
tp84
a(g31
S'927'
p85
F240.4485615059529
tp86
a(g85
g62
F22.164186259556317
tp87
aF529.4280340798628
g77
S'2012-03-02 07:09:24'
p88
I0
F2058.886799199466
F3.4077067763609348
tp89
a((lp90
(S'927'
p91
g91
F0.0
tp92
aF0.16635736655563482
g88
S'2012-03-02 07:10:29'
p93
I0
F3.0036746739211844
F9.054883033791862
tp94
a((lp95
(g91
g62
F111.02355387667731
tp96
a(g62
g64
F136.19141480974062
tp97
a(g64
g71
F240.4485615059529
tp98
a(g71
g73
F45.07062707603736
tp99
aF46.77665771137242
g93
S'2012-03-02 07:11:10'
p100
I0
F532.7341572684081
F75.66488718443483
tp101
a((lp102
(S'1135'
p103
g73
F475.5877356531828
tp104
a(g73
S'1135'
p105
F520.658362716069
tp106
a(g105
g85
F240.4485615059529
tp107
a(g85
S'921'
p108
F195.5482192140499
tp109
a(g108
S'806'
p110
F38.714990298243265
tp111
aF63.800582286686655
g100
S'2012-03-02 07:12:33'
p112
I0
F1470.9578693874978
F442.70330008773277
tp113
a((lp114
(S'921'
p115
g110
F68.7676987794419
tp116
a(g110
S'1020'
p117
F137.50962711414766
tp118
a(g117
S'1145'
p119
F138.3852165812993
tp120
a(g119
S'1104'
p121
F725.1024325879025
tp122
a(g121
S'1209'
p123
F340.0113446486208
tp124
a(g123
S'1222'
p125
F529.8005662370716
tp126
a(g125
S'233'
p127
F314.42150737049457
tp128
a(g127
S'1158'
p129
F505.9919712639641
tp130
a(g129
S'371'
p131
F343.4160234801613
tp132
a(g131
S'323'
p133
F502.52151206068487
tp134
a(g133
S'195'
p135
F899.3736486026992
tp136
a(g135
S'141'
p137
F288.679793805085
tp138
a(g137
S'349'
p139
F254.22395272005326
tp140
aF75.7230794287744
g112
S'2012-03-02 07:16:33'
p141
I24
F5048.205295251626
F1763.9796561212618
tp142
a((lp143
(S'141'
p144
g139
F109.46622491544461
tp145
a(g139
S'286'
p146
F215.09626284539777
tp147
a(g146
S'290'
p148
F181.32466665662517
tp149
a(g148
S'35'
p150
F413.7189959181754
tp151
a(g150
S'200'
p152
F774.7867391124779
tp153
a(g152
S'190'
p154
F65.9676834156334
tp155
a(g154
S'1'
p156
F133.23962227802784
tp157
a(g156
S'392'
p158
F1075.0148639845097
tp159
a(g158
S'270'
p160
F95.85961614434376
tp161
a(g160
S'433'
p162
F330.3168336032497
tp163
a(g162
S'60'
p164
F276.8027950094073
tp165
aF110.14782911649876
g141
S'2012-03-02 07:18:33'
p166
I77
F3671.594303883292
F2289.117701569547
tp167
a((lp168
(S'433'
p169
g164
F1639.8688583710652
tp170
a(g164
S'97'
p171
F1020.3764292495448
tp172
a(g171
S'413'
p173
F1079.6824743926077
tp174
a(g173
S'182'
p175
F277.62671143061647
tp176
aF120.52663420331503
g166
S'2012-03-02 07:20:33'
p177
I51
F4017.5544734438345
F2170.4841642623296
tp178
a((lp179
(S'413'
p180
g175
F224.05380967295193
tp181
a(g175
S'58'
p182
F1050.0893319780932
tp183
a(g182
S'44'
p184
F425.7072799852992
tp185
a(g184
S'354'
p186
F368.1669783647421
tp187
aF5.709250490800546
g177
S'2012-03-02 07:42:17'
p188
I92
F2068.0174000010866
F1468.3076141069969
tp189
a((lp190
(S'44'
p191
g186
F831.8565817674212
tp192
a(g186
S'44'
p193
F463.6896035674754
tp194
a(g193
S'58'
p195
F425.7072799852992
tp196
a(g195
S'182'
p197
F1050.0893319780932
tp198
a(g197
S'413'
p199
F501.6805211022033
tp200
a(g199
S'333'
p201
F1407.7106325202305
tp202
a(g201
g156
F975.8745201557714
tp203
a(g156
S'371'
p204
F725.2487623614271
tp205
a(g204
S'1158'
p206
F343.4160234801613
tp207
a(g206
S'233'
p208
F505.9919712639641
tp209
a(g208
S'1222'
p210
F314.42150737049457
tp211
a(g210
S'886'
p212
F44.450106100363705
tp213
aF32.88145924181764
g188
S'2012-03-02 07:56:08'
p214
I0
F7590.136841652905
F5161.042892342079
tp215
a((lp216
(S'1222'
p217
g212
F542.5812027624845
tp218
a(g212
S'1222'
p219
F498.13109666342655
tp220
a(g219
g127
F314.42150737049457
tp221
a(g127
g210
F330.19910796234274
tp222
aF551.5634993755904
g214
S'2012-03-02 07:56:19'
p223
I0
F1685.3329147587483
F60.09291914135556
tp224
a((lp225
(S'233'
p226
g210
F15.777600592022832
tp227
a(g210
g212
F498.13109666342655
tp228
a(g212
S'1233'
p229
F203.95830291726205
tp230
a(g229
S'819'
p231
F280.1051964205321
tp232
a(g231
S'790'
p233
F145.5823712882947
tp234
a(g233
S'860'
p235
F108.13434072706384
tp236
a(g235
S'1030'
p237
F230.54817177966603
tp238
a(g237
S'1046'
p239
F233.06353457732175
tp240
a(g239
S'869'
p241
F156.17213501704404
tp242
a(g241
S'986'
p243
F222.6769481121438
tp244
aF13.134039918364456
g223
S'2012-03-02 08:05:53'
p245
I33
F2094.1496980947772
F1605.5098049232768
tp246
a((lp247
(S'869'
p248
g243
F90.73631191488172
tp249
a(g243
S'869'
p250
F313.4132600262387
tp251
a(g250
S'1046'
p252
F156.17213501704404
tp253
a(g252
S'1111'
p254
F224.7758530051457
tp255
a(g254
S'844'
p256
F216.35782443809995
tp257
a(g256
g54
F11.297122805645833
tp258
aF30.637890974331103
g245
S'2012-03-02 08:07:52'
p259
I42
F1012.7525072070559
F434.9089355709211
tp260
a((lp261
(S'844'
p262
g54
F124.40535284588468
tp263
a(g54
g56
F56.66466961496389
tp264
a(g56
g58
F182.17650096521103
tp265
a(g58
g60
F195.5482192140499
tp266
a(g60
S'959'
p267
F106.9390388791336
tp268
a(g267
S'1170'
p269
F135.9977572931447
tp270
a(g269
S'1066'
p271
F134.29559832461862
tp272
a(g271
S'923'
p273
F376.92868667016097
tp274
aF16.701911539596477
g259
S'2012-03-02 08:12:35'
p275
I0
F1312.9558238071672
F1397.0659810122584
tp276
a((lp277
(S'1066'
p278
g273
F30.605665393322663
tp279
a(g273
S'101'
p280
F930.3605400765287
tp281
a(g280
S'231'
p282
F2128.2368240663845
tp283
a(g282
S'5'
p284
F373.65454097386885
tp285
a(g284
S'26'
p286
F259.35658898200876
tp287
a(g286
S'336'
p288
F397.9717802130234
tp289
aF82.40371879410273
g275
S'2012-03-02 08:15:35'
p290
I33
F4120.185939705137
F2142.860011601284
tp291
a((lp292
(S'26'
p293
g288
F76.54893846601395
tp294
a(g288
S'271'
p295
F145.7434125243181
tp296
a(g295
S'1072'
p297
F455.13887535379115
tp298
a(g297
S'1137'
p299
F827.5221670782628
tp300
a(g299
S'1303'
p301
F433.5652591322851
tp302
aF116.31111915328027
g290
S'2012-03-02 08:16:35'
p303
I29
F1938.518652554671
F792.8250615629853
tp304
a((lp305
(S'1137'
p306
g301
F1158.6862729905185
tp307
a(g301
S'1137'
p308
F725.1210142806609
tp309
a(g308
S'871'
p310
F243.43330809069337
tp311
aF127.63443572171239
g303
S'2012-03-02 08:17:35'
p312
I61
F2127.240595361873
F580.4370707279294
tp313
a((lp314
(g306
g310
F161.4483040151622
tp315
a(g310
S'1137'
p316
F37.4525695128324
tp317
aF34.09729260479907
g312
S'2012-03-02 08:17:56'
p318
I48
F198.90087352799458
F123.93958205839635
tp319
a((lp320
(S'871'
p321
g316
F367.42904259229437
tp322
a(g316
g301
F725.1210142806609
tp323
a(g301
S'1284'
p324
F393.0490934460226
tp325
a(g324
S'1402'
p326
F532.13818844487
tp327
a(g326
S'1345'
p328
F621.7851744782233
tp329
a(g328
S'1329'
p330
F77.35792352713153
tp331
aF38.81257766813147
g318
S'2012-03-02 08:22:08'
p332
I0
F2716.880436769203
F1966.5445390327623
tp333
a((lp334
(S'1345'
p335
g330
F629.2339417707865
tp336
a(g330
S'1326'
p337
F228.31950497932885
tp338
a(g337
S'1343'
p339
F335.7915781764397
tp340
a(g339
S'1239'
p341
F393.6433366208233
tp342
a(g341
S'1385'
p343
F132.19735949178235
tp344
aF51.575571631174824
g332
S'2012-03-02 08:24:08'
p345
I50
F1719.1857210391609
F1197.0411272162046
tp346
a((lp347
(S'1239'
p348
g343
F906.4399799371562
tp349
a(g343
S'1369'
p350
F719.0805874137786
tp351
a(g350
S'1290'
p352
F395.0942341200572
tp353
a(g352
S'1349'
p354
F506.19706899607576
tp355
a(g354
S'1400'
p356
F454.2224401013575
tp357
aF41.92079499236848
g345
S'2012-03-02 08:28:24'
p358
I51
F2981.034310568425
F2335.255815016929
tp359
a((lp360
(S'1349'
p361
g356
F68.77835564636861
tp362
a(g356
S'1260'
p363
F867.3349765185505
tp364
a(g363
S'1400'
p365
F133.32777034482723
tp366
aF35.64803675032488
g358
S'2012-03-02 08:30:12'
p367
I38
F1069.4411025097463
F665.810856014283
tp368
a((lp369
(S'1260'
p370
g365
F734.0072062711331
tp371
a(g365
S'1349'
p372
F385.4440844687764
tp373
a(g372
S'1290'
p374
F506.19706899607576
tp375
a(g374
S'1369'
p376
F395.0942341200572
tp377
a(g376
S'1246'
p378
F32.3178881348985
tp379
aF23.538273041934353
g367
S'2012-03-02 08:35:26'
p380
I0
F2053.060481990941
F1626.1973733225793
tp381
a((lp382
(S'1369'
p383
g378
F619.1473270222348
tp384
a(g378
S'1372'
p385
F401.2293386563323
tp386
a(g385
S'1283'
p387
F288.96879693043786
tp388
aF78.5607277565403
g380
S'2012-03-02 08:36:26'
p389
I31
F1309.345462609005
F907.8836482344308
tp390
a((lp391
(S'1372'
p392
g387
F517.2098503324278
tp393
a(g387
S'1305'
p394
F380.98680687693025
tp395
a(g394
S'1246'
p396
F806.1140954166639
tp397
a(g396
S'1237'
p398
F795.83759413191
tp399
a(g398
S'1386'
p400
F400.05667678215144
tp401
a(g400
S'1249'
p402
F1043.0772787454132
tp403
a(g402
S'1346'
p404
F342.7199784240905
tp405
a(g404
S'1255'
p406
F279.44301727996003
tp407
aF144.17195677861727
g389
S'2012-03-02 08:38:20'
p408
I75
F4565.445297989547
F1632.377644552521
tp409
a((lp410
(S'1346'
p411
g406
F693.8195629264137
tp412
a(g406
S'1346'
p413
F414.37654574297574
tp414
a(g413
S'1249'
p415
F342.7199784240905
tp416
a(g415
S'1386'
p417
F1043.0772787454132
tp418
a(g417
S'1237'
p419
F400.05667678215144
tp420
a(g419
g400
F476.2864274659055
tp421
aF32.61615938793823
g408
S'2012-03-02 08:44:32'
p422
I0
F3370.33647008695
F1087.535799561723
tp423
a((lp424
(S'1237'
p425
g400
F76.22975070040714
tp426
a(g400
S'1295'
p427
F329.92055347398576
tp428
a(g427
S'1333'
p429
F565.6374723484656
tp430
a(g429
S'1396'
p431
F102.54684413103011
tp432
aF64.46007723923331
g422
S'2012-03-02 08:45:32'
p433
I38
F1074.3346206538886
F527.1569520720691
tp434
a((lp435
(S'1333'
p436
g431
F346.83415717217036
tp437
a(g431
S'1333'
p438
F244.28731304118864
tp439
a(g438
S'1309'
p440
F294.47597032801707
tp441
aF60.15378841413121
g433
S'2012-03-02 08:46:25'
p442
I27
F885.597440541376
F304.9769153112109
tp443
a((lp444
(g436
g436
F0.0
tp445
aF5.462024089171917
g442
S'2012-03-02 08:47:08'
p446
I0
F65.24084328733123
F65.22196785336006
tp447
a((lp448
(g436
g440
F35.70521508770962
tp449
a(g440
S'1341'
p450
F433.98151059311044
tp451
aF21.403445727227243
g446
S'2012-03-02 08:48:27'
p452
I44
F469.6867256808201
F398.43320593976813
tp453
a((lp454
(S'1309'
p455
g450
F27.674638962369528
tp456
a(g450
S'1369'
p457
F778.4408342670922
tp458
a(g457
g352
F395.0942341200572
tp459
a(g352
g354
F506.19706899607576
tp460
a(g354
g356
F406.41602472862746
tp461
aF56.78926928259105
g452
S'2012-03-02 08:50:41'
p462
I40
F2113.8228010742223
F2058.4106520276273
tp463
a((lp464
(g361
g356
F20.971940263584536
tp465
a(g356
g363
F867.3349765185505
tp466
a(g363
S'1307'
p467
F1.8521787629682365
tp468
aF24.46238735849139
g462
S'2012-03-02 08:52:52'
p469
I37
F890.1590955451034
F832.3675867285103
tp470
a((lp471
(g370
g467
F769.5693237517557
tp472
a(g467
S'1260'
p473
F767.7171449887937
tp474
a(g473
g365
F867.3349765185505
tp475
a(g365
g372
F385.4440844687764
tp476
a(g372
g356
F449.1503806427848
tp477
aF108.98296520873254
g469
S'2012-03-02 08:54:39'
p478
I9
F3239.2159103706613
F788.9605022247653
tp479
a((lp480
(g361
g356
F63.70629618663301
tp481
a(g356
g372
F385.4440844687764
tp482
a(g372
g374
F506.19706899607576
tp483
a(g374
g376
F105.62691770936412
tp484
aF54.564396035700824
g478
S'2012-03-02 08:55:49'
p485
I0
F1060.9743673608493
F1061.2951928042244
tp486
a((lp487
(S'1290'
p488
g376
F289.46731642454597
tp489
a(g376
S'1341'
p490
F778.4408342670922
tp491
a(g490
S'1239'
p492
F696.5996653122756
tp493
a(g492
g343
F42.72111589521414
tp494
aF42.24691009634325
g485
S'2012-03-02 08:58:23'
p495
I64
F1807.228931899128
F1200.2484103993597
tp496
a((lp497
(g348
g343
F731.5215046853688
tp498
a(g343
S'1239'
p499
F774.24262055248
tp500
a(g499
S'1343'
p501
F393.6433366208233
tp502
a(g501
S'1326'
p503
F94.63423795593198
tp504
aF115.78306644084796
g495
S'2012-03-02 08:59:25'
p505
I3
F1994.0416998146038
F342.4252930665706
tp506
a((lp507
(S'1343'
p508
g503
F430.4258161165305
tp509
a(g503
g339
F382.18798253855346
tp510
aF139.30522262658582
g505
S'2012-03-02 08:59:46'
p511
I37
F812.6137986550839
F55.22198705312098
tp512
a((lp513
(S'1326'
p514
g339
F46.396404368985735
tp515
a(g339
g341
F393.6433366208233
tp516
a(g341
g343
F163.34717490988712
tp517
aF19.394579439633088
g511
S'2012-03-02 09:01:38'
p518
I0
F603.3869158996961
F183.61385164314902
tp519
a((lp520
(g348
g343
F937.5897953254382
tp521
a(g343
g499
F774.24262055248
tp522
a(g499
g501
F393.6433366208233
tp523
a(g501
S'350'
p524
F1649.2722755654704
tp525
a(g524
S'172'
p526
F173.40050558792785
tp527
aF76.85508000623753
g518
S'2012-03-02 09:04:42'
p528
I38
F3928.14853365214
F1643.2942924305842
tp529
a((lp530
(S'350'
p531
g526
F1242.324775328781
tp532
a(g526
S'350'
p533
F1068.9242700134396
tp534
a(g533
S'340'
p535
F574.3329156126418
tp536
a(g535
S'235'
p537
F29.188463437312652
tp538
aF96.26764704414525
g528
S'2012-03-02 09:06:31'
p539
I66
F2914.7704243921753
F568.9540880413574
tp540
a((lp541
(S'340'
p542
g537
F1074.2368218306008
tp543
a(g537
S'406'
p544
F1280.716757645314
tp545
a(g544
S'37'
p546
F221.56149561897047
tp547
aF77.29545225284657
g539
S'2012-03-02 09:08:31'
p548
I18
F2576.5150750948856
F2132.196488029319
tp549
a((lp550
(S'406'
p551
g546
F931.4569298351096
tp552
a(g546
S'231'
p553
F1230.1532257749107
tp554
a(g553
S'101'
p555
F2128.2368240663845
tp556
a(g555
S'307'
p557
F516.3741780275716
tp558
a(g557
S'12'
p559
F336.87317808984017
tp560
a(g559
S'324'
p561
F348.33486400960794
tp562
a(g561
S'233'
p563
F522.2079091612247
tp564
a(g563
g129
F505.9919712639641
tp565
a(g129
g131
F343.4160234801613
tp566
a(g131
g133
F502.52151206068487
tp567
a(g133
g135
F899.3736486026992
tp568
a(g135
S'160'
p569
F1654.504702992569
tp570
a(g569
S'206'
p571
F2977.933896935319
tp572
a(g571
S'79'
p573
F340.8639244928786
tp574
a(g573
S'171'
p575
F90.76870553332961
tp576
aF266.58022988652505
g548
S'2012-03-02 09:11:31'
p577
I50
F13329.011494326254
F1208.4019329400637
tp578
a((lp579
(S'79'
p580
g575
F168.07433323645637
tp581
a(g575
S'79'
p582
F258.8430387665728
tp583
a(g582
S'206'
p584
F340.8639244928786
tp585
a(g584
S'160'
p586
F269.70553929490984
tp587
aF25.066796032529822
g577
S'2012-03-02 09:14:00'
p588
I1
F1037.4868357908176
F203.8109858630585
tp589
a((lp590
(S'206'
p591
g586
F2708.2283602585253
tp592
a(g586
g571
F2977.933896935319
tp593
a(g571
g573
F340.8639244928786
tp594
a(g573
S'356'
p595
F85.80540653073383
tp596
aF366.7698952930474
g588
S'2012-03-02 09:15:00'
p597
I0
F6112.831588217457
F175.60146970653702
tp598
a((lp599
(g580
g595
F1030.6880178666033
tp600
a(g595
S'91'
p601
F373.21024831220325
tp602
a(g601
S'34'
p603
F362.9857541263605
tp604
a(g603
S'171'
p605
F361.50220986718784
tp606
a(g605
S'311'
p607
F197.878605692179
tp608
a(g607
S'444'
p609
F119.87242291813655
tp610
a(g609
S'456'
p611
F0.772023213633086
tp612
aF18.390132390786416
g597
S'2012-03-02 09:22:59'
p613
I35
F2446.9092819963034
F862.9421529220278
tp614
a((lp615
(S'444'
p616
g611
F384.722033970449
tp617
a(g611
S'85'
p618
F200.88497800248174
tp619
a(g618
S'39'
p620
F322.25159749653415
tp621
aF44.16609451473073
g613
S'2012-03-02 09:24:13'
p622
I0
F907.8586094694649
F699.5369802505431
tp623
a((lp624
(S'85'
p625
g620
F88.42274140252181
tp626
a(g620
S'143'
p627
F296.1322850478427
tp628
a(g627
S'225'
p629
F405.88848790171784
tp630
a(g629
S'46'
p631
F204.10192602860755
tp632
a(g631
S'288'
p633
F212.0779523494768
tp634
aF10.342486223401428
g622
S'2012-03-02 09:31:13'
p635
I29
F1206.6233927301666
F523.8464331947289
tp636
a((lp637
(S'46'
p638
g638
F0.0
tp639
aF14.607216603582025
g635
S'2012-03-02 09:31:39'
p640
I25
F105.49656435920352
F104.82310701854144
tp641
a((lp642
(g638
g633
F170.95328361042343
tp643
a(g633
S'461'
p644
F213.86956785060167
tp645
a(g644
S'76'
p646
F209.84399480520491
tp647
a(g646
S'39'
p648
F384.48890299753157
tp649
a(g648
g627
F1.2364431406449385
tp650
aF48.34810811857347
g640
S'2012-03-02 09:32:52'
p651
I0
F980.3921924044065
F554.2139510840743
tp652
a((lp653
(S'39'
p654
g627
F297.3687281884246
tp655
a(g627
S'39'
p656
F296.1322850478427
tp657
a(g656
S'76'
p658
F384.48890299753157
tp659
a(g658
S'461'
p660
F209.84399480520491
tp661
a(g660
S'359'
p662
F575.8753506220564
tp663
a(g662
S'400'
p664
F368.9484986175782
tp665
a(g664
S'40'
p666
F175.03635260490466
tp667
a(g666
S'348'
p668
F401.59962843252373
tp669
a(g668
S'160'
p670
F749.9190888032648
tp671
a(g670
S'195'
p672
F1654.504702992569
tp673
a(g672
S'323'
p674
F899.3736486026992
tp675
a(g674
S'371'
p676
F502.52151206068487
tp677
a(g676
g206
F343.4160234801613
tp678
a(g206
g208
F505.9919712639641
tp679
a(g208
S'324'
p680
F522.2079091612247
tp681
a(g680
S'12'
p682
F348.33486400960794
tp683
a(g682
S'307'
p684
F336.87317808984017
tp685
a(g684
S'101'
p686
F516.3741780275716
tp687
a(g686
g282
F2128.2368240663845
tp688
a(g282
S'37'
p689
F1230.1532257749107
tp690
a(g689
S'406'
p691
F709.895434390015
tp692
a(g691
S'463'
p693
F171.08170663604764
tp694
aF177.70904011566688
g651
S'2012-03-02 09:37:22'
p695
I0
F13328.178008675015
F1710.0871193043768
tp696
a((lp697
(g551
g693
F694.222307310887
tp698
a(g693
S'25'
p699
F698.4005052534098
tp700
a(g699
g284
F1185.6258624438292
tp701
a(g284
S'231'
p702
F373.65454097386885
tp703
a(g702
g555
F2128.2368240663845
tp704
a(g555
g557
F516.3741780275716
tp705
a(g557
g559
F336.87317808984017
tp706
a(g559
g561
F348.33486400960794
tp707
a(g561
g563
F522.2079091612247
tp708
a(g563
g129
F505.9919712639641
tp709
a(g129
g131
F343.4160234801613
tp710
a(g131
g133
F502.52151206068487
tp711
a(g133
g135
F899.3736486026992
tp712
a(g135
g569
F1654.504702992569
tp713
a(g569
g571
F2977.933896935319
tp714
a(g571
g586
F302.9553448092993
tp715
aF2650.8556931648823
g695
S'2012-03-02 09:37:41'
p716
I16
F13990.627269481323
F30.890397446155113
tp717
a((lp718
(g591
g586
F3280.8892381814812
tp719
a(g586
g672
F1654.504702992569
tp720
a(g672
g674
F899.3736486026992
tp721
a(g674
g676
F502.52151206068487
tp722
a(g676
g206
F343.4160234801613
tp723
a(g206
g208
F505.9919712639641
tp724
a(g208
g680
F522.2079091612247
tp725
a(g680
g682
F348.33486400960794
tp726
a(g682
g684
F336.87317808984017
tp727
a(g684
g686
F516.3741780275716
tp728
a(g686
g282
F2128.2368240663845
tp729
a(g282
g689
F1230.1532257749107
tp730
a(g689
g691
F709.895434390015
tp731
a(g691
g693
F139.73880342207127
tp732
aF787.1106908113912
g716
S'2012-03-02 09:38:41'
p733
I0
F13118.511513523186
F1.1267114079702079
tp734
a((lp735
(g551
g693
F662.8794040975428
tp736
a(g693
S'406'
p737
F523.1406006777456
tp738
a(g737
g546
F12.17119103022913
tp739
aF81.38657179056347
g733
S'2012-03-02 09:39:34'
p740
I0
F1198.1911958055175
F91.00828429935204
tp741
a((lp742
(g551
g546
F722.0666254129627
tp743
a(g546
g691
F709.895434390015
tp744
a(g691
S'235'
p745
F1280.716757645314
tp746
a(g745
S'340'
p747
F177.2806377169387
tp748
aF69.35902692396553
g740
S'2012-03-02 09:42:04'
p749
I0
F2889.9594551652303
F1090.357702252029
tp750
a((lp751
(S'235'
p752
g747
F1280.7059226470708
tp753
a(g747
S'350'
p754
F574.3329156126418
tp755
a(g754
g535
F276.06545047494495
tp756
aF63.93312866203973
g749
S'2012-03-02 09:44:04'
p757
I66
F2131.1042887346575
F1256.9942672329053
tp758
a((lp759
(g531
g535
F298.2674724062128
tp760
a(g535
g537
F27.227718926768624
tp761
aF18.02742598151897
g757
S'2012-03-02 09:45:09'
p762
I14
F325.4951913329814
F253.6632414471774
tp763
a((lp764
(g542
g537
F1076.1975663384615
tp765
a(g537
g544
F85.94214647358287
tp766
aF69.72838276872265
g762
S'2012-03-02 09:46:09'
p767
I24
F1162.1397128120443
F990.184809752921
tp768
a((lp769
(g752
g544
F1366.6589039404103
tp770
a(g544
g693
F523.1406006777456
tp771
a(g693
S'1303'
p772
F916.7454369448138
tp773
a(g772
S'451'
p774
F558.7300773543896
tp775
a(g774
S'1303'
p776
F10.275591185465933
tp777
aF42.788669705528775
g767
S'2012-03-02 09:50:53'
p778
I20
F3375.5506101028254
F1483.9136555456191
tp779
a((lp780
(S'451'
p781
g776
F569.0056685359858
tp782
a(g776
g774
F558.7300773543896
tp783
a(g774
S'1402'
p784
F241.52033159888714
tp785
aF82.15536464935576
g778
S'2012-03-02 09:51:53'
p786
I0
F1369.2560774892625
F29.20428984867068
tp787
a((lp788
(g781
g784
F632.9948975110118
tp789
a(g784
S'451'
p790
F391.4745659135401
tp791
a(g790
S'268'
p792
F230.77345257950506
tp793
a(g792
S'451'
p794
F54.315769827824035
tp795
aF42.09295775888189
g786
S'2012-03-02 09:53:45'
p796
I0
F1309.558685831881
F65.04349352696907
tp797
a((lp798
(S'268'
p799
g794
F176.45768275171562
tp800
a(g794
g784
F391.4745659135401
tp801
a(g784
S'1264'
p802
F364.5317161125115
tp803
aF79.92548269523719
g796
S'2012-03-02 09:54:27'
p804
I38
F932.4639647777673
F203.38217467212402
tp805
a((lp806
(S'1402'
p807
g802
F592.7661971627604
tp808
a(g802
S'1382'
p809
F491.1492433133898
tp810
a(g809
S'871'
p811
F803.5379876651724
tp812
a(g811
S'1382'
p813
F103.07849199843326
tp814
aF22.323722468857074
g804
S'2012-03-02 09:59:48'
p815
I35
F1990.5319201397558
F1460.0842857978032
tp816
a((lp817
(g321
g813
F700.4594957353225
tp818
a(g813
S'1384'
p819
F446.6556103196644
tp820
a(g819
S'1336'
p821
F353.7908952300615
tp822
aF90.05436007710291
g815
S'2012-03-02 10:00:48'
p823
I42
F1500.9060012850484
F632.3220122821228
tp824
a((lp825
(S'1384'
p826
g821
F623.8255862379896
tp827
a(g821
S'1268'
p828
F155.42560320927745
tp829
a(g828
S'1344'
p830
F260.9910907964827
tp831
a(g830
S'1264'
p832
F366.84439675140015
tp833
aF42.2126003098545
g823
S'2012-03-02 10:02:48'
p834
I42
F1407.08667699515
F763.4295152206563
tp835
a((lp836
(S'1344'
p837
g832
F735.2770527504359
tp838
a(g832
S'1344'
p839
F368.4326560017038
tp840
a(g839
S'1240'
p841
F281.08875341763786
tp842
a(g841
S'1377'
p843
F450.20487229242497
tp844
a(g843
S'1395'
p845
F573.4757749753169
tp846
a(g845
S'1377'
p847
F51.698542879180586
tp848
aF136.25599305138647
g834
S'2012-03-02 10:03:53'
p849
I35
F2460.1776523167
F541.5954944919921
tp850
a((lp851
(S'1395'
p852
g847
F521.7772321138089
tp853
a(g847
g845
F573.4757749753169
tp854
a(g845
S'1282'
p855
F520.1417399140412
tp856
a(g855
S'1333'
p857
F681.6680384078383
tp858
a(g857
g431
F38.03304421334697
tp859
aF55.67115885197131
g849
S'2012-03-02 10:06:24'
p860
I0
F2335.095829624352
F738.8720054051956
tp861
a((lp862
(g436
g431
F206.2542688278675
tp863
a(g431
S'1326'
p864
F369.3131921454155
tp865
aF39.09514829252488
g860
S'2012-03-02 10:07:17'
p866
I40
F575.567460973283
F575.3495165784183
tp867
a((lp868
(S'1396'
p869
g864
F63.432611109456474
tp870
a(g864
S'1329'
p871
F62.01591025738918
tp872
aF41.05587972005858
g866
S'2012-03-02 10:07:28'
p873
I9
F125.44852136684565
F2.5851184255469564
tp874
a((lp875
(g514
g871
F290.335415236692
tp876
a(g871
g337
F228.31950497932885
tp877
a(g337
S'1330'
p878
F691.146827141222
tp879
a(g878
S'1389'
p880
F389.4707510404453
tp881
a(g880
S'1310'
p882
F307.30383704698806
tp883
aF95.32881677223381
g873
S'2012-03-02 10:08:40'
p884
I0
F1906.5763354446763
F414.73681206106545
tp885
a((lp886
(S'1389'
p887
g882
F626.3278745698611
tp888
a(g882
S'1389'
p889
F319.02403759519916
tp890
a(g889
S'1330'
p891
F389.4707510404453
tp892
a(g891
S'1345'
p893
F225.3777301642604
tp894
a(g893
S'99'
p895
F26.163958564783727
tp896
aF95.181861116073
g884
S'2012-03-02 10:09:40'
p897
I40
F1586.3643519345499
F364.0322447416748
tp898
a((lp899
(g335
g895
F358.6226407329132
tp900
a(g895
S'451'
p901
F299.8594608171112
tp902
aF19.591203021323043
g897
S'2012-03-02 10:11:41'
p903
I48
F658.4821015500245
F778.6746420621845
tp904
a((lp905
(S'99'
p906
g901
F334.78709369738584
tp907
a(g901
g792
F230.77345257950506
tp908
a(g792
S'128'
p909
F711.8157605305048
tp910
a(g909
S'463'
p911
F23.49246765985843
tp912
aF78.05212646803525
g903
S'2012-03-02 10:12:41'
p913
I51
F1300.868774467254
F306.9814110443322
tp914
a((lp915
(S'128'
p916
g911
F603.0331451510652
tp917
a(g911
g699
F698.4005052534098
tp918
a(g699
g284
F1185.6258624438292
tp919
a(g284
g702
F373.65454097386885
tp920
a(g702
g555
F151.32021697436534
tp921
aF36.02433014906159
g913
S'2012-03-02 10:17:42'
p922
I20
F3012.0342707965383
F2400.7105666931225
tp923
a((lp924
(S'231'
p925
g555
F2279.5570401772034
tp926
a(g555
S'923'
p927
F930.3605400765287
tp928
a(g927
S'1066'
p929
F407.53435205726896
tp930
a(g929
S'1213'
p931
F52.970435915672965
tp932
aF51.41447675336975
g922
S'2012-03-02 10:21:59'
p933
I46
F3670.422368226674
F2367.990552266345
tp934
a((lp935
(g278
g931
F178.9764768715417
tp936
a(g931
S'1066'
p937
F106.03757407958351
tp938
aF57.00281019022504
g933
S'2012-03-02 10:22:17'
p939
I42
F285.0140509511252
F72.47849005159944
tp940
a((lp941
(S'1213'
p942
g937
F19.968466877100166
tp943
a(g937
g273
F432.9808051792915
tp944
aF125.43210610792384
g939
S'2012-03-02 10:22:30'
p945
I0
F452.9492720563917
F52.40730613427749
tp946
a((lp947
(g278
g273
F25.446453128175218
tp948
a(g273
g929
F407.53435205726896
tp949
a(g929
S'1170'
p950
F134.29559832461862
tp951
a(g950
S'915'
p952
F418.6803844186766
tp953
a(g952
S'121'
p954
F317.2464914021481
tp955
a(g954
S'307'
p956
F83.370806028951
tp957
aF25.21043791563342
g945
S'2012-03-02 10:25:48'
p958
I38
F1386.5740853598381
F605.9204929752015
tp959
a((lp960
(S'121'
p961
g956
F438.65851904438057
tp962
a(g956
g686
F516.3741780275716
tp963
a(g686
g282
F4.946561596836736
tp964
aF314.17503010978544
g958
S'2012-03-02 10:25:59'
p965
I3
F959.9792586687889
F5.062648304697973
tp966
a((lp967
(S'101'
p968
g282
F2123.2902624959866
tp969
a(g282
g555
F2128.2368240663845
tp970
a(g555
g557
F516.3741780275716
tp971
a(g557
S'121'
p972
F355.28771301773605
tp973
a(g972
g956
F29.33823746293749
tp974
aF431.37437149428416
g965
S'2012-03-02 10:26:42'
p975
I0
F5152.527215070616
F55.34176620330555
tp976
a((lp977
(g961
g956
F384.62595048000196
tp978
a(g956
g559
F336.87317808984017
tp979
a(g559
g561
F348.33486400960794
tp980
a(g561
g563
F522.2079091612247
tp981
a(g563
g129
F505.9919712639641
tp982
a(g129
g131
F343.4160234801613
tp983
a(g131
g133
F502.52151206068487
tp984
a(g133
g135
F899.3736486026992
tp985
a(g135
g569
F1654.504702992569
tp986
a(g569
g571
F47.29911908562878
tp987
aF141.5782692568438
g975
S'2012-03-02 10:29:03'
p988
I25
F5545.148879226383
F1088.4264607378489
tp989
a((lp990
(S'160'
p991
g571
F3025.2330155079944
tp992
a(g571
g586
F433.23703088398975
tp993
aF71.55455268397209
g988
S'2012-03-02 10:31:57'
p994
I12
F3458.4700463919844
F2621.5645588973002
tp995
a((lp996
(g591
g586
F2544.6968700029756
tp997
a(g586
S'348'
p998
F749.9190888032648
tp999
a(g998
S'40'
p1000
F401.59962843252373
tp1001
a(g1000
S'189'
p1002
F470.6320208254988
tp1003
a(g1002
S'40'
p1004
F458.83945787081797
tp1005
aF41.32127403812976
g994
S'2012-03-02 10:38:40'
p1006
I0
F4625.687065935081
F1932.2844329199368
tp1007
a((lp1008
(S'189'
p1009
g1004
F11.792562954995018
tp1010
a(g1004
S'400'
p1011
F175.03635260490466
tp1012
a(g1011
S'359'
p1013
F368.9484986175782
tp1014
a(g1013
g664
F405.3782495725628
tp1015
aF203.5388464411851
g1006
S'2012-03-02 10:38:57'
p1016
I0
F961.1556637500406
F70.23125409032089
tp1017
a((lp1018
(S'359'
p1019
g664
F36.429750961808175
tp1020
a(g664
g666
F175.03635260490466
tp1021
a(g666
g668
F401.59962843252373
tp1022
a(g668
S'423'
p1023
F401.7062149289834
tp1024
a(g1023
S'87'
p1025
F0.3778723292989378
tp1026
aF37.67566339512441
g1016
S'2012-03-02 10:40:34'
p1027
I40
F1015.1498192575189
F572.27265373384
tp1028
a((lp1029
(S'423'
p1030
g1025
F723.1784843694229
tp1031
a(g1025
S'322'
p1032
F661.5915995108642
tp1033
a(g1032
S'114'
p1034
F293.16190634917444
tp1035
a(g1034
S'69'
p1036
F277.18170658049786
tp1037
a(g1036
S'209'
p1038
F560.4047888183237
tp1039
a(g1038
S'219'
p1040
F348.12509298251837
tp1041
a(g1040
S'190'
p1042
F816.17968688634
tp1043
a(g1042
g156
F133.23962227802784
tp1044
a(g156
g204
F725.2487623614271
tp1045
a(g204
g206
F343.4160234801613
tp1046
a(g206
g208
F505.9919712639641
tp1047
a(g208
g210
F314.42150737049457
tp1048
a(g210
S'1209'
p1049
F529.8005662370716
tp1050
a(g1049
S'1104'
p1051
F340.0113446486208
tp1052
a(g1051
S'1145'
p1053
F725.1024325879025
tp1054
a(g1053
S'1020'
p1055
F138.3852165812993
tp1056
a(g1055
S'1170'
p1057
F195.2678450736778
tp1058
aF139.44442033790477
g1027
S'2012-03-02 10:43:51'
p1059
I38
F7630.7085573797885
F2270.048369454129
tp1060
a((lp1061
(S'1020'
p1062
g1057
F6.472581020125418
tp1063
a(g1057
S'1020'
p1064
F201.74042609344684
tp1065
a(g1064
g119
F138.3852165812993
tp1066
a(g119
g121
F725.1024325879025
tp1067
a(g121
g1053
F384.8944162096295
tp1068
aF209.74969043890613
g1059
S'2012-03-02 10:44:16'
p1069
I0
F1456.5950724924037
F61.57640406378407
tp1070
a((lp1071
(S'1104'
p1072
g1053
F340.20801639183566
tp1073
a(g1053
g1055
F138.3852165812993
tp1074
a(g1055
S'806'
p1075
F137.50962711414766
tp1076
a(g1075
S'921'
p1077
F98.53233261225934
tp1078
aF29.57111142205001
g1069
S'2012-03-02 10:45:43'
p1079
I42
F714.6351926995419
F390.2447466334103
tp1080
a((lp1081
(S'806'
p1082
g1077
F206.01502168960985
tp1083
a(g1077
g60
F195.5482192140499
tp1084
a(g60
g71
F240.4485615059529
tp1085
a(g71
g73
F30.303164031475024
tp1086
aF52.615953895389474
g1079
S'2012-03-02 10:46:29'
p1087
I40
F672.3149664410877
F435.97952367877633
tp1088
a((lp1089
(g103
g73
F550.9615267369845
tp1090
a(g73
S'804'
p1091
F140.04113628613734
tp1092
a(g1091
S'888'
p1093
F436.4498289725836
tp1094
a(g1093
S'1213'
p1095
F398.42229143270566
tp1096
a(g1095
S'959'
p1097
F235.91485709498284
tp1098
aF218.70492089255924
g1087
S'2012-03-02 10:46:58'
p1099
I0
F1761.789640523394
F52.420187081828836
tp1100
a((lp1101
(g942
g1097
F76.6413158903754
tp1102
a(g1097
g269
F135.9977572931447
tp1103
a(g269
g271
F134.29559832461862
tp1104
a(g271
g273
F339.76871845692796
tp1105
aF39.873100062487744
g1099
S'2012-03-02 10:48:00'
p1106
I31
F686.7033899650667
F408.61559921424976
tp1107
a((lp1108
(g278
g273
F747.3030703748819
tp1109
a(g273
g280
F930.3605400765287
tp1110
a(g280
g557
F516.3741780275716
tp1111
a(g557
g559
F336.87317808984017
tp1112
a(g559
g561
F348.33486400960794
tp1113
a(g561
g563
F522.2079091612247
tp1114
a(g563
g129
F505.9919712639641
tp1115
a(g129
g131
F343.4160234801613
tp1116
a(g131
S'414'
p1117
F739.6760747221767
tp1118
a(g1117
S'203'
p1119
F110.55925503297553
tp1120
a(g1119
S'431'
p1121
F281.0886614675815
tp1122
aF50.589735280792304
g1106
S'2012-03-02 10:54:23'
p1123
I14
F5382.185725706515
F2942.3005873232432
tp1124
a((lp1125
(S'203'
p1126
g1121
F88.89747461085268
tp1127
a(g1121
S'203'
p1128
F369.98613606887915
tp1129
a(g1128
S'414'
p1130
F110.55925503297553
tp1131
a(g1130
S'929'
p1132
F303.12038890948725
tp1133
a(g1132
S'842'
p1134
F138.91582185729666
tp1135
a(g1134
S'1027'
p1136
F108.42347341772006
tp1137
a(g1136
S'887'
p1138
F974.3320508593303
tp1139
a(g1138
S'1189'
p1140
F211.8840444636607
tp1141
a(g1140
S'987'
p1142
F541.0596802687863
tp1143
a(g1142
S'1073'
p1144
F74.1466114739239
tp1145
aF4.14209128517782
g1123
S'2012-03-02 11:36:42'
p1146
I24
F2921.3249369629125
F2582.8380665110826
tp1147
a((lp1148
(S'987'
p1149
g1144
F659.4631091569289
tp1150
a(g1144
S'987'
p1151
F585.3164976896943
tp1152
a(g1151
S'1229'
p1153
F23.222200091610947
tp1154
aF74.83289352422366
g1146
S'2012-03-02 11:37:43'
p1155
I0
F1268.0018069382343
F25.524144219861014
tp1156
a((lp1157
(g1149
g1153
F805.383540326469
tp1158
a(g1153
S'987'
p1159
F828.6057404004235
tp1160
a(g1159
g1144
F585.3164976896943
tp1161
a(g1144
S'1151'
p1162
F490.09073312977023
tp1163
aF81.96493648375534
g1155
S'2012-03-02 11:39:42'
p1164
I1
F2709.396511546357
F767.7077272994284
tp1165
a((lp1166
(S'1073'
p1167
g1162
F263.80786555424635
tp1168
a(g1162
S'1232'
p1169
F572.8013873462398
tp1170
a(g1169
S'1031'
p1171
F536.64824962327
tp1172
a(g1171
S'824'
p1173
F464.2330654185904
tp1174
a(g1173
S'1174'
p1175
F469.11600708650093
tp1176
aF45.87725784587762
g1164
S'2012-03-02 11:42:43'
p1177
I16
F2306.606575028847
F974.639891718558
tp1178
a((lp1179
(S'824'
p1180
g1175
F576.0364474462572
tp1181
a(g1175
S'824'
p1182
F106.9204403928481
tp1183
a(g1182
S'1031'
p1184
F464.2330654185904
tp1185
a(g1184
S'1232'
p1186
F536.64824962327
tp1187
a(g1186
S'901'
p1188
F500.4166198457959
tp1189
a(g1188
S'937'
p1190
F654.3387647481585
tp1191
a(g1190
S'988'
p1192
F84.85729485795852
tp1193
a(g1192
S'777'
p1194
F428.69502991180303
tp1195
a(g1194
S'903'
p1196
F350.9006773558848
tp1197
a(g1196
S'1128'
p1198
F276.93091669774793
tp1199
a(g1198
S'833'
p1200
F304.26348633257396
tp1201
a(g1200
S'778'
p1202
F579.573448966089
tp1203
a(g1202
S'963'
p1204
F513.8652496215955
tp1205
a(g1204
S'994'
p1206
F52.15187790675971
tp1207
aF12.817963048427016
g1177
S'2012-03-02 12:08:08'
p1208
I27
F5429.831569125333
F3349.1800255696917
tp1209
a((lp1210
(S'963'
p1211
g1206
F469.5812671728996
tp1212
a(g1206
S'814'
p1213
F375.362399322151
tp1214
a(g1213
S'792'
p1215
F350.26427291339104
tp1216
a(g1215
S'1013'
p1217
F10.043123884914204
tp1218
aF36.15753189880068
g1208
S'2012-03-02 12:10:08'
p1219
I44
F1205.2510632933559
F955.600254167815
tp1220
a((lp1221
(S'792'
p1222
g1217
F430.99341681704396
tp1223
a(g1217
S'792'
p1224
F441.0365406997711
tp1225
a(g1224
S'1186'
p1226
F433.61217033519375
tp1227
a(g1226
S'1122'
p1228
F490.0773131291618
tp1229
aF13.220020424401255
g1219
S'2012-03-02 12:18:17'
p1230
I0
F1795.7194409811705
F951.0196196110425
tp1231
a((lp1232
(S'1186'
p1233
g1228
F191.98699772318466
tp1234
a(g1228
S'804'
p1235
F936.7254302074238
tp1236
a(g1235
g1093
F436.4498289725836
tp1237
a(g1093
g1095
F398.42229143270566
tp1238
a(g1095
S'1059'
p1239
F24.347670935949793
tp1240
a(g1239
S'1125'
p1241
F129.58993882892796
tp1242
aF42.35044316201551
g1230
S'2012-03-02 12:21:17'
p1243
I35
F2117.5221581007754
F1670.6598261560973
tp1244
a((lp1245
(S'1059'
p1246
g1241
F246.7429648108935
tp1247
a(g1241
S'1059'
p1248
F117.15302598243926
tp1249
a(g1248
S'1213'
p1250
F24.347670935949793
tp1251
a(g1250
g937
F126.00604095646439
tp1252
a(g937
g273
F407.53435205726896
tp1253
a(g273
g280
F930.3605400765287
tp1254
a(g280
g282
F2128.2368240663845
tp1255
a(g282
g284
F373.65454097386885
tp1256
a(g284
S'336'
p1257
F276.60213113766173
tp1258
a(g1257
g295
F145.7434125243181
tp1259
a(g295
g297
F455.13887535379115
tp1260
a(g297
g299
F827.5221670782628
tp1261
a(g299
g310
F362.6260768821067
tp1262
aF80.83219245527755
g1243
S'2012-03-02 12:26:03'
p1263
I0
F6421.668622835939
F3014.0905432302216
tp1264
a((lp1265
(g306
g310
F42.25553522306464
tp1266
a(g310
S'1284'
p1267
F156.54335750418218
tp1268
aF11.92793356363481
g1263
S'2012-03-02 12:27:03'
p1269
I27
F198.79889272724682
F72.27066910871875
tp1270
a((lp1271
(g321
g1267
F887.6536489627609
tp1272
a(g1267
S'1382'
p1273
F1.5246623510666524
tp1274
aF17.78356622627655
g1269
S'2012-03-02 12:30:03'
p1275
I33
F889.1783113138276
F781.7454965515188
tp1276
a((lp1277
(S'1284'
p1278
g1273
F271.052475889287
tp1279
a(g1273
S'1264'
p1280
F84.64034535390788
tp1281
aF12.195182442623825
g1275
S'2012-03-02 12:31:48'
p1282
I1
F355.6928212431949
F337.2642604057524
tp1283
a((lp1284
(S'1382'
p1285
g1285
F0.0
tp1286
aF0.0
g1282
S'2012-03-02 12:31:48'
p1287
I42
F0.0
F0.0
tp1288
a((lp1289
(g1285
g1280
F406.5088979796654
tp1290
a(g1280
g839
F368.4326560017038
tp1291
a(g839
g841
F281.08875341763786
tp1292
a(g841
S'1310'
p1293
F388.8414992769568
tp1294
a(g1293
g889
F231.0939731681096
tp1295
aF88.72760010939211
g1287
S'2012-03-02 12:32:56'
p1296
I42
F1675.9657798440733
F444.100837104473
tp1297
a((lp1298
(S'1310'
p1299
g889
F550.118010715501
tp1300
a(g889
g891
F389.4707510404453
tp1301
a(g891
S'1326'
p1302
F691.146827141222
tp1303
a(g1302
g339
F335.7915781764397
tp1304
a(g339
g341
F393.6433366208233
tp1305
a(g341
g343
F188.28707105947274
tp1306
aF50.96915149507808
g1296
S'2012-03-02 12:35:56'
p1307
I44
F2548.457574753904
F1805.5262795582132
tp1308
a((lp1309
(g348
g343
F962.5296914498939
tp1310
a(g343
S'1338'
p1311
F425.6274691603282
tp1312
aF37.57417878343458
g1307
S'2012-03-02 12:38:09'
p1313
I50
F1388.157160610222
F1388.0394650198114
tp1314
a((lp1315
(S'1385'
p1316
g1311
F34.70349685102297
tp1317
a(g1311
S'1290'
p1318
F727.9776679126747
tp1319
a(g1318
S'1372'
p1320
F668.0650273950372
tp1321
a(g1320
S'1390'
p1322
F479.57255220893796
tp1323
a(g1322
S'1321'
p1324
F411.7583519723548
tp1325
a(g1324
S'1275'
p1326
F887.5300557829405
tp1327
a(g1326
S'1274'
p1328
F6.318352113067289
tp1329
aF37.9584649680319
g1313
S'2012-03-02 12:43:14'
p1330
I42
F3215.9255042360355
F2186.81597744546
tp1331
a((lp1332
(S'1275'
p1333
g1328
F1017.1995869522947
tp1334
a(g1328
S'1275'
p1335
F1023.5179390578322
tp1336
a(g1335
S'1260'
p1337
F59.94379214707808
tp1338
aF236.3243982926856
g1330
S'2012-03-02 12:43:46'
p1339
I0
F2100.661318157205
F18.371984920948943
tp1340
a((lp1341
(g1333
g1337
F674.4489412644298
tp1342
a(g1337
S'1275'
p1343
F439.1316717864545
tp1344
aF33.40741839152653
g1339
S'2012-03-02 12:45:46'
p1345
I31
F1113.5806130508843
F235.36620899899313
tp1346
a((lp1347
(g370
g1343
F295.2610616260311
tp1348
a(g1343
S'1321'
p1349
F887.5300557829405
tp1350
a(g1349
S'1390'
p1351
F411.7583519723548
tp1352
a(g1351
S'1372'
p1353
F479.57255220893796
tp1354
a(g1353
S'1246'
p1355
F401.2293386563323
tp1356
a(g1355
g398
F795.83759413191
tp1357
a(g398
g400
F400.05667678215144
tp1358
a(g400
g402
F1043.0772787454132
tp1359
a(g402
g404
F342.7199784240905
tp1360
a(g404
S'1251'
p1361
F267.5354876044723
tp1362
a(g1361
S'1269'
p1363
F261.42208719864396
tp1364
aF77.34462179722999
g1345
S'2012-03-02 12:50:06'
p1365
I70
F5586.000463133277
F3481.3860860998107
tp1366
a((lp1367
(S'1251'
p1368
g1363
F51.747675455112905
tp1369
a(g1363
S'1335'
p1370
F752.828030332418
tp1371
a(g1370
S'1334'
p1372
F156.92128080893295
tp1373
aF34.96352678532596
g1365
S'2012-03-02 12:51:45'
p1374
I0
F961.4969865964639
F756.4209471196783
tp1375
a((lp1376
(S'1335'
p1377
g1372
F508.62508318040335
tp1378
a(g1372
S'1257'
p1379
F385.80769194553045
tp1380
a(g1379
S'1314'
p1381
F331.9978721556281
tp1382
a(g1381
S'1273'
p1383
F379.20758437543026
tp1384
aF39.59107968469296
g1374
S'2012-03-02 12:54:11'
p1385
I64
F1605.6382316569923
F461.163394952185
tp1386
a((lp1387
(S'1314'
p1388
g1383
F622.7920964146671
tp1389
a(g1383
S'1314'
p1390
F243.58451204032838
tp1391
a(g1390
S'1257'
p1392
F331.9978721556281
tp1393
a(g1392
S'1300'
p1394
F0.33767678734281437
tp1395
aF239.74243147959328
g1385
S'2012-03-02 12:54:29'
p1396
I0
F1198.7121573979664
F47.546522883551546
tp1397
a((lp1398
(S'1257'
p1399
g1394
F909.4695507577073
tp1400
a(g1394
S'1257'
p1401
F909.1318739707772
tp1402
a(g1401
S'1355'
p1403
F6.067596441960463
tp1404
aF109.4801412702267
g1396
S'2012-03-02 12:55:29'
p1405
I5
F1824.669021170445
F412.16708263784204
tp1406
a((lp1407
(g1399
g1403
F266.6793288485748
tp1408
a(g1403
S'1273'
p1409
F54.48998937691309
tp1410
aF19.934647338133733
g1405
S'2012-03-02 12:56:27'
p1411
I37
F321.1693182254879
F746.8253709175056
tp1412
a((lp1413
(S'1355'
p1414
g1409
F369.39097526546584
tp1415
a(g1409
g1390
F243.58451204032838
tp1416
a(g1390
S'1249'
p1417
F768.6096484409971
tp1418
a(g1417
g417
F1043.0772787454132
tp1419
a(g417
g427
F329.92055347398576
tp1420
a(g427
S'1395'
p1421
F660.5954005099251
tp1422
a(g1421
g855
F224.63644919346885
tp1423
aF595.6060610732048
g1411
S'2012-03-02 12:56:49'
p1424
I0
F3639.8148176695845
F52.4929973409608
tp1425
a((lp1426
(g852
g855
F744.7781891070367
tp1427
a(g855
S'1395'
p1428
F520.1417399140412
tp1429
a(g1428
S'1295'
p1430
F13.63794537282175
tp1431
aF88.51554515034691
g1424
S'2012-03-02 12:57:41'
p1432
I29
F1278.5578743938997
F188.3449409103307
tp1433
a((lp1434
(g852
g1430
F646.9574551436413
tp1435
a(g1430
g429
F565.6374723484656
tp1436
a(g429
g431
F244.28731304118864
tp1437
a(g431
g864
F432.74580325485505
tp1438
a(g864
g339
F335.7915781764397
tp1439
a(g339
g524
F1649.2722755654704
tp1440
a(g524
g535
F574.3329156126418
tp1441
a(g535
S'398'
p1442
F1116.2253471445076
tp1443
a(g1442
S'158'
p1444
F9.876110094502197
tp1445
aF36.49173558795303
g1432
S'2012-03-02 13:06:51'
p1446
I0
F5575.126270381713
F4285.972312570351
tp1447
a((lp1448
(S'398'
p1449
g1444
F970.6730955540581
tp1450
a(g1444
S'398'
p1451
F980.5492056374832
tp1452
a(g1451
S'340'
p1453
F46.20689194299944
tp1454
aF599.2287579403622
g1446
S'2012-03-02 13:07:03'
p1455
I0
F1997.4291931345406
F59.392469981183226
tp1456
a((lp1457
(g1449
g1453
F1070.0184552661794
tp1458
a(g1453
g537
F1103.42528522692
tp1459
a(g537
g544
F1280.716757645314
tp1460
a(g544
g546
F709.895434390015
tp1461
a(g546
g553
F1230.1532257749107
tp1462
a(g553
g555
F2128.2368240663845
tp1463
a(g555
g557
F516.3741780275716
tp1464
a(g557
g559
F336.87317808984017
tp1465
a(g559
g561
F348.33486400960794
tp1466
a(g561
g563
F522.2079091612247
tp1467
a(g563
g129
F505.9919712639641
tp1468
a(g129
g131
F343.4160234801613
tp1469
a(g131
g133
F502.52151206068487
tp1470
a(g133
g135
F899.3736486026992
tp1471
a(g135
g569
F1654.504702992569
tp1472
a(g569
g571
F2977.933896935319
tp1473
a(g571
g573
F340.8639244928786
tp1474
a(g573
g575
F258.8430387665728
tp1475
a(g575
S'34'
p1476
F361.50220986718784
tp1477
a(g1476
S'91'
p1478
F197.49865619009176
tp1479
aF206.7749784276291
g1455
S'2012-03-02 13:12:04'
p1480
I42
F17288.685696310098
F3604.8714123813606
tp1481
a((lp1482
(S'34'
p1483
g1478
F165.48709795009682
tp1484
a(g1478
g603
F362.9857541263605
tp1485
a(g603
g605
F361.50220986718784
tp1486
a(g605
g607
F197.878605692179
tp1487
a(g607
g609
F119.87242291813655
tp1488
a(g609
S'249'
p1489
F192.01126587807087
tp1490
a(g1489
S'223'
p1491
F158.54371200493
tp1492
a(g1491
S'85'
p1493
F186.91338092701662
tp1494
a(g1493
S'291'
p1495
F239.2848293153371
tp1496
a(g1495
S'143'
p1497
F232.92968406904774
tp1498
a(g1497
g629
F405.88848790171784
tp1499
a(g629
g631
F204.10192602860755
tp1500
a(g631
S'107'
p1501
F327.4845229639087
tp1502
a(g1501
S'131'
p1503
F269.0371341692761
tp1504
a(g1503
S'465'
p1505
F402.3899692797519
tp1506
aF43.59088484534763
g1480
S'2012-03-02 13:17:20'
p1507
I0
F3826.311003091625
F1904.9978205843179
tp1508
a((lp1509
(S'131'
p1510
g1510
F0.0
tp1511
aF25.721942544148874
g1507
S'2012-03-02 13:18:20'
p1512
I40
F428.6990424024812
F432.1639950417139
tp1513
a((lp1514
(g1510
g1505
F811.4156953678875
tp1515
a(g1505
S'131'
p1516
F52.06085687856122
tp1517
aF40.90152089588441
g1512
S'2012-03-02 13:19:36'
p1518
I33
F863.4765522464487
F882.9487381329882
tp1519
a((lp1520
(S'465'
p1521
g1516
F889.7856253077817
tp1522
a(g1516
S'107'
p1523
F269.0371341692761
tp1524
a(g1523
S'27'
p1525
F1377.9414749341843
tp1526
a(g1525
S'423'
p1527
F360.14779166603097
tp1528
a(g1527
S'348'
p1529
F401.7062149289834
tp1530
a(g1529
g670
F439.0778271754085
tp1531
aF92.16236880447941
g1518
S'2012-03-02 13:22:02'
p1532
I0
F3737.696068181665
F1171.3689288748367
tp1533
a((lp1534
(S'348'
p1535
g670
F1188.9969159451637
tp1536
a(g670
g998
F749.9190888032648
tp1537
a(g998
g1023
F401.7062149289834
tp1538
a(g1023
g1025
F723.5563566983903
tp1539
a(g1025
g1032
F13.222837379900604
tp1540
aF184.64408482534216
g1532
S'2012-03-02 13:23:02'
p1541
I27
F3077.401413755703
F707.463811655759
tp1542
a((lp1543
(S'87'
p1544
g1032
F674.8144368837458
tp1545
a(g1032
g1034
F293.16190634917444
tp1546
a(g1034
g1036
F277.18170658049786
tp1547
a(g1036
g1038
F560.4047888183237
tp1548
a(g1038
g1040
F348.12509298251837
tp1549
a(g1040
g1042
F816.17968688634
tp1550
a(g1042
g156
F133.23962227802784
tp1551
a(g156
g204
F95.28812507267459
tp1552
aF63.26496328057521
g1541
S'2012-03-02 13:26:04'
p1553
I72
F3198.3953658513024
F2245.5781628050963
tp1554
a((lp1555
(g156
g204
F820.5368874229887
tp1556
a(g204
g1117
F739.6760747221767
tp1557
a(g1117
g1119
F110.55925503297553
tp1558
a(g1119
g1121
F369.98613606887915
tp1559
a(g1121
S'392'
p1560
F457.83618440901
tp1561
a(g1560
g156
F41.8852975478395
tp1562
aF85.47408791340122
g1553
S'2012-03-02 13:27:51'
p1563
I68
F2540.4798352038697
F1185.1264739761946
tp1564
a((lp1565
(S'392'
p1566
g156
F1033.129566490231
tp1567
a(g156
g158
F1075.0148639845097
tp1568
a(g158
g160
F95.85961614434376
tp1569
a(g160
S'365'
p1570
F26.133772846113285
tp1571
aF236.13223970807977
g1563
S'2012-03-02 13:28:25'
p1572
I0
F2230.1378194651975
F50.08355560853071
tp1573
a((lp1574
(S'270'
p1575
g1570
F1392.3923385155394
tp1576
a(g1570
S'270'
p1577
F1366.258565726773
tp1578
a(g1577
g162
F330.3168336032497
tp1579
a(g162
S'372'
p1580
F585.0976094380715
tp1581
a(g1580
S'97'
p1582
F63.758701035611004
tp1583
a(g1582
g173
F1079.6824743926077
tp1584
a(g173
g175
F501.6805211022033
tp1585
a(g175
g182
F1050.0893319780932
tp1586
a(g182
g184
F425.7072799852992
tp1587
a(g184
S'287'
p1588
F383.1479901227708
tp1589
a(g1588
S'418'
p1590
F243.4398090468085
tp1591
a(g1590
S'70'
p1592
F403.6347291580591
tp1593
aF2.606712525472223
g1572
S'2012-03-02 16:28:32'
p1594
I18
F7825.206184105086
F4398.41487552777
tp1595
a((lp1596
(S'418'
p1597
g1592
F470.77871492199716
tp1598
a(g1592
S'331'
p1599
F250.6396728341363
tp1600
a(g1599
S'86'
p1601
F697.8413564130648
tp1602
a(g1601
S'58'
p1603
F240.70119432167317
tp1604
aF9.732669997666349
g1594
S'2012-03-02 16:38:46'
p1605
I55
F1659.9609384908715
F1027.6053871768706
tp1606
a.