(lp0
((lp1
(S'969'
p2
g2
F0.0
tp3
aF4.161344572938041
S'2012-03-02 09:12:13'
p4
S'2012-03-02 09:12:30'
p5
I12
F19.65079381665186
F21.19296705803257
tp6
a((lp7
(g2
S'1205'
p8
F960.4248243249881
tp9
a(g8
S'969'
p10
F750.5078616257923
tp11
a(g10
S'884'
p12
F88.89132132734088
tp13
aF215.97888087337455
g5
S'2012-03-02 09:13:00'
p14
I0
F1799.8240072781214
F27.672856176443386
tp15
a((lp16
(g2
g12
F660.6172809589059
tp17
a(g12
S'969'
p18
F571.7259596354602
tp19
a(g18
S'1177'
p20
F848.8710851126325
tp21
a(g20
S'1133'
p22
F544.2648983785294
tp23
a(g22
S'960'
p24
F313.9016806177561
tp25
a(g24
S'932'
p26
F325.1238765614434
tp27
a(g26
S'843'
p28
F496.3588671175418
tp29
a(g28
S'993'
p30
F298.54352314033923
tp31
a(g30
S'1114'
p32
F865.1525280555261
tp33
a(g32
S'809'
p34
F639.1126192225747
tp35
a(g34
S'900'
p36
F674.794246559625
tp37
a(g36
S'967'
p38
F217.51739317672622
tp39
a(g38
S'1127'
p40
F190.65766483400054
tp41
a(g40
S'988'
p42
F152.49726409143645
tp43
a(g42
S'777'
p44
F428.69502991180303
tp45
a(g44
S'1185'
p46
F465.5645320107461
tp47
a(g46
S'1073'
p48
F401.933419412357
tp49
a(g48
S'987'
p50
F585.3164976896943
tp51
a(g50
S'1189'
p52
F541.0596802687863
tp53
a(g52
S'887'
p54
F211.8840444636607
tp55
a(g54
S'820'
p56
F109.50752270395111
tp57
aF6.998402650259643
g14
S'2012-03-02 10:34:49'
p58
I16
F9543.099613923496
F6294.4571724390835
tp59
a((lp60
(S'887'
p61
g56
F933.272192173279
tp62
a(g56
S'887'
p63
F1042.7797147525323
tp64
a(g63
S'989'
p65
F50.241318177734556
tp66
aF66.31505100338877
g58
S'2012-03-02 10:36:39'
p67
I0
F2026.2932251035456
F415.5013961128055
tp68
a((lp69
(g61
g61
F0.0
tp70
aF4.374460146934726
g67
S'2012-03-02 10:37:06'
p71
I0
F32.80845110201044
F60.7443633805852
tp72
a((lp73
(g61
g65
F708.3492054195899
tp74
a(g65
S'1230'
p75
F396.62742466432553
tp76
a(g75
S'812'
p77
F300.30616672524604
tp78
aF84.31696780854969
g71
S'2012-03-02 10:38:06'
p79
I22
F1405.2827968091615
F804.649069045973
tp80
a.