(lp0
((lp1
(S'1027'
p2
S'887'
p3
F1348.883869618367
tp4
a(g3
S'1189'
p5
F211.8840444636607
tp6
a(g5
S'987'
p7
F541.0596802687863
tp8
a(g7
S'1073'
p9
F585.3164976896943
tp10
a(g9
S'1185'
p11
F401.933419412357
tp12
a(g11
S'1061'
p13
F373.27393365369306
tp14
a(g13
S'1062'
p15
F442.8992981334369
tp16
a(g15
S'1061'
p17
F148.59827463335438
tp18
aF36.034213492207556
S'2012-03-02 08:20:01'
p19
S'2012-03-02 08:26:46'
p20
I53
F4053.8490178733496
F3361.1102826887654
tp21
a((lp22
(S'1062'
p23
g17
F294.3010235221919
tp24
a(g17
g15
F442.8992981334369
tp25
a(g15
S'974'
p26
F163.51711989318548
tp27
aF20.266142434848323
g20
S'2012-03-02 08:29:26'
p28
I0
F900.7174415488143
F311.646542870121
tp29
a((lp30
(g23
g26
F19.90155371499915
tp31
a(g26
S'991'
p32
F256.5365982809383
tp33
aF13.094438778754931
g28
S'2012-03-02 08:30:42'
p34
I25
F276.4381519959374
F275.66315053539597
tp35
a((lp36
(S'974'
p37
g32
F399.62727786994833
tp38
a(g32
S'814'
p39
F4.261965903122824
tp40
aF18.64104202029559
g34
S'2012-03-02 08:32:00'
p41
I31
F403.88924377307114
F395.1207822108194
tp42
a((lp43
(S'991'
p44
g39
F598.8136772296933
tp45
a(g39
S'991'
p46
F594.5517113284113
tp47
a(g46
S'874'
p48
F237.07629077782101
tp49
a(g48
S'867'
p50
F492.04911934836207
tp51
a(g50
S'1191'
p52
F303.55637546347106
tp53
aF133.56283044886553
g41
S'2012-03-02 08:33:00'
p54
I24
F2226.0471741477586
F423.63314085713733
tp55
a((lp56
(S'867'
p57
g52
F664.1637985757671
tp58
a(g52
S'867'
p59
F360.6074231124015
tp60
a(g59
S'920'
p61
F408.84211159134935
tp62
a(g61
S'973'
p63
F43.33169076680725
tp64
aF98.46300160308836
g54
S'2012-03-02 08:33:54'
p65
I46
F1476.9450240463252
F337.81478531023555
tp66
a((lp67
(S'920'
p68
g63
F322.5329586008167
tp69
a(g63
S'895'
p70
F444.35669521011835
tp71
a(g70
S'774'
p72
F268.4210662990969
tp73
a(g72
S'970'
p74
F377.3364418971982
tp75
a(g74
S'820'
p76
F247.7378419176489
tp77
a(g76
S'1233'
p78
F255.3750506846333
tp79
a(g78
S'886'
p80
F203.95830291726205
tp81
a(g80
S'1222'
p82
F498.13109666342655
tp83
a(g82
S'233'
p84
F152.87097584143444
tp85
aF25.510469432516334
g65
S'2012-03-02 08:40:25'
p86
I42
F2770.7204300316353
F2269.318153080689
tp87
a((lp88
(S'1222'
p89
g84
F467.2924832092132
tp90
a(g84
S'324'
p91
F189.73249809194866
tp92
aF37.54428464578067
g86
S'2012-03-02 08:41:28'
p93
I20
F657.0249813011618
F487.81416295860436
tp94
a((lp95
(S'233'
p96
g91
F332.4754111087399
tp97
a(g91
S'233'
p98
F522.2079091612247
tp99
a(g98
S'1158'
p100
F505.9919712639641
tp101
a(g100
S'371'
p102
F343.4160234801613
tp103
a(g102
S'323'
p104
F502.52151206068487
tp105
a(g104
S'195'
p106
F899.3736486026992
tp107
a(g106
S'160'
p108
F1654.504702992569
tp109
a(g108
S'195'
p110
F120.65827140049194
tp111
aF74.4582119502285
g93
S'2012-03-02 08:45:24'
p112
I61
F4881.149450070535
F2290.517140423159
tp113
a((lp114
(S'160'
p115
g110
F1533.84643196013
tp116
a(g110
S'323'
p117
F899.3736486026992
tp118
a(g117
S'371'
p119
F502.52151206068487
tp120
a(g119
S'414'
p121
F379.05462434126684
tp122
aF40.04451805729266
g112
S'2012-03-02 08:50:22'
p123
I0
F3314.7962169647813
F3309.3041380346917
tp124
a((lp125
(S'371'
p126
g121
F360.62145050245203
tp127
a(g121
S'929'
p128
F303.12038890948725
tp129
a(g128
S'842'
p130
F138.91582185729666
tp131
a(g130
S'1027'
p132
F108.42347341772006
tp133
a(g132
g3
F155.11758429966574
tp134
aF31.985961569598654
g123
S'2012-03-02 08:52:22'
p135
I37
F1066.1987189866218
F536.3584585089053
tp136
a((lp137
(g2
g3
F1129.4496351284613
tp138
a(g3
S'820'
p139
F1042.7797147525323
tp140
a(g139
g78
F255.3750506846333
tp141
a(g78
g80
F203.95830291726205
tp142
a(g80
g82
F498.13109666342655
tp143
a(g82
g84
F314.42150737049457
tp144
a(g84
g91
F522.2079091612247
tp145
a(g91
S'12'
p146
F348.33486400960794
tp147
a(g146
S'307'
p148
F336.87317808984017
tp149
a(g148
S'101'
p150
F516.3741780275716
tp151
a(g150
S'231'
p152
F2128.2368240663845
tp153
a(g152
S'37'
p154
F1230.1532257749107
tp155
a(g154
S'406'
p156
F709.895434390015
tp157
a(g156
S'463'
p158
F268.4237715541917
tp159
aF18.967080317808204
g135
S'2012-03-02 09:22:26'
p160
I42
F9504.614692590556
F7075.39791648096
tp161
a((lp162
(S'406'
p163
g163
F0.0
tp164
aF6.25107125777941
g160
S'2012-03-02 09:23:19'
p165
I25
F92.02966018397464
F92.16142629611085
tp166
a((lp167
(g163
g158
F699.5347120451402
tp168
a(g158
S'406'
p169
F523.1406006777456
tp170
a(g169
S'37'
p171
F0.9127470714045718
tp172
aF51.21996529371447
g165
S'2012-03-02 09:24:45'
p173
I20
F1223.5880597942903
F151.19813915303843
tp174
a((lp175
(g163
g171
F710.808181460994
tp176
a(g171
g156
F709.895434390015
tp177
a(g156
g158
F21.262297516008854
tp178
aF346.0718192080843
g173
S'2012-03-02 09:25:00'
p179
I0
F1441.965913367018
F46.64908114687419
tp180
a((lp181
(g163
g158
F501.8783031619619
tp182
a(g158
S'25'
p183
F19.313745418087915
tp184
aF31.27152291480299
g179
S'2012-03-02 09:26:00'
p185
I29
F521.1920485800498
F878.1628800387971
tp186
a((lp187
(S'463'
p188
g188
F0.0
tp189
aF2.5641526542917243
g185
S'2012-03-02 09:26:07'
p190
I0
F4.985852383345019
F5.08716279385401
tp191
a((lp192
(g188
g183
F674.1009074652874
tp193
a(g183
S'463'
p194
F698.4005052534098
tp195
a(g194
S'1303'
p196
F916.7454369448138
tp197
a(g196
S'1137'
p198
F8.13730341849244
tp199
aF137.8430491849202
g190
S'2012-03-02 09:27:07'
p200
I0
F2297.3841530820036
F218.73412802473666
tp201
a((lp202
(S'1303'
p203
g203
F0.0
tp204
aF0.1731375623454214
g200
S'2012-03-02 09:28:14'
p205
I0
F3.222282410317565
F267.4231587852044
tp206
a((lp207
(g203
g198
F720.2059932754652
tp208
a(g198
S'1303'
p209
F725.1210142806609
tp210
a(g209
S'1284'
p211
F393.0490934460226
tp212
a(g211
S'1382'
p213
F110.81060942316299
tp214
aF42.787025350799524
g205
S'2012-03-02 09:30:58'
p215
I0
F1949.1867104253115
F675.7055998424348
tp216
a((lp217
(S'1284'
p218
g213
F158.71720411629929
tp219
a(g213
S'1264'
p220
F491.1492433133898
tp221
a(g220
S'1344'
p222
F219.32727085244147
tp223
aF48.89214665336984
g215
S'2012-03-02 09:32:02'
p224
I0
F869.1937182821305
F207.98925812683353
tp225
a((lp226
(S'1264'
p227
g222
F587.7599268528655
tp228
a(g222
S'1264'
p229
F368.4326560017038
tp230
a(g229
S'1382'
p231
F129.93930971618857
tp232
aF65.16791355424547
g224
S'2012-03-02 09:33:02'
p233
I0
F1086.1318925707578
F50.74380583474271
tp234
a((lp235
(g227
g231
F621.0885529823171
tp236
a(g231
g220
F491.1492433133898
tp237
a(g220
g222
F218.57706601050305
tp238
aF299.43334401889723
g233
S'2012-03-02 09:33:18'
p239
I31
F1330.81486230621
F50.52587304852576
tp240
a((lp241
(g227
g222
F587.0097220109329
tp242
a(g222
g229
F368.4326560017038
tp243
a(g229
g231
F491.1492433133898
tp244
a(g231
g220
F141.3615567779564
tp245
aF68.05513620445642
g239
S'2012-03-02 09:34:42'
p246
I0
F1587.953178103983
F428.73351152935
tp247
a((lp248
(S'1382'
p249
g220
F349.78768656442855
tp250
a(g220
g231
F121.93033574767591
tp251
aF18.66137231124809
g246
S'2012-03-02 09:36:13'
p252
I0
F471.7180223121045
F245.42335674611513
tp253
a((lp254
(g227
g231
F369.2189075921153
tp255
a(g231
g220
F491.1492433133898
tp256
a(g220
g222
F315.15711789900433
tp257
aF45.99881486626341
g252
S'2012-03-02 09:37:45'
p258
I0
F1175.5252688045093
F149.26580220589614
tp259
a((lp260
(g227
g222
F683.5897738985752
tp261
a(g222
g229
F368.4326560017038
tp262
a(g229
g231
F491.1492433133898
tp263
a(g231
S'871'
p264
F803.5379876651724
tp265
a(g264
S'1137'
p266
F404.8816121047468
tp267
a(g266
S'25'
p268
F322.5903588357414
tp269
aF32.64617662109023
g258
S'2012-03-02 09:43:24'
p270
I0
F3074.1816318193296
F1393.6472182809252
tp271
a((lp272
(S'1137'
p273
g268
F586.9451827224868
tp274
a(g268
g194
F698.4005052534098
tp275
a(g194
g196
F916.7454369448138
tp276
a(g196
S'451'
p277
F156.34701667792075
tp278
aF111.71549091782988
g270
S'2012-03-02 09:44:40'
p279
I9
F2358.438141598631
F584.0443634763593
tp280
a((lp281
(g203
g277
F715.0770939596935
tp282
a(g277
S'1303'
p283
F558.7300773543896
tp284
a(g283
S'463'
p285
F916.7454369448138
tp286
a(g285
g183
F698.4005052534098
tp287
a(g183
S'37'
p288
F477.9989002471008
tp289
a(g288
g156
F35.49856685460072
tp290
aF106.51149643661242
g279
S'2012-03-02 09:46:35'
p291
I40
F3402.450580614008
F638.2003741045057
tp292
a((lp293
(S'37'
p294
g156
F674.3968675557279
tp295
a(g156
g171
F709.895434390015
tp296
a(g171
S'231'
p297
F1230.1532257749107
tp298
a(g297
S'5'
p299
F373.65454097386885
tp300
a(g299
S'26'
p301
F259.35658898200876
tp302
a(g301
g299
F342.62765105451564
tp303
aF99.41771931870593
g291
S'2012-03-02 09:48:45'
p304
I0
F3590.0843087310473
F1156.2672896941465
tp305
a((lp306
(S'26'
p307
g299
F83.27106208194975
tp308
a(g299
S'231'
p309
F373.65454097386885
tp310
a(g309
S'101'
p311
F75.12876509354773
tp312
aF41.63903750734172
g304
S'2012-03-02 09:49:31'
p313
I0
F532.0543681493664
F39.038455311374946
tp314
a((lp315
(S'231'
p316
g311
F2203.365588745597
tp317
a(g311
g152
F2128.2368240663845
tp318
a(g152
g299
F373.65454097386885
tp319
a(g299
S'336'
p320
F276.60213113766173
tp321
a(g320
S'271'
p322
F87.29832670265831
tp323
aF276.49949517960926
g313
S'2012-03-02 09:50:37'
p324
I20
F5069.15741162617
F393.85307696224135
tp325
a((lp326
(S'336'
p327
g322
F58.445085821672514
tp328
a(g322
S'336'
p329
F145.7434125243181
tp330
a(g329
g299
F276.60213113766173
tp331
a(g299
g320
F395.12567043489776
tp332
aF52.554977995113006
g324
S'2012-03-02 09:51:37'
p333
I0
F875.9162999185501
F31.317662656723734
tp334
a((lp335
(g299
g320
F118.52353929743086
tp336
a(g320
g322
F145.7434125243181
tp337
a(g322
S'1072'
p338
F303.6657021372336
tp339
aF41.72566437249669
g333
S'2012-03-02 09:52:26'
p340
I1
F567.9326539589827
F347.06783249805045
tp341
a((lp342
(S'271'
p343
g338
F151.47317324468574
tp344
a(g338
S'1137'
p345
F827.5221670782628
tp346
a(g345
S'871'
p347
F404.8816121047468
tp348
a(g347
S'1382'
p349
F803.5379876651724
tp350
a(g349
S'1284'
p351
F316.64188581483
tp352
aF40.790065942387834
g340
S'2012-03-02 09:56:07'
p353
I0
F2504.0568259076977
F1495.9767519746579
tp354
a((lp355
(g249
g351
F47.11407227757607
tp356
a(g351
S'871'
p357
F731.1102915769052
tp358
a(g357
S'1284'
p359
F472.85770613461796
tp360
aF173.2267481523368
g353
S'2012-03-02 09:56:33'
p361
I0
F1251.0820699890992
F60.640999750597885
tp362
a((lp363
(S'871'
p364
g359
F258.2525855461751
tp365
a(g359
S'1402'
p366
F532.13818844487
tp367
a(g366
S'1264'
p368
F228.23448105151797
tp369
a(g368
g222
F368.4326560017038
tp370
a(g222
S'1268'
p371
F401.77776831572237
tp372
aF64.39808445695962
g361
S'2012-03-02 09:58:13'
p373
I38
F1788.8356793599894
F807.2720741259498
tp374
a((lp375
(S'1344'
p376
g371
F662.7688591098649
tp377
a(g371
S'1344'
p378
F260.9910907964827
tp379
a(g378
g229
F368.4326560017038
tp380
a(g229
g222
F22.144974452877317
tp381
aF107.53671112043963
g373
S'2012-03-02 09:58:57'
p382
I0
F1314.3375803609288
F61.08756852948294
tp383
a((lp384
(g227
g222
F346.28768154889383
tp385
a(g222
g229
F368.4326560017038
tp386
a(g229
g231
F491.1492433133898
tp387
a(g231
g351
F404.5589398763571
tp388
aF96.62571124442066
g382
S'2012-03-02 09:59:57'
p389
I33
F1610.4285207403443
F581.6697385741866
tp390
a((lp391
(g249
g351
F674.0867533961077
tp392
a(g351
g357
F284.1974894121987
tp393
aF29.2357904585585
g389
S'2012-03-02 10:01:55'
p394
I37
F958.2842428083064
F739.1103554819188
tp395
a((lp396
(g218
g357
F446.91280227276053
tp397
a(g357
g266
F404.8816121047468
tp398
a(g266
S'1072'
p399
F827.5221670782628
tp400
a(g399
S'271'
p401
F455.13887535379115
tp402
a(g401
g329
F145.7434125243181
tp403
a(g329
g299
F276.60213113766173
tp404
a(g299
g309
F373.65454097386885
tp405
a(g309
g311
F2128.2368240663845
tp406
a(g311
S'923'
p407
F930.3605400765287
tp408
a(g407
S'1066'
p409
F274.4582639200013
tp410
aF67.30937376188051
g394
S'2012-03-02 10:07:30'
p411
I0
F6263.511169508324
F3625.6079660321807
tp412
a((lp413
(S'923'
p414
g409
F681.9926158745251
tp415
a(g409
S'923'
p416
F407.53435205726896
tp417
a(g416
S'888'
p418
F219.14874027463028
tp419
aF181.2012519055049
g411
S'2012-03-02 10:07:56'
p420
I74
F1308.6757082064241
F173.87411106580018
tp421
a((lp422
(g414
g418
F537.2042892646853
tp423
a(g418
S'1213'
p424
F398.42229143270566
tp425
a(g424
S'1066'
p426
F126.00604095646439
tp427
a(g426
S'1170'
p428
F134.29559832461862
tp429
a(g428
S'915'
p430
F418.6803844186766
tp431
a(g430
S'1170'
p432
F2.005409607425768
tp433
aF52.907367731058855
g420
S'2012-03-02 10:09:46'
p434
I0
F1616.6140140045761
F518.7796268913332
tp435
a((lp436
(S'915'
p437
g432
F420.68579402602273
tp438
a(g432
S'1066'
p439
F134.29559832461862
tp440
a(g439
S'1213'
p441
F126.00604095646439
tp442
a(g441
S'1059'
p443
F408.9252134505511
tp444
aF76.93501035936401
g434
S'2012-03-02 10:10:37'
p445
I12
F1089.9126467576568
F474.90350780886774
tp446
a((lp447
(S'1213'
p448
g443
F384.5775425191808
tp449
a(g443
S'1213'
p450
F24.347670935949793
tp451
a(g450
g426
F126.00604095646439
tp452
a(g426
g428
F134.29559832461862
tp453
a(g428
g430
F418.6803844186766
tp454
a(g430
S'121'
p455
F317.2464914021481
tp456
a(g455
S'307'
p457
F355.28771301773605
tp458
a(g457
S'121'
p459
F13.570428867021159
tp460
aF25.751785216090582
g445
S'2012-03-02 10:14:45'
p461
I42
F1774.0118704417955
F1082.2890663523538
tp462
a((lp463
(S'307'
p464
g459
F341.7172841510775
tp465
a(g459
g457
F355.28771301773605
tp466
a(g457
g150
F200.0580023517239
tp467
aF17.362509668139435
g461
S'2012-03-02 10:17:51'
p468
I0
F897.0629995205375
F226.05409214402474
tp469
a((lp470
(g464
g150
F316.31617571528557
tp471
a(g150
S'307'
p472
F516.3741780275716
tp473
a(g472
S'12'
p474
F336.87317808984017
tp475
a(g474
S'324'
p476
F348.33486400960794
tp477
a(g476
g98
F522.2079091612247
tp478
a(g98
g100
F505.9919712639641
tp479
a(g100
g102
F17.01365277592611
tp480
aF38.933345757621574
g468
S'2012-03-02 10:21:48'
p481
I37
F2563.1119290434203
F1909.839294315011
tp482
a((lp483
(S'1158'
p484
g102
F326.4023707045263
tp485
a(g102
g121
F739.6760747221767
tp486
a(g121
S'203'
p487
F110.55925503297553
tp488
a(g487
S'431'
p489
F369.98613606887915
tp490
a(g489
S'392'
p491
F457.83618440901
tp492
a(g491
S'270'
p493
F95.85961614434376
tp494
a(g493
S'365'
p495
F439.2667885917868
tp496
aF76.18759277021095
g481
S'2012-03-02 10:23:48'
p497
I22
F2539.586425673698
F1360.74725606346
tp498
a((lp499
(S'270'
p500
g495
F1805.5253530653986
tp501
a(g495
S'270'
p502
F1366.258565726773
tp503
a(g502
S'392'
p504
F95.85961614434376
tp505
a(g504
S'431'
p506
F457.83618440901
tp507
a(g506
S'203'
p508
F369.98613606887915
tp509
a(g508
S'414'
p510
F110.55925503297553
tp511
a(g510
S'371'
p512
F739.6760747221767
tp513
a(g512
S'1158'
p514
F243.8894340107479
tp515
aF9.776308858738409
g497
S'2012-03-02 10:55:39'
p516
I72
F5189.590619180305
F1276.7460198556812
tp517
a((lp518
(g126
g514
F99.52658947068335
tp519
a(g514
g102
F343.4160234801613
tp520
a(g102
g104
F119.97785911990344
tp521
aF33.775228324244885
g516
S'2012-03-02 10:56:39'
p522
I55
F562.9204720707481
F220.12021760530087
tp523
a((lp524
(g126
g104
F382.54365297020024
tp525
a(g104
g119
F502.52151206068487
tp526
a(g119
g514
F343.4160234801613
tp527
a(g514
S'233'
p528
F505.9919712639641
tp529
a(g528
g91
F522.2079091612247
tp530
a(g91
g146
F348.33486400960794
tp531
a(g146
g148
F336.87317808984017
tp532
a(g148
g474
F468.0587806892369
tp533
aF87.06249936318945
g522
S'2012-03-02 10:59:00'
p534
I57
F3409.94789172492
F2025.54168543421
tp535
a((lp536
(g464
g474
F804.9319586256964
tp537
a(g474
g148
F336.87317808984017
tp538
a(g148
g150
F516.3741780275716
tp539
a(g150
g152
F16.843275685154282
tp540
aF317.37270134430236
g534
S'2012-03-02 10:59:19'
p541
I0
F1675.0225904282624
F65.20881911671258
tp542
a((lp543
(S'101'
p544
g544
F0.0
tp545
aF19.697476522771797
g541
S'2012-03-02 11:00:35'
p546
I42
F415.835615480738
F416.0615706882111
tp547
a((lp548
(g544
g152
F1695.5579347409969
tp549
a(g152
g311
F2128.2368240663845
tp550
a(g311
g472
F516.3741780275716
tp551
a(g472
g474
F339.7392377818832
tp552
aF103.99795943592969
g546
S'2012-03-02 11:03:17'
p553
I14
F4679.908174616836
F1287.8166667881742
tp554
a((lp555
(g464
g474
F2.866059692462476
tp556
a(g474
g476
F348.33486400960794
tp557
a(g476
S'1209'
p558
F329.50645089237776
tp559
a(g558
S'1222'
p560
F276.28011008757517
tp561
aF57.419249080921404
g553
S'2012-03-02 11:04:17'
p562
I1
F956.9874846820234
F640.6975562133563
tp563
a((lp564
(S'1209'
p565
g560
F806.0806761845848
tp566
a(g560
S'886'
p567
F498.13109666342655
tp568
a(g567
S'1233'
p569
F234.99343971888254
tp570
aF73.8818502032109
g562
S'2012-03-02 11:05:32'
p571
I44
F1539.2052125668938
F753.6034494793863
tp572
a((lp573
(S'886'
p574
g569
F438.9517426333104
tp575
a(g569
S'819'
p576
F280.1051964205321
tp577
a(g576
S'1233'
p578
F227.97692364274195
tp579
aF131.12776560414247
g571
S'2012-03-02 11:05:58'
p580
I0
F947.0338626965845
F46.70651631264807
tp581
a((lp582
(S'819'
p583
g578
F52.12827278157721
tp584
a(g578
S'820'
p585
F255.3750506846333
tp586
a(g585
S'887'
p587
F1042.7797147525323
tp588
a(g587
S'1027'
p589
F974.3320508593303
tp590
a(g589
g3
F373.0858188457338
tp591
aF80.9310272377142
g580
S'2012-03-02 11:07:58'
p592
I20
F2697.700907923807
F1195.4975960370148
tp593
a.