(lp0
((lp1
(S'1274'
p2
S'1293'
p3
F799.5203436326508
tp4
a(g3
S'1260'
p5
F1024.1097312058519
tp6
a(g5
S'1275'
p7
F734.392733411063
tp8
a(g7
S'1321'
p9
F468.9618072145609
tp10
aF66.04330070103549
S'2012-03-02 07:00:13'
p11
S'2012-03-02 07:02:58'
p12
I5
F3026.984615464127
F1498.070576636616
tp13
a((lp14
(S'1275'
p15
g9
F418.56824877013
tp16
a(g9
S'1275'
p17
F887.5300557829405
tp18
a(g17
S'1260'
p19
F437.7383641391877
tp20
aF47.55918187342523
g12
S'2012-03-02 07:05:10'
p21
I20
F1743.8366686922584
F654.1842897625984
tp22
a((lp23
(g15
g19
F296.6543692733001
tp24
a(g19
g7
F734.392733411063
tp25
a(g7
S'1276'
p26
F344.4852295032516
tp27
aF65.15679468257123
g21
S'2012-03-02 07:06:26'
p28
I0
F1375.5323321876149
F94.44388365513872
tp29
a((lp30
(g15
g26
F1150.1481021167976
tp31
a(g26
S'1323'
p32
F931.5945861203788
tp33
a(g32
S'1321'
p34
F729.4014589530278
tp35
a(g34
S'1390'
p36
F411.7583519723548
tp37
a(g36
S'1372'
p38
F118.81171846266739
tp39
aF100.2514265287568
g28
S'2012-03-02 07:08:26'
p40
I62
F3341.7142176252264
F1220.9399413749436
tp41
a((lp42
(S'1390'
p43
g38
F598.3842706327231
tp44
a(g38
S'1390'
p45
F479.57255220893796
tp46
a(g45
S'1321'
p47
F411.7583519723548
tp48
a(g47
S'1323'
p49
F39.196286690845824
tp50
aF305.78229230097236
g40
S'2012-03-02 07:08:44'
p51
I50
F1528.9114615048618
F68.5443579061106
tp52
a((lp53
(S'1321'
p54
g49
F768.5977456438656
tp55
a(g49
g34
F729.4014589530278
tp56
a(g34
g36
F411.7583519723548
tp57
a(g36
g47
F425.25738160632113
tp58
aF90.38767502615107
g51
S'2012-03-02 07:10:17'
p59
I0
F2335.014938175569
F483.82434940305143
tp60
a((lp61
(g43
g47
F837.0157334082434
tp62
a(g47
g36
F411.7583519723548
tp63
a(g36
g38
F479.57255220893796
tp64
a(g38
S'1246'
p65
F401.2293386563323
tp66
a(g65
S'1237'
p67
F396.464207112988
tp68
aF202.0832146687085
g59
S'2012-03-02 07:11:02'
p69
I0
F2526.040183358856
F50.70222259511785
tp70
a((lp71
(S'1246'
p72
g72
F0.0
tp73
aF30.437578572491482
g69
S'2012-03-02 07:12:02'
p74
I31
F507.29297620819136
F507.2291987992201
tp75
a((lp76
(g72
g67
F685.0088250805792
tp77
a(g67
S'1386'
p78
F400.05667678215144
tp79
a(g78
S'1295'
p80
F329.92055347398576
tp81
a(g80
S'1333'
p82
F6.403573344294486
tp83
aF66.45458004222908
g74
S'2012-03-02 07:13:19'
p84
I51
F1421.389628681011
F1023.0319309219145
tp85
a((lp86
(S'1295'
p87
g82
F572.0410456042249
tp88
a(g82
S'1295'
p89
F565.6374723484656
tp90
a(g89
S'1386'
p91
F329.92055347398576
tp92
a(g91
S'1249'
p93
F32.95704523074003
tp94
aF108.04004039933399
g84
S'2012-03-02 07:14:09'
p95
I0
F1500.5561166574164
F331.9280232313861
tp96
a((lp97
(S'1386'
p98
g93
F1076.0343239727856
tp99
a(g93
S'1386'
p100
F1043.0772787454132
tp101
a(g100
g80
F329.92055347398576
tp102
a(g80
S'1395'
p103
F660.5954005099251
tp104
a(g103
S'1295'
p105
F31.827985202310913
tp106
aF128.51409035063537
g95
S'2012-03-02 07:15:37'
p107
I0
F3141.4555419044204
F688.6678955549484
tp108
a((lp109
(S'1395'
p110
g105
F628.7674153225821
tp111
a(g105
g91
F329.92055347398576
tp112
a(g91
g93
F1043.0772787454132
tp113
a(g93
S'1314'
p114
F768.6096484409971
tp115
a(g114
S'1335'
p116
F191.07243951306626
tp117
aF126.91917152125905
g107
S'2012-03-02 07:17:01'
p118
I0
F2961.4473354960446
F843.0814342393977
tp119
a((lp120
(S'1314'
p121
g116
F571.8319891079375
tp122
a(g116
S'1314'
p123
F380.7595495955808
tp124
a(g123
S'1257'
p125
F331.9978721556281
tp126
a(g125
S'1300'
p127
F170.63415856563586
tp128
aF124.7334488078385
g118
S'2012-03-02 07:17:43'
p129
I53
F1455.2235694247825
F246.50929033627918
tp130
a((lp131
(S'1257'
p132
g127
F738.4977155355135
tp133
a(g127
S'1257'
p134
F909.1318739707772
tp135
a(g134
S'1355'
p136
F13.786066746160268
tp137
aF43.34127798919438
g129
S'2012-03-02 07:20:01'
p138
I0
F1661.415656252451
F125.67961339961927
tp139
a((lp140
(g132
g136
F258.96085854436524
tp141
a(g136
S'1257'
p142
F258.9519826245534
tp143
aF11.509174248198194
g138
S'2012-03-02 07:22:43'
p144
I0
F517.9128411689187
F0.8455884354117564
tp145
a((lp146
(S'1355'
p147
g142
F13.794942665972037
tp148
a(g142
g127
F292.93296248968863
tp149
aF29.05843312000996
g144
S'2012-03-02 07:23:21'
p150
I0
F306.72790515566066
F3.849540776041681
tp151
a((lp152
(g132
g127
F616.1989116678752
tp153
a(g127
S'1328'
p154
F1023.4121880864786
tp155
a(g154
S'1377'
p156
F328.35338240576175
tp157
a(g156
S'1240'
p158
F161.28392736820933
tp159
aF53.98094559367584
g150
S'2012-03-02 07:25:43'
p160
I0
F2129.248409528325
F1024.3285030705945
tp161
a((lp162
(S'1377'
p163
g163
F0.0
tp164
aF14.520438228389372
g160
S'2012-03-02 07:26:03'
p165
I50
F80.66910126882983
F80.66046987109523
tp166
a((lp167
(g163
g158
F530.8196983916735
tp168
a(g158
S'1377'
p169
F450.20487229242497
tp170
a(g169
S'1328'
p171
F328.35338240576175
tp172
a(g171
S'1384'
p173
F47.960332226671554
tp174
aF305.4011141962196
g165
S'2012-03-02 07:26:19'
p175
I0
F1357.3382853165317
F48.90521707167752
tp176
a((lp177
(S'1328'
p178
g173
F621.9207706362791
tp179
a(g173
S'1336'
p180
F270.0346910770018
tp181
a(g180
S'1268'
p182
F155.42560320927745
tp183
a(g182
S'1344'
p184
F260.9910907964827
tp185
a(g184
S'1240'
p186
F281.08875341763786
tp187
a(g186
S'1344'
p188
F97.04234453404898
tp189
aF101.19019522024367
g175
S'2012-03-02 07:27:19'
p190
I27
F1686.5032536707276
F548.9875230139435
tp191
a((lp192
(S'1240'
p193
g188
F184.04640888384716
tp194
a(g188
S'1264'
p195
F368.4326560017038
tp196
a(g195
S'1402'
p197
F228.23448105151797
tp198
a(g197
S'1284'
p199
F532.13818844487
tp200
a(g199
S'1303'
p201
F393.0490934460226
tp202
a(g201
S'463'
p203
F180.8496880965062
tp204
aF56.60251547773404
g190
S'2012-03-02 07:29:19'
p205
I20
F1886.750515924468
F1358.1607590069177
tp206
a((lp207
(S'1303'
p208
g208
F0.0
tp209
aF1.0704201603927355
g205
S'2012-03-02 07:30:35'
p210
I14
F22.597758941624416
F22.739362498893744
tp211
a((lp212
(g208
g208
F0.0
tp213
aF6.833423841720928
g210
S'2012-03-02 07:30:58'
p214
I0
F43.65798565543926
F43.64542003257346
tp215
a((lp216
(g208
g203
F669.6400042562988
tp217
a(g203
S'406'
p218
F523.1406006777456
tp219
a(g218
S'235'
p220
F4.692581966371923
tp221
aF47.372565635620866
g214
S'2012-03-02 07:32:29'
p222
I27
F1197.4731869004163
F997.7334406672738
tp223
a((lp224
(S'406'
p225
g220
F1276.0241756878931
tp226
a(g220
S'406'
p227
F1280.716757645314
tp228
a(g227
S'463'
p229
F523.1406006777456
tp230
a(g229
g218
F378.16391704337263
tp231
aF592.807791609313
g222
S'2012-03-02 07:32:50'
p232
I0
F3458.0454510543254
F50.77247928035855
tp233
a((lp234
(S'463'
p235
g218
F144.97668363566487
tp236
a(g218
S'37'
p237
F709.895434390015
tp238
a(g237
S'231'
p239
F1230.1532257749107
tp240
a(g239
S'101'
p241
F2128.2368240663845
tp242
a(g241
S'307'
p243
F516.3741780275716
tp244
a(g243
S'12'
p245
F336.87317808984017
tp246
a(g245
S'324'
p247
F348.33486400960794
tp248
a(g247
S'233'
p249
F522.2079091612247
tp250
a(g249
S'1158'
p251
F505.9919712639641
tp252
a(g251
S'371'
p253
F343.4160234801613
tp254
a(g253
S'323'
p255
F502.52151206068487
tp256
a(g255
S'195'
p257
F899.3736486026992
tp258
a(g257
S'160'
p259
F1654.504702992569
tp260
a(g259
S'206'
p261
F2977.933896935319
tp262
a(g261
S'160'
p263
F423.6391111228079
tp264
aF244.51261225132475
g232
S'2012-03-02 07:36:05'
p265
I24
F13244.433163613425
F1128.2013316893308
tp266
a((lp267
(S'206'
p268
g263
F2554.2947896911883
tp269
a(g263
g261
F2977.933896935319
tp270
a(g261
S'118'
p271
F369.2255885970001
tp272
aF544.7496254052469
g265
S'2012-03-02 07:36:44'
p273
I0
F5901.4542752235075
F48.93537542529694
tp274
a((lp275
(g268
g271
F3785.88807579082
tp276
a(g271
S'206'
p277
F3416.662493017941
tp278
a(g277
S'79'
p279
F340.8639244928786
tp280
a(g279
S'206'
p281
F31.96146579473755
tp282
aF462.22632970757553
g273
S'2012-03-02 07:37:43'
p283
I37
F7575.375959096377
F157.02807890118268
tp284
a((lp285
(S'79'
p286
g286
F0.0
tp287
aF0.0360348869233003
g283
S'2012-03-02 07:47:55'
p288
I3
F6.1259307769610505
F7.606901918974374
tp289
a((lp290
(g286
g281
F302.7765279226897
tp291
a(g281
g279
F340.8639244928786
tp292
a(g279
S'171'
p293
F258.8430387665728
tp294
a(g293
S'34'
p295
F73.18195138406931
tp296
aF16.33672368948073
g288
S'2012-03-02 07:51:30'
p297
I0
F975.6654425662103
F197.47648836336916
tp298
a((lp299
(S'171'
p300
g295
F288.320258492651
tp301
a(g295
S'171'
p302
F361.50220986718784
tp303
a(g302
S'79'
p304
F258.8430387665728
tp305
a(g304
g281
F340.8639244928786
tp306
a(g281
g263
F2977.933896935319
tp307
a(g263
S'195'
p308
F1654.504702992569
tp309
a(g308
S'323'
p310
F899.3736486026992
tp311
a(g310
S'371'
p312
F502.52151206068487
tp313
a(g312
S'1158'
p314
F343.4160234801613
tp315
a(g314
S'233'
p316
F505.9919712639641
tp317
a(g316
S'324'
p318
F522.2079091612247
tp319
a(g318
S'12'
p320
F348.33486400960794
tp321
a(g320
S'307'
p322
F336.87317808984017
tp323
a(g322
S'101'
p324
F516.3741780275716
tp325
a(g324
S'231'
p326
F2128.2368240663845
tp327
a(g326
S'37'
p328
F1230.1532257749107
tp329
a(g328
S'406'
p330
F709.895434390015
tp331
a(g330
g229
F381.56438547622224
tp332
aF858.4146711570278
g297
S'2012-03-02 07:52:30'
p333
I29
F14306.911185950463
F571.7809773157394
tp334
a((lp335
(g225
g229
F904.7049861455857
tp336
a(g229
g218
F523.1406006777456
tp337
a(g218
g220
F10.915761022351614
tp338
aF47.51872341508678
g333
S'2012-03-02 07:54:19'
p339
I37
F1438.761347845683
F277.13107770181585
tp340
a((lp341
(g225
g220
F1269.8009966438667
tp342
a(g220
g227
F1280.716757645314
tp343
a(g227
g229
F52.79640620865583
tp344
aF234.29827444480526
g339
S'2012-03-02 07:54:59'
p345
I0
F2603.3141604978364
F52.41120041129478
tp346
a((lp347
(g225
g225
F0.0
tp348
aF33.07576307277214
g345
S'2012-03-02 07:55:59'
p349
I25
F551.2627178795357
F551.2959649559925
tp350
a((lp351
(g225
g229
F24.674289006423145
tp352
a(g229
S'128'
p353
F579.5406775008636
tp354
a(g353
S'172'
p355
F59.647928585181425
tp356
aF28.116546145092766
g349
S'2012-03-02 07:57:24'
p357
I0
F663.8628950924681
F517.3633269605522
tp358
a((lp359
(S'128'
p360
g355
F733.5377203649475
tp361
a(g355
S'128'
p362
F673.8897918142452
tp363
a(g362
S'268'
p364
F711.8157605305048
tp365
a(g364
S'451'
p366
F387.6894908547779
tp367
aF84.34540139095431
g357
S'2012-03-02 07:59:11'
p368
I44
F2506.9327635644754
F305.44748089245564
tp369
a((lp370
(S'268'
p371
g366
F618.4629434328332
tp372
a(g366
S'99'
p373
F14.687491076096412
tp374
aF39.988448495300815
g368
S'2012-03-02 08:00:08'
p375
I16
F633.1504345089296
F196.95370920892609
tp376
a((lp377
(S'451'
p378
g373
F619.9590633713111
tp379
a(g373
S'1345'
p380
F384.78659929766803
tp381
a(g380
S'1402'
p382
F621.7851744782233
tp383
a(g382
S'1264'
p384
F272.1139402674475
tp385
aF75.11122196365649
g375
S'2012-03-02 08:01:39'
p386
I0
F1898.64477741465
F547.1543577118883
tp387
a((lp388
(S'1402'
p389
g384
F500.3484213181761
tp390
a(g384
S'1344'
p391
F368.4326560017038
tp392
a(g391
g186
F281.08875341763786
tp393
a(g186
S'1310'
p394
F388.8414992769568
tp395
a(g394
S'1362'
p396
F341.26879099294536
tp397
aF112.79880726044519
g386
S'2012-03-02 08:02:39'
p398
I31
F1879.9801210074197
F546.4462127709716
tp399
a((lp400
(S'1310'
p401
g396
F569.5581337860245
tp402
a(g396
S'1310'
p403
F228.28934279398425
tp404
a(g403
S'1240'
p405
F388.8414992769568
tp406
a(g405
g188
F281.08875341763786
tp407
a(g188
S'1268'
p408
F260.9910907964827
tp409
a(g408
S'1336'
p410
F155.42560320927745
tp411
a(g410
S'1384'
p412
F60.46864962925994
tp413
aF116.67978437457741
g398
S'2012-03-02 08:03:39'
p414
I1
F1944.6630729096235
F484.0308640838848
tp415
a((lp416
(S'1336'
p417
g412
F209.56604145186276
tp418
a(g412
g180
F270.0346910770018
tp419
a(g180
g182
F115.62305970500746
tp420
aF79.3631722978496
g414
S'2012-03-02 08:04:06'
p421
I40
F595.223792233872
F149.18309746072177
tp422
a((lp423
(g417
g182
F271.0486629092655
tp424
a(g182
g410
F155.42560320927745
tp425
a(g410
g412
F223.70671251365718
tp426
aF39.010858717932
g421
S'2012-03-02 08:05:06'
p427
I0
F650.1809786322001
F14.573935194085594
tp428
a((lp429
(g417
g412
F46.32797856674202
tp430
a(g412
S'1328'
p431
F573.9604384116748
tp432
a(g431
S'1300'
p433
F1023.4121880864786
tp434
a(g433
g154
F125.12431822039494
tp435
aF43.915653267772726
g427
S'2012-03-02 08:07:31'
p436
I11
F1768.8249232852904
F1472.9174827899951
tp437
a((lp438
(S'1300'
p439
g154
F898.2878698666248
tp440
a(g154
g433
F1023.4121880864786
tp441
a(g433
S'1378'
p442
F195.5525912949026
tp443
a(g442
S'1373'
p444
F274.30810215673836
tp445
aF478.3121502809488
g436
S'2012-03-02 08:07:49'
p446
I0
F2391.560751404744
F46.24354551674666
tp447
a((lp448
(S'1378'
p449
g444
F1522.3879987232935
tp450
a(g444
S'1378'
p451
F1248.079896567967
tp452
a(g451
S'1376'
p453
F272.91033738062805
tp454
a(g453
S'1013'
p455
F285.24834894713825
tp456
aF199.7175948971416
g446
S'2012-03-02 08:08:49'
p457
I24
F3328.6265816190266
F522.9894042487431
tp458
a((lp459
(S'1376'
p460
g460
F0.0
tp461
aF10.30485758644097
g457
S'2012-03-02 08:09:44'
p462
I40
F157.4353242372926
F157.945942855519
tp463
a((lp464
(g460
g455
F2985.145350967484
tp465
a(g455
S'1211'
p466
F355.0266673083767
tp467
a(g466
S'1162'
p468
F84.3513524517187
tp469
aF53.83530189790081
g462
S'2012-03-02 08:13:33'
p470
I27
F3424.5233707275793
F2922.6449703352037
tp471
a((lp472
(S'1211'
p473
g468
F491.20632648102173
tp474
a(g468
S'792'
p475
F393.5275279288238
tp476
a(g475
S'814'
p477
F350.26427291339104
tp478
a(g477
S'991'
p479
F281.3525826952152
tp480
aF54.58862556066426
g470
S'2012-03-02 08:15:13'
p481
I7
F1516.3507100184518
F569.8465132675858
tp482
a((lp483
(S'814'
p484
g479
F875.9042938566444
tp485
a(g479
S'874'
p486
F237.07629077782101
tp487
a(g486
S'867'
p488
F492.04911934836207
tp489
a(g488
S'920'
p490
F408.84211159134935
tp491
a(g490
S'867'
p492
F488.6217706762472
tp493
aF50.04987172500848
g481
S'2012-03-02 08:18:13'
p494
I42
F2502.493586250424
F1050.4537231738302
tp495
a((lp496
(S'920'
p497
g492
F79.7796591030623
tp498
a(g492
S'1191'
p499
F360.6074231124015
tp500
a(g499
S'973'
p501
F412.40913364934164
tp502
a(g501
S'895'
p503
F444.35669521011835
tp504
a(g503
S'774'
p505
F268.4210662990969
tp506
a(g505
S'970'
p507
F239.22786006635104
tp508
aF23.887083142593156
g494
S'2012-03-02 08:22:45'
p509
I33
F1804.8018374403716
F1336.7634948551404
tp510
a((lp511
(S'774'
p512
g507
F138.10858183769392
tp513
a(g507
S'820'
p514
F247.7378419176489
tp515
a(g514
S'887'
p516
F222.81375647961653
tp517
aF36.51961081409756
g509
S'2012-03-02 08:23:45'
p518
I37
F608.6601802349594
F483.94851732432505
tp519
a((lp520
(S'820'
p521
g516
F819.9659584957259
tp522
a(g516
S'1027'
p523
F974.3320508593303
tp524
a(g523
S'842'
p525
F108.42347341772006
tp526
a(g525
S'1115'
p527
F191.69481824175278
tp528
aF45.97499197348966
g518
S'2012-03-02 08:26:29'
p529
I33
F2094.416301014529
F974.384335005781
tp530
a((lp531
(S'842'
p532
g527
F701.3077477699143
tp533
a(g527
S'263'
p534
F472.4206568274532
tp535
a(g534
S'140'
p536
F435.87853113202175
tp537
a(g536
S'431'
p538
F334.7646258643055
tp539
a(g538
S'140'
p540
F90.7092767470898
tp541
aF40.7016167668157
g529
S'2012-03-02 08:29:29'
p542
I40
F2035.0808383407848
F967.2393833072612
tp543
a((lp544
(S'431'
p545
g540
F244.0553491259162
tp546
a(g540
S'263'
p547
F435.87853113202175
tp548
a(g547
S'1115'
p549
F472.4206568274532
tp550
a(g549
S'989'
p551
F1111.3964106739522
tp552
a(g551
S'1036'
p553
F786.7860140536283
tp554
a(g553
S'1151'
p555
F499.30418929770127
tp556
a(g555
S'1232'
p557
F572.8013873462398
tp558
a(g557
S'901'
p559
F500.4166198457959
tp560
a(g559
S'1157'
p561
F329.43858562166434
tp562
a(g561
S'1075'
p563
F42.87757714138974
tp564
a(g563
S'1159'
p565
F653.229543764915
tp566
a(g565
S'763'
p567
F12.65872730361995
tp568
a(g567
S'793'
p569
F807.7571788598872
tp570
a(g569
S'1187'
p571
F936.9634855721417
tp572
a(g571
S'1164'
p573
F539.6604647224013
tp574
a(g573
S'1141'
p575
F68.38410879478977
tp576
aF1.7559649292940147
g542
S'2012-03-02 13:03:19'
p577
I20
F8014.028830083516
F6732.3669229671905
tp578
a((lp579
(S'1164'
p580
g575
F249.1980453824915
tp581
a(g575
S'821'
p582
F272.9196924326181
tp583
a(g582
S'1141'
p584
F10.14208190461349
tp585
aF159.67794591591695
g577
S'2012-03-02 13:03:31'
p586
I0
F532.2598197197232
F46.464940828544165
tp587
a((lp588
(S'821'
p589
g589
F0.0
tp590
aF23.77948865067913
g586
S'2012-03-02 13:04:10'
p591
I25
F257.61112704902393
F259.1493530221204
tp592
a((lp593
(g589
g584
F5.16648347908559
tp594
a(g584
g582
F272.9196924326181
tp595
a(g582
S'960'
p596
F300.73395278664674
tp597
a(g596
S'1133'
p598
F313.9016806177561
tp599
a(g598
S'1177'
p600
F544.2648983785294
tp601
a(g600
S'969'
p602
F177.68541967841443
tp603
aF6.7590926262127695
g591
S'2012-03-02 13:18:30'
p604
I0
F1614.6721273730504
F906.0988434545947
tp605
a((lp606
(S'1177'
p607
g602
F1026.5565047471246
tp608
a(g602
S'1177'
p609
F848.8710851126325
tp610
a(g609
S'1133'
p611
F544.2648983785294
tp612
a(g611
S'960'
p613
F313.9016806177561
tp614
a(g613
S'932'
p615
F325.1238765614434
tp616
a(g615
S'843'
p617
F496.3588671175418
tp618
a(g617
S'993'
p619
F298.54352314033923
tp620
a(g619
S'1114'
p621
F865.1525280555261
tp622
a(g621
S'809'
p623
F639.1126192225747
tp624
a(g623
S'900'
p625
F674.794246559625
tp626
a(g625
S'967'
p627
F217.51739317672622
tp628
a(g627
S'1127'
p629
F190.65766483400054
tp630
a(g629
S'988'
p631
F152.49726409143645
tp632
a(g631
S'777'
p633
F428.69502991180303
tp634
a(g633
S'1185'
p635
F414.3511204089962
tp636
aF5.419237628941255
g604
S'2012-03-02 14:40:50'
p637
I64
F7436.398301936056
F3624.1379078434516
tp638
a((lp639
(S'777'
p640
g635
F879.9156524025046
tp641
a(g635
S'777'
p642
F465.5645320107461
tp643
a(g642
S'988'
p644
F428.69502991180303
tp645
a(g644
S'1127'
p646
F96.30514063787633
tp647
aF108.60853673978303
g637
S'2012-03-02 14:41:52'
p648
I27
F1870.48035496293
F520.6644043306298
tp649
a((lp650
(S'988'
p651
g646
F248.8024047293082
tp652
a(g646
g631
F152.49726409143645
tp653
a(g631
S'937'
p654
F84.85729485795852
tp655
a(g654
S'901'
p656
F654.3387647481585
tp657
a(g656
S'937'
p658
F272.66108653074497
tp659
aF175.4263632361167
g648
S'2012-03-02 14:42:21'
p660
I0
F1413.1568149576067
F23.571783683776356
tp661
a((lp662
(S'901'
p663
g658
F381.67767829641576
tp664
a(g658
S'988'
p665
F95.39657887709934
tp666
aF16.51410890216014
g660
S'2012-03-02 14:44:05'
p667
I24
F477.0742571735151
F478.68468322364106
tp668
a((lp669
(S'937'
p670
g665
F10.53928401915317
tp671
a(g665
g654
F84.85729485795852
tp672
a(g654
S'1061'
p673
F146.42355794118683
tp674
aF14.509208209097913
g667
S'2012-03-02 14:45:05'
p675
I12
F241.82013681829852
F239.2717925843344
tp676
a((lp677
(g670
g673
F784.1754796384604
tp678
a(g673
S'937'
p679
F930.5990375079346
tp680
a(g679
g665
F84.85729485795852
tp681
a(g665
g646
F152.49726409143645
tp682
a(g646
S'967'
p683
F190.65766483400054
tp684
a(g683
S'900'
p685
F217.51739317672622
tp686
a(g685
S'809'
p687
F674.794246559625
tp688
a(g687
g625
F53.58038367789665
tp689
aF11.381006705873633
g675
S'2012-03-02 15:01:22'
p690
I3
F3088.6787643440384
F1300.7627263613003
tp691
a((lp692
(S'809'
p693
g625
F728.3746302042013
tp694
a(g625
g627
F217.51739317672622
tp695
a(g627
g629
F190.65766483400054
tp696
a(g629
g631
F152.49726409143645
tp697
a(g631
g633
F126.26781046718905
tp698
aF42.459442883206606
g690
S'2012-03-02 15:03:22'
p699
I57
F1415.3147627735534
F1265.3715812232494
tp700
a((lp701
(g651
g633
F302.42721944463557
tp702
a(g633
g635
F465.5645320107461
tp703
a(g635
S'1073'
p704
F401.933419412357
tp705
a(g704
S'987'
p706
F38.665065427852774
tp707
aF72.5154141777355
g699
S'2012-03-02 15:04:22'
p708
I66
F1208.5902362955915
F1132.8569028592462
tp709
a((lp710
(S'1073'
p711
g706
F623.9815631142455
tp712
a(g706
S'1189'
p713
F541.0596802687863
tp714
a(g713
S'887'
p715
F211.8840444636607
tp716
a(g715
g523
F974.3320508593303
tp717
a(g523
g525
F108.42347341772006
tp718
a(g525
S'929'
p719
F138.91582185729666
tp720
a(g719
S'414'
p721
F303.12038890948725
tp722
a(g721
S'203'
p723
F110.55925503297553
tp724
a(g723
S'431'
p725
F369.98613606887915
tp726
a(g725
S'392'
p727
F457.83618440901
tp728
a(g727
S'270'
p729
F95.85961614434376
tp730
a(g729
S'433'
p731
F330.3168336032497
tp732
a(g731
S'372'
p733
F585.0976094380715
tp734
a(g733
S'97'
p735
F63.758701035611004
tp736
a(g735
S'413'
p737
F1079.6824743926077
tp738
a(g737
S'182'
p739
F115.49858570546621
tp740
aF61.10312418720742
g708
S'2012-03-02 15:10:22'
p741
I72
F6110.312418720741
F5636.757836414924
tp742
a((lp743
(S'413'
p744
g739
F617.1791068061075
tp745
a(g739
S'58'
p746
F144.3800597707265
tp747
aF45.69354999461004
g741
S'2012-03-02 15:11:22'
p748
I59
F761.559166576834
F806.1776841621231
tp749
a((lp750
(S'182'
p751
g746
F905.7092722331116
tp752
a(g746
S'86'
p753
F905.5130865393613
tp754
a(g753
S'331'
p755
F697.8413564130648
tp756
a(g755
S'70'
p757
F250.6396728341363
tp758
a(g757
S'185'
p759
F173.57726875634333
tp760
aF9.679019582395659
g748
S'2012-03-02 15:29:33'
p761
I40
F2933.2806567760176
F1840.116026629661
tp762
a((lp763
(S'70'
p764
g759
F583.9927837253265
tp765
a(g759
S'70'
p766
F410.4155150177738
tp767
a(g766
S'331'
p768
F250.6396728341363
tp769
a(g768
S'86'
p770
F697.8413564130648
tp771
a(g770
S'58'
p772
F905.5130865393613
tp773
a(g772
g753
F340.75465695190763
tp774
aF3.1865016534370394
g761
S'2012-03-02 16:29:36'
p775
I29
F3189.1570714815703
F808.008798777188
tp776
a((lp777
(S'58'
p778
g753
F564.7584298012868
tp779
a(g753
g772
F905.5130865393613
tp780
a(g772
S'182'
p781
F1050.0893319780932
tp782
a(g781
S'413'
p783
F248.0737499372334
tp784
aF5.91475641170416
g775
S'2012-03-02 16:57:41'
p785
I38
F2768.434598255975
F1423.9720078838623
tp786
a((lp787
(g751
g783
F253.60677116635054
tp788
a(g783
S'333'
p789
F1407.7106325202305
tp790
a(g789
S'1'
p791
F975.8745201557714
tp792
a(g791
S'190'
p793
F133.23962227802784
tp794
a(g793
S'200'
p795
F65.9676834156334
tp796
a(g795
S'323'
p797
F108.6648590369618
tp798
aF4.4194375651782885
g785
S'2012-03-02 17:37:40'
p799
I48
F2945.064088572976
F2551.2054975463907
tp800
a((lp801
(S'200'
p802
g797
F746.7707733008637
tp803
a(g797
g312
F502.52151206068487
tp804
a(g312
g314
F343.4160234801613
tp805
a(g314
g316
F505.9919712639641
tp806
a(g316
g318
F474.29116583469425
tp807
aF77.18974337821105
g799
S'2012-03-02 17:39:40'
p808
I38
F2572.991445940368
F1030.7656316480404
tp809
a((lp810
(S'233'
p811
g318
F996.4990746993221
tp812
a(g318
g249
F522.2079091612247
tp813
a(g249
S'1222'
p814
F125.07481688569855
tp815
aF98.62690804477472
g808
S'2012-03-02 17:40:40'
p816
I24
F1643.7818007462454
F472.9721581959738
tp817
a((lp818
(g811
g814
F189.34669048573153
tp819
a(g814
S'886'
p820
F498.13109666342655
tp821
a(g820
S'1233'
p822
F203.95830291726205
tp823
a(g822
S'819'
p824
F280.1051964205321
tp825
a(g824
S'790'
p826
F424.3806271329906
tp827
aF32.09675357001002
g816
S'2012-03-02 17:43:39'
p828
I42
F1595.9219136199429
F476.59961091498855
tp829
a((lp830
(S'819'
p831
g826
F569.962998415674
tp832
a(g826
S'860'
p833
F108.13434072706384
tp834
a(g833
S'1069'
p835
F231.70867622577373
tp836
a(g835
S'970'
p837
F300.1901722143531
tp838
a(g837
S'774'
p839
F91.27978148440936
tp840
aF32.08625677152182
g828
S'2012-03-02 17:46:05'
p841
I31
F1301.2759690672738
F919.1257855649005
tp842
a((lp843
(S'970'
p844
g839
F286.05666041820285
tp845
a(g839
g507
F377.3364418971982
tp846
a(g507
S'1069'
p847
F300.1901722143531
tp848
a(g847
S'1046'
p849
F233.21024744024461
tp850
a(g849
S'1111'
p851
F224.7758530051457
tp852
a(g851
S'844'
p853
F216.35782443809995
tp854
a(g853
S'1045'
p855
F244.5134898078195
tp856
aF29.46428904867752
g841
S'2012-03-02 17:49:55'
p857
I0
F1882.4406892210638
F736.4106547435016
tp858
a((lp859
(S'844'
p860
g855
F83.45534841128121
tp861
a(g855
S'1218'
p862
F380.2508287917065
tp863
a(g862
S'1191'
p864
F264.7542280364345
tp865
a(g864
S'867'
p866
F360.6074231124015
tp867
a(g866
S'874'
p868
F434.7532817818246
tp869
aF91.42926660801889
g857
S'2012-03-02 17:50:55'
p870
I33
F1523.8211101336483
F487.54933105116885
tp871
a((lp872
(S'867'
p873
g873
F0.0
tp874
aF1.5346759012474662
g870
S'2012-03-02 17:51:06'
p875
I7
F4.6892874760339245
F4.987834775791791
tp876
a((lp877
(g873
g873
F0.0
tp878
aF6.164636937239083
g875
S'2012-03-02 17:51:34'
p879
I0
F47.9471761785262
F47.94725236858888
tp880
a((lp881
(g873
g873
F0.0
tp882
aF33.90524280893893
g879
S'2012-03-02 17:52:34'
p883
I25
F565.0873801489821
F565.2971577356865
tp884
a((lp885
(g873
g868
F309.07855732664353
tp886
a(g868
S'991'
p887
F237.07629077782101
tp888
a(g887
S'974'
p889
F91.44142288519203
tp890
aF38.255776259379395
g883
S'2012-03-02 17:53:34'
p891
I42
F637.5962709896567
F549.215185283735
tp892
a((lp893
(S'991'
p894
g889
F564.7224532274272
tp895
a(g889
S'1062'
p896
F183.41867360754313
tp897
a(g896
S'1061'
p898
F205.39994373378076
tp899
aF28.137277492192656
g891
S'2012-03-02 17:55:36'
p900
I38
F953.5410705687511
F542.864492302558
tp901
a((lp902
(S'1062'
p903
g898
F648.2992418001224
tp904
a(g898
S'1062'
p905
F442.8992981334369
tp906
a(g905
S'974'
p907
F183.41867360754313
tp908
a(g907
S'833'
p909
F480.1669052301094
tp910
a(g909
S'852'
p911
F363.99526731937345
tp912
a(g911
S'791'
p913
F425.82932077634075
tp914
aF140.93217453416824
g900
S'2012-03-02 17:56:41'
p915
I12
F2544.6087068669262
F419.7087163969091
tp916
a((lp917
(S'852'
p918
g913
F678.4123431464761
tp919
a(g913
S'852'
p920
F252.5830223782035
tp921
a(g920
S'833'
p922
F363.99526731937345
tp923
a(g922
S'974'
p924
F480.1669052301094
tp925
a(g924
g896
F183.41867360754313
tp926
a(g896
g907
F183.5184744072841
tp927
aF856.837874435596
g915
S'2012-03-02 17:56:50'
p928
I0
F2142.09468608899
F2.0937703302464246
tp929
a((lp930
(g903
g907
F0.09980079988378082
tp931
a(g907
g909
F480.1669052301094
tp932
a(g909
S'778'
p933
F579.573448966089
tp934
a(g933
S'1044'
p935
F5.671336545297575
tp936
aF36.187182731594035
g928
S'2012-03-02 17:58:36'
p937
I0
F1065.5114915413799
F594.5957557293124
tp938
a((lp939
(S'778'
p940
g935
F308.18347500331885
tp941
a(g935
S'1107'
p942
F278.424131296127
tp943
a(g942
S'791'
p944
F226.13434667854332
tp945
a(g944
S'936'
p946
F66.26350517169313
tp947
aF52.74032748898093
g937
S'2012-03-02 17:59:36'
p948
I16
F879.0054581496822
F395.8190845792642
tp949
a((lp950
(S'791'
p951
g946
F197.6457317567963
tp952
a(g946
S'791'
p953
F263.909236928096
tp954
a(g953
S'1107'
p955
F226.13434667854332
tp956
a(g955
S'1044'
p957
F278.424131296127
tp958
a(g957
S'778'
p959
F302.5121384580218
tp960
a(g959
g935
F477.7388421881345
tp961
aF114.30748978728342
g948
S'2012-03-02 18:00:31'
p962
I12
F1746.364427305719
F136.62581496932305
tp963
a((lp964
(g940
g935
F175.2267037303231
tp965
a(g935
g942
F278.424131296127
tp966
a(g942
S'852'
p967
F264.7955081021066
tp968
a(g967
g913
F199.5917129572179
tp969
aF4.320179087462469
g962
S'2012-03-02 18:13:16'
p970
I0
F918.0380560857745
F249.42386994717577
tp971
a((lp972
(g918
g913
F52.99130942129798
tp973
a(g913
g920
F49.79278828445489
tp974
aF0.775729039288701
g970
S'2012-03-02 18:21:13'
p975
I0
F102.78409770575287
F3.714554056336001
tp976
a((lp977
(g951
g920
F202.79023409404758
tp978
a(g920
S'1107'
p979
F264.7955081021066
tp980
a(g979
g967
F141.82659626088824
tp981
aF17.692616277785106
g975
S'2012-03-02 18:23:17'
p982
I0
F609.4123384570424
F297.79788591278407
tp983
a((lp984
(S'1107'
p985
g967
F406.6221043425739
tp986
a(g967
g979
F264.7955081021066
tp987
a(g979
g957
F278.424131296127
tp988
a(g957
g959
F302.5121384580218
tp989
a(g959
g935
F18.02888749242164
tp990
aF11.020187881659046
g982
S'2012-03-02 18:30:12'
p991
I0
F1270.382769691251
F7.704002984960929
tp992
a((lp993
(g940
g935
F320.5410259504337
tp994
a(g935
g942
F278.424131296127
tp995
a(g942
g967
F96.6809718165911
tp996
aF113.83300293760666
g991
S'2012-03-02 18:30:34'
p997
I0
F695.6461290631518
F37.193593818603034
tp998
a((lp999
(g985
g967
F361.4764799062679
tp1000
a(g967
g922
F369.4836056308487
tp1001
aF38.13704794106695
g997
S'2012-03-02 18:31:43'
p1002
I18
F730.9600855371166
F501.3633831947253
tp1003
a((lp1004
(g918
g922
F5.488338311580047
tp1005
a(g922
g924
F480.1669052301094
tp1006
a(g924
g896
F183.41867360754313
tp1007
a(g896
g907
F183.02583886186488
tp1008
aF65.26721535404151
g1002
S'2012-03-02 18:32:30'
p1009
I0
F852.0997560110975
F141.48652712593008
tp1010
a((lp1011
(g903
g907
F0.3928347456798126
tp1012
a(g907
g896
F183.41867360754313
tp1013
a(g896
g898
F442.8992981334369
tp1014
a(g898
S'1185'
p1015
F273.4432578554058
tp1016
aF35.223419909037354
g1009
S'2012-03-02 18:34:02'
p1017
I0
F900.1540643420657
F485.0413551000584
tp1018
a((lp1019
(S'1061'
p1020
g1015
F646.7171914328235
tp1021
a(g1015
S'1061'
p1022
F373.27393365369306
tp1023
a(g1022
g905
F158.5654849365103
tp1024
aF75.7643535014803
g1017
S'2012-03-02 18:34:58'
p1025
I0
F1178.556610023027
F116.6092004019752
tp1026
a((lp1027
(g1020
g905
F284.33381321971734
tp1028
a(g905
g898
F442.8992981334369
tp1029
a(g898
g1015
F373.27393365369306
tp1030
a(g1015
g704
F401.933419412357
tp1031
a(g704
g706
F163.77118756269687
tp1032
aF58.236523758590714
g1025
S'2012-03-02 18:36:41'
p1033
I0
F1666.211651981901
F437.6217355908394
tp1034
a((lp1035
(g711
g706
F749.0876852356142
tp1036
a(g706
S'1229'
p1037
F828.6057404004235
tp1038
a(g1037
S'895'
p1039
F249.3697768587104
tp1040
a(g1039
g505
F22.47496663040986
tp1041
aF96.49764360652999
g1033
S'2012-03-02 18:37:50'
p1042
I27
F1849.538169125158
F559.3827428120871
tp1043
a((lp1044
(S'895'
p1045
g505
F290.89603292947857
tp1046
a(g505
g507
F377.3364418971982
tp1047
a(g507
g514
F247.7378419176489
tp1048
a(g514
g516
F425.27488952302076
tp1049
aF36.579414716382175
g1042
S'2012-03-02 18:40:02'
p1050
I25
F1341.2452062673465
F866.3175672317942
tp1051
a((lp1052
(g521
g516
F617.5048255497094
tp1053
a(g516
S'989'
p1054
F690.9163383539549
tp1055
a(g1054
S'1230'
p1056
F137.02263977666283
tp1057
aF43.00493961362957
g1050
S'2012-03-02 18:42:03'
p1058
I33
F1445.4438036803272
F1170.4572986194232
tp1059
a.