(lp0
((lp1
(S'209'
p2
S'219'
p3
F20.6104794380582
tp4
a(g3
S'117'
p5
F439.0234501785394
tp6
a(g5
S'333'
p7
F375.61222176840107
tp8
aF273.3532859078178
S'2012-03-02 07:55:33'
p9
S'2012-03-02 07:55:44'
p10
I3
F835.2461513849987
F43.82007607318169
tp11
a((lp12
(S'117'
p13
g7
F202.8965850850348
tp14
a(g7
S'117'
p15
F172.715636685259
tp16
a(g15
S'219'
p17
F439.0234501785394
tp18
a(g17
S'209'
p19
F348.12509298251837
tp20
a(g19
S'69'
p21
F22.07518060308952
tp22
aF55.394927323688165
g10
S'2012-03-02 07:57:01'
p23
I29
F1184.8359455344412
F384.3658303696831
tp24
a((lp25
(g2
g21
F538.3296082227115
tp26
a(g21
S'209'
p27
F560.4047888183237
tp28
a(g27
g3
F22.39263016426492
tp29
aF252.25358112119255
g23
S'2012-03-02 07:57:17'
p30
I0
F1121.1270272053002
F45.7132501330003
tp31
a((lp32
(g2
g3
F325.7324628211271
tp33
a(g3
g5
F439.0234501785394
tp34
a(g5
g7
F172.715636685259
tp35
a(g7
g15
F238.2247330003114
tp36
aF26.45316636041783
g30
S'2012-03-02 07:59:57'
p37
I31
F1175.6962826852368
F268.79042118857075
tp38
a((lp39
(S'333'
p40
g15
F410.940369683139
tp41
a(g15
S'97'
p42
F245.61147833635133
tp43
aF84.41380903107734
g37
S'2012-03-02 08:00:25'
p44
I0
F656.5518480194903
F38.16844807176259
tp45
a((lp46
(g13
g42
F1406.488195552557
tp47
a(g42
S'372'
p48
F63.758701035611004
tp49
a(g48
S'433'
p50
F585.0976094380715
tp51
a(g50
S'270'
p52
F330.3168336032497
tp53
a(g52
S'392'
p54
F95.85961614434376
tp55
a(g54
S'1'
p56
F1075.0148639845097
tp57
a(g56
S'392'
p58
F451.52855729041386
tp59
aF120.24193131146271
g44
S'2012-03-02 08:02:25'
p60
I14
F4008.064377048757
F942.7546670281058
tp61
a((lp62
(g56
g58
F623.4863070425938
tp63
a(g58
S'431'
p64
F457.83618440901
tp65
a(g64
S'203'
p66
F369.98613606887915
tp67
a(g66
S'414'
p68
F110.55925503297553
tp69
a(g68
S'929'
p70
F303.12038890948725
tp71
a(g70
S'842'
p72
F138.91582185729666
tp73
a(g72
S'1027'
p74
F108.42347341772006
tp75
a(g74
S'887'
p76
F974.3320508593303
tp77
a(g76
S'1189'
p78
F211.8840444636607
tp79
a(g78
S'987'
p80
F541.0596802687863
tp81
a(g80
S'1073'
p82
F585.3164976896943
tp83
a(g82
S'1185'
p84
F401.933419412357
tp85
a(g84
S'777'
p86
F173.45860878765197
tp87
aF37.42437157087318
g60
S'2012-03-02 08:10:26'
p88
I38
F5000.311868219444
F4295.505756289244
tp89
a((lp90
(S'1185'
p91
g86
F292.1059232254746
tp92
a(g86
S'988'
p93
F428.69502991180303
tp94
a(g93
S'796'
p95
F37.46020309095503
tp96
a(g95
S'988'
p97
F244.53608735999435
tp98
aF50.846057421374894
g88
S'2012-03-02 08:11:37'
p99
I14
F1002.797243588227
F259.3949436075684
tp100
a((lp101
(S'796'
p102
g97
F207.07588427156767
tp103
a(g97
S'777'
p104
F428.69502991180303
tp105
a(g104
S'1185'
p106
F465.5645320107461
tp107
a(g106
g86
F493.3177193985002
tp108
aF205.02683557619363
g99
S'2012-03-02 08:12:05'
p109
I0
F1594.6531655926171
F60.69243676079481
tp110
a((lp111
(g91
g86
F27.753187388414563
tp112
a(g86
g93
F428.69502991180303
tp113
a(g93
S'937'
p114
F84.85729485795852
tp115
a(g114
S'901'
p116
F654.3387647481585
tp117
a(g116
S'1157'
p118
F329.43858562166434
tp119
a(g118
S'901'
p120
F417.8951024625835
tp121
aF33.467563033330606
g109
S'2012-03-02 08:15:34'
p122
I33
F1942.9779649905824
F757.434336235379
tp123
a((lp124
(S'1157'
p125
g120
F88.45651685733783
tp126
a(g120
S'1232'
p127
F500.4166198457959
tp128
a(g127
S'901'
p129
F191.2778529223899
tp130
aF23.40452968876571
g122
S'2012-03-02 08:17:34'
p131
I0
F780.1509896255236
F59.577134379397215
tp132
a((lp133
(S'1232'
p134
g129
F309.13876692638377
tp135
a(g129
g127
F352.9014941752144
tp136
aF132.40805222031966
g131
S'2012-03-02 08:17:52'
p137
I0
F662.0402611015982
F43.757235958916574
tp138
a((lp139
(S'901'
p140
g127
F147.51512567319526
tp141
a(g127
S'1151'
p142
F54.20776316194573
tp143
aF8.85612682690863
g137
S'2012-03-02 08:19:14'
p144
I14
F201.722888835141
F93.07325827614154
tp145
a((lp146
(g134
g142
F627.0091505044725
tp147
a(g142
S'1232'
p148
F572.8013873462398
tp149
a(g148
g129
F47.892880501097345
tp150
aF77.44366044942267
g144
S'2012-03-02 08:20:12'
p151
I18
F1247.7034183518097
F491.54391273280953
tp152
a((lp153
(g134
g129
F548.309500345474
tp154
a(g129
g127
F500.4166198457959
tp155
a(g127
S'1031'
p156
F536.64824962327
tp157
a(g156
S'824'
p158
F464.2330654185904
tp159
a(g158
S'1174'
p160
F464.01305706980884
tp161
aF335.1493989737252
g151
S'2012-03-02 08:20:39'
p162
I0
F2513.620492302939
F53.511186476067046
tp163
a((lp164
(S'824'
p165
g160
F570.9334974302159
tp166
a(g160
S'824'
p167
F106.9204403928481
tp168
a(g167
S'1031'
p169
F464.2330654185904
tp170
a(g169
S'1232'
p171
F458.31937930187837
tp172
aF24.51686373258178
g162
S'2012-03-02 08:24:34'
p173
I29
F1600.4063825435328
F458.3796936141415
tp174
a((lp175
(S'1031'
p176
g171
F78.32887034365243
tp177
a(g171
g129
F500.4166198457959
tp178
a(g129
S'937'
p179
F654.3387647481585
tp180
a(g179
S'1061'
p181
F25.067651979511535
tp182
aF20.04135780929923
g173
S'2012-03-02 08:28:20'
p183
I35
F1258.1519069171184
F1001.1103998379698
tp184
a((lp185
(S'937'
p186
g181
F905.5313855425823
tp187
a(g181
S'1185'
p188
F373.27393365369306
tp189
a(g188
g86
F465.5645320107461
tp190
a(g86
S'903'
p191
F37.97103983713366
tp192
aF108.75300352133827
g183
S'2012-03-02 08:29:19'
p193
I0
F1782.3408910441551
F15.069253226269238
tp194
a((lp195
(S'777'
p196
g191
F388.8717171871296
tp197
a(g191
S'777'
p198
F350.9006773558848
tp199
a(g198
g93
F428.69502991180303
tp200
a(g93
g114
F84.85729485795852
tp201
a(g114
S'796'
p202
F68.67640614111558
tp203
aF1189.8010129085026
g193
S'2012-03-02 08:29:23'
p204
I14
F1322.0011254538917
F16.470541311842585
tp205
a((lp206
(g186
g202
F49.04401855892262
tp207
a(g202
S'937'
p208
F117.72042469973982
tp209
a(g208
g181
F930.5990375079346
tp210
a(g181
S'1062'
p211
F4.5624906478548795
tp212
aF29.826567647308476
g204
S'2012-03-02 08:31:36'
p213
I11
F1101.9259714144519
F905.6847778851542
tp214
a((lp215
(S'1061'
p216
g211
F447.4617887803159
tp217
a(g211
S'1150'
p218
F60.636146606686204
tp219
aF30.485876123220127
g213
S'2012-03-02 08:32:36'
p220
I29
F508.0979353870021
F463.8235664265886
tp221
a((lp222
(S'1062'
p223
g218
F134.12016180344872
tp224
a(g218
S'1016'
p225
F142.71264148297908
tp226
aF4.837854814714272
g220
S'2012-03-02 08:36:02'
p227
I25
F276.8328032864278
F14.296221779810457
tp228
a((lp229
(S'1150'
p230
g225
F619.2855334993552
tp231
a(g225
S'1150'
p232
F476.5728920163904
tp233
a(g232
S'1062'
p234
F194.7563084101235
tp235
a(g234
S'974'
p236
F183.41867360754313
tp237
a(g236
S'833'
p238
F480.1669052301094
tp239
a(g238
S'1128'
p240
F304.26348633257396
tp241
a(g240
S'883'
p242
F467.4053599821452
tp243
aF163.55214954469446
g227
S'2012-03-02 08:37:02'
p244
I0
F2725.869159078241
F17.046182254674356
tp245
a((lp246
(S'1128'
p247
g247
F0.0
tp248
aF13.30313043731392
g244
S'2012-03-02 08:37:09'
p249
I7
F25.867198072554842
F26.131751907402236
tp250
a((lp251
(g247
g242
F855.0452178555566
tp252
a(g242
S'852'
p253
F329.28489559744986
tp254
a(g253
S'833'
p255
F363.99526731937345
tp256
a(g255
S'974'
p257
F480.1669052301094
tp258
a(g257
S'991'
p259
F656.1638760738123
tp260
a(g259
S'874'
p261
F237.07629077782101
tp262
a(g261
S'867'
p263
F249.25114167751158
tp264
aF115.30849434660487
g249
S'2012-03-02 08:38:48'
p265
I18
F3170.983594531634
F781.2277133556861
tp266
a((lp267
(S'874'
p268
g263
F741.3002610258725
tp269
a(g263
S'874'
p270
F492.04911934836207
tp271
a(g270
S'991'
p272
F237.07629077782101
tp273
a(g272
S'814'
p274
F3.6152259268355618
tp275
aF212.26188917936034
g265
S'2012-03-02 08:39:13'
p276
I0
F1474.0408970788912
F50.76692091114989
tp277
a((lp278
(S'991'
p279
g274
F598.1669372536695
tp280
a(g274
S'792'
p281
F350.26427291339104
tp282
a(g281
S'1186'
p283
F5.495971060937668
tp284
aF57.235630873679895
g276
S'2012-03-02 08:40:13'
p285
I29
F953.9271812279982
F551.6998474712026
tp286
a((lp287
(S'792'
p288
g283
F439.10814139612916
tp289
a(g283
S'792'
p290
F433.61217033519375
tp291
a(g290
S'814'
p292
F396.1898709226322
tp293
aF2284.038328777119
g285
S'2012-03-02 08:40:15'
p294
I0
F1268.9101826539552
F0.745006008069149
tp295
a((lp296
(g288
g292
F45.925598016500246
tp297
a(g292
g281
F350.26427291339104
tp298
a(g281
S'1162'
p299
F257.88588536039003
tp300
aF31.819901657365037
g294
S'2012-03-02 08:41:29'
p301
I0
F654.0757562902813
F297.401571319267
tp302
a((lp303
(g288
g299
F135.6416425685471
tp304
a(g299
S'792'
p305
F393.5275279288238
tp306
a(g305
g292
F350.26427291339104
tp307
a(g292
S'994'
p308
F399.96346069853166
tp309
aF109.6625917807966
g301
S'2012-03-02 08:42:11'
p310
I0
F1279.3969041092937
F89.80009753338054
tp311
a((lp312
(S'814'
p313
g308
F24.601061376805585
tp314
a(g308
S'963'
p315
F521.73314507341
tp316
a(g315
S'994'
p317
F112.19196837046782
tp318
aF17.30433744054351
g310
S'2012-03-02 08:44:28'
p319
I35
F658.5261748206834
F631.5904605914751
tp320
a((lp321
(S'963'
p322
g322
F0.0
tp323
aF4.616778245347756
g319
S'2012-03-02 08:44:56'
p324
I1
F35.908275241593664
F35.86951121343008
tp325
a((lp326
(g322
g317
F598.0168381910701
tp327
a(g317
g315
F521.73314507341
tp328
a(g315
S'778'
p329
F253.4943865368846
tp330
aF82.39466218808188
g324
S'2012-03-02 08:45:56'
p331
I22
F1373.2443698013647
F332.9535719590746
tp332
a((lp333
(g322
g322
F0.0
tp334
aF12.14731061837507
g331
S'2012-03-02 08:46:17'
p335
I38
F70.85931194052124
F82.51781908710254
tp336
a((lp337
(g322
g322
F0.0
tp338
aF2.619162793374151
g335
S'2012-03-02 08:47:21'
p339
I0
F46.562894104429354
F49.850464393228584
tp340
a((lp341
(g322
g329
F649.9374300596038
tp342
a(g329
S'1044'
p343
F302.5121384580218
tp344
a(g343
S'1107'
p345
F278.424131296127
tp346
a(g345
S'791'
p347
F226.13434667854332
tp348
a(g347
S'936'
p349
F263.909236928096
tp350
a(g349
S'873'
p351
F117.95681148015007
tp352
a(g351
S'1154'
p353
F163.86037346303635
tp354
aF120.16406810181469
g339
S'2012-03-02 08:48:21'
p355
I24
F2002.7344683635783
F976.4925625020662
tp356
a((lp357
(S'873'
p358
g353
F495.80382463879937
tp359
a(g353
S'967'
p360
F633.0663908294133
tp361
a(g360
S'1127'
p362
F190.65766483400054
tp363
a(g362
S'988'
p364
F152.49726409143645
tp365
a(g364
g104
F428.69502991180303
tp366
a(g104
g106
F465.5645320107461
tp367
a(g106
S'1073'
p368
F401.933419412357
tp369
a(g368
S'987'
p370
F261.76698573650094
tp371
aF60.59970222930114
g355
S'2012-03-02 08:51:21'
p372
I62
F3029.9851114650564
F1966.20498919923
tp373
a((lp374
(S'1073'
p375
g370
F847.0834833958738
tp376
a(g370
S'1189'
p377
F541.0596802687863
tp378
a(g377
S'887'
p379
F211.8840444636607
tp380
a(g379
S'1027'
p381
F316.9084583887822
tp382
aF58.482783046284496
g372
S'2012-03-02 08:53:19'
p383
I51
F1916.935666517103
F1915.2957085416772
tp384
a((lp385
(S'887'
p386
g381
F657.4235925069389
tp387
a(g381
S'842'
p388
F108.42347341772006
tp389
a(g388
S'929'
p390
F138.91582185729666
tp391
a(g390
S'414'
p392
F303.12038890948725
tp393
a(g392
S'203'
p394
F110.55925503297553
tp395
a(g394
S'431'
p396
F341.2055871098534
tp397
aF32.82820454837022
g383
S'2012-03-02 08:56:21'
p398
I53
F1659.648118834272
F1644.7873192464276
tp399
a((lp400
(S'203'
p401
g396
F28.780548962844666
tp402
a(g396
S'392'
p403
F457.83618440901
tp404
a(g403
S'270'
p405
F95.85961614434376
tp406
a(g405
S'433'
p407
F330.3168336032497
tp408
a(g407
S'372'
p409
F177.59458181876477
tp410
aF65.42326589629278
g398
S'2012-03-02 08:57:21'
p411
I38
F1090.387764938213
F712.630066501845
tp412
a((lp413
(S'433'
p414
g409
F762.6921912408262
tp415
a(g409
S'97'
p416
F63.758701035611004
tp417
a(g416
S'413'
p418
F1079.6824743926077
tp419
a(g418
S'182'
p420
F219.57714916914225
tp421
aF63.24427981006176
g411
S'2012-03-02 08:59:22'
p422
I50
F2125.710515838187
F1620.6774022744762
tp423
a((lp424
(S'413'
p425
g420
F721.257670267874
tp426
a(g420
S'413'
p427
F501.6805211022033
tp428
a(g427
S'97'
p429
F1079.6824743926077
tp430
a(g429
g48
F63.758701035611004
tp431
a(g48
g50
F585.0976094380715
tp432
a(g50
g52
F330.3168336032497
tp433
a(g52
g54
F95.85961614434376
tp434
a(g54
g64
F457.83618440901
tp435
a(g64
S'140'
p436
F334.7646258643055
tp437
a(g436
S'263'
p438
F435.87853113202175
tp439
a(g438
S'1115'
p440
F472.4206568274532
tp441
a(g440
S'989'
p442
F1111.3964106739522
tp443
a(g442
S'1036'
p444
F786.7860140536283
tp445
a(g444
S'1151'
p446
F499.30418929770127
tp447
a(g446
g148
F572.8013873462398
tp448
a(g148
g129
F500.4166198457959
tp449
a(g129
g118
F329.43858562166434
tp450
a(g118
S'1099'
p451
F10.623947141242395
tp452
a(g451
S'1157'
p453
F136.78510413474538
tp454
aF2.2317294269501513
g422
S'2012-03-02 13:02:02'
p455
I53
F9026.105682331721
F6762.1099795992795
tp456
a((lp457
(S'1099'
p458
g453
F126.1611569935033
tp459
a(g453
g120
F329.43858562166434
tp460
a(g120
g179
F98.35437019468982
tp461
aF13.945697944863547
g455
S'2012-03-02 13:04:25'
p462
I53
F553.9541128098575
F573.3588036839266
tp463
a((lp464
(g140
g179
F752.6931348868086
tp465
a(g179
g116
F654.3387647481585
tp466
a(g116
g127
F500.4166198457959
tp467
a(g127
g142
F572.8013873462398
tp468
a(g142
g148
F61.18747603182658
tp469
aF102.79971436282904
g462
S'2012-03-02 13:05:54'
p470
I0
F2541.437382858829
F565.3817749421628
tp471
a((lp472
(S'1151'
p473
g148
F511.61391131772126
tp474
a(g148
g142
F572.8013873462398
tp475
a(g142
S'1036'
p476
F499.30418929770127
tp477
a(g476
S'989'
p478
F15.835197224712907
tp479
aF78.88214885850617
g470
S'2012-03-02 13:07:07'
p480
I0
F1599.554685186375
F577.8921806756069
tp481
a.