(lp0
((lp1
(S'392'
p2
S'1'
p3
F977.5806208243331
tp4
a(g3
S'190'
p5
F133.23962227802784
tp6
a(g5
S'200'
p7
F65.9676834156334
tp8
a(g7
S'35'
p9
F217.97233754558434
tp10
aF43.66206044025116
S'2012-03-02 15:51:38'
p11
S'2012-03-02 15:53:33'
p12
I74
F1394.7602640635787
F1033.463107658836
tp13
a((lp14
(S'200'
p15
g9
F992.7590764375229
tp16
a(g9
S'200'
p17
F774.7867391124779
tp18
a(g17
S'190'
p19
F65.9676834156334
tp20
a(g19
g7
F320.8891481487526
tp21
aF103.41132706149058
g12
S'2012-03-02 15:54:48'
p22
I0
F2154.402647114387
F68.4864775751681
tp23
a((lp24
(S'190'
p25
g7
F254.9214647347169
tp26
a(g7
g19
F65.9676834156334
tp27
a(g19
g3
F133.23962227802784
tp28
a(g3
S'371'
p29
F725.2487623614271
tp30
a(g29
S'414'
p31
F739.6760747221767
tp32
a(g31
S'929'
p33
F303.12038890948725
tp34
a(g33
S'842'
p35
F138.91582185729666
tp36
a(g35
S'1027'
p37
F108.42347341772006
tp38
a(g37
S'842'
p39
F117.22832759314758
tp40
aF40.13909409242535
g22
S'2012-03-02 15:58:40'
p41
I27
F2586.7416192896335
F1176.0880612320968
tp42
a((lp43
(S'1027'
p44
g44
F0.0
tp45
aF0.2826806251084345
g41
S'2012-03-02 15:59:04'
p46
I0
F1.8845375007228966
F1.9196962417978525
tp47
a((lp48
(g44
g39
F227.53633850883833
tp49
a(g39
S'929'
p50
F138.91582185729666
tp51
a(g50
S'414'
p52
F289.8235017482095
tp53
aF35.262572889725966
g46
S'2012-03-02 16:00:11'
p54
I0
F656.2756621143444
F70.2565474864182
tp55
a((lp56
(S'929'
p57
g52
F592.9438906385989
tp58
a(g52
S'203'
p59
F110.55925503297553
tp60
a(g59
S'431'
p61
F369.98613606887915
tp62
a(g61
S'140'
p63
F47.55205642626052
tp64
aF33.63124014500142
g54
S'2012-03-02 16:02:11'
p65
I27
F1121.041338166714
F669.6146546732491
tp66
a((lp67
(S'431'
p68
g63
F287.2125694434245
tp69
a(g63
S'263'
p70
F435.87853113202175
tp71
a(g70
S'1115'
p72
F472.4206568274532
tp73
a(g72
S'989'
p74
F1111.3964106739522
tp75
a(g74
S'1036'
p76
F284.6590712453489
tp77
aF0.6562314174270186
g65
S'2012-03-02 19:59:08'
p78
I37
F2591.5672393222007
F1342.0373968297372
tp79
a.