(lp0
((lp1
(S'901'
p2
S'937'
p3
F802.0033622653078
tp4
a(g3
S'901'
p5
F654.3387647481585
tp6
a(g5
S'1232'
p7
F500.4166198457959
tp8
a(g7
S'1151'
p9
F572.8013873462398
tp10
a(g9
S'1036'
p11
F475.56055341579827
tp12
aF54.36399233887779
S'2012-03-02 09:04:17'
p13
S'2012-03-02 09:07:36'
p14
I0
F3005.1206876213
F1071.1447171983164
tp15
a((lp16
(S'1151'
p17
g11
F23.743635882354074
tp18
a(g11
S'1151'
p19
F499.30418929770127
tp20
a(g19
S'1232'
p21
F572.8013873462398
tp22
a(g21
S'901'
p23
F500.4166198457959
tp24
a(g23
g3
F654.3387647481585
tp25
a(g3
S'988'
p26
F84.85729485795852
tp27
a(g26
S'1127'
p28
F152.49726409143645
tp29
a(g28
S'967'
p30
F190.65766483400054
tp31
a(g30
S'900'
p32
F217.51739317672622
tp33
a(g32
S'1101'
p34
F1058.824251630271
tp35
a(g34
S'996'
p36
F143.35535905633128
tp37
aF2.0531491468356675
g14
S'2012-03-02 11:07:22'
p38
I27
F4098.313824766974
F3146.4555485701358
tp39
a((lp40
(S'1101'
p41
g36
F1431.7970144696249
tp42
a(g36
S'1101'
p43
F1288.4416554530242
tp44
a(g43
S'900'
p45
F1058.824251630271
tp46
a(g45
S'809'
p47
F674.794246559625
tp48
a(g47
S'1114'
p49
F639.1126192225747
tp50
a(g49
S'993'
p51
F865.1525280555261
tp52
a(g51
S'843'
p53
F82.9146859963311
tp54
aF286.15438427622524
g38
S'2012-03-02 11:08:38'
p55
I87
F6041.037001386977
F653.0408133329701
tp56
a((lp57
(S'993'
p58
g58
F0.0
tp59
aF9.825220742842658
g55
S'2012-03-02 11:08:52'
p60
I0
F38.20919177772145
F38.261539519861394
tp61
a((lp62
(g58
g53
F343.249017357897
tp63
a(g53
S'993'
p64
F298.54352314033923
tp65
a(g64
S'1114'
p66
F865.1525280555261
tp67
a(g66
S'809'
p68
F639.1126192225747
tp69
a(g68
S'900'
p70
F674.794246559625
tp71
a(g70
S'967'
p72
F217.51739317672622
tp73
a(g72
S'1154'
p74
F633.0663908294133
tp75
a(g74
S'1010'
p76
F507.7471347885134
tp77
a(g76
S'827'
p78
F266.8104465605856
tp79
a(g78
S'1041'
p80
F689.5118116434894
tp81
a(g80
S'847'
p82
F222.79190026367465
tp83
aF135.8441495898177
g60
S'2012-03-02 11:11:14'
p84
I9
F5358.297011598364
F767.1221913550806
tp85
a((lp86
(S'1041'
p87
g82
F469.95976634933555
tp88
a(g82
S'1041'
p89
F692.7516666069633
tp90
a(g89
S'827'
p91
F689.5118116434894
tp92
a(g91
S'1010'
p93
F266.8104465605856
tp94
a(g93
S'1154'
p95
F507.7471347885134
tp96
a(g95
S'967'
p97
F633.0663908294133
tp98
a(g97
g32
F217.51739317672622
tp99
a(g32
g47
F674.794246559625
tp100
a(g47
g49
F639.1126192225747
tp101
a(g49
g68
F285.1787036821651
tp102
aF149.79689054024436
g84
S'2012-03-02 11:13:16'
p103
I27
F5076.450179419392
F957.4119149614012
tp104
a((lp105
(S'1114'
p106
g68
F924.2913228901608
tp107
a(g68
g70
F674.794246559625
tp108
a(g70
S'1082'
p109
F405.2662958943754
tp110
a(g109
S'796'
p111
F292.2734627545349
tp112
aF137.79751968592174
g103
S'2012-03-02 11:14:16'
p113
I48
F2296.6253280986957
F1211.6245370994138
tp114
a((lp115
(S'1082'
p116
g111
F429.55852122344464
tp117
a(g111
S'988'
p118
F37.46020309095503
tp119
a(g118
S'777'
p120
F428.69502991180303
tp121
a(g120
S'903'
p122
F350.9006773558848
tp123
a(g122
S'1158'
p124
F3486.0167626901602
tp125
a(g124
S'371'
p126
F343.4160234801613
tp127
a(g126
S'323'
p128
F502.52151206068487
tp129
a(g128
S'195'
p130
F899.3736486026992
tp131
a(g130
S'160'
p132
F1654.504702992569
tp133
a(g132
S'348'
p134
F749.9190888032648
tp135
a(g134
S'40'
p136
F401.59962843252373
tp137
a(g136
S'400'
p138
F175.03635260490466
tp139
a(g138
S'359'
p140
F368.9484986175782
tp141
a(g140
S'220'
p142
F423.40012907983873
tp143
a(g142
S'196'
p144
F109.94529171904924
tp145
aF5.813694802742499
g113
S'2012-03-02 13:01:12'
p146
I79
F10361.296070665521
F6777.8552002480665
tp147
a((lp148
(S'220'
p149
g144
F721.7013738831445
tp150
a(g144
S'328'
p151
F208.72880849237106
tp152
a(g151
S'62'
p153
F304.77298423724176
tp154
a(g153
S'79'
p155
F287.805502886501
tp156
aF91.3805201699555
g146
S'2012-03-02 13:02:12'
p157
I72
F1523.0086694992583
F1523.0447380842436
tp158
a((lp159
(S'62'
p160
g155
F478.63400508976434
tp161
a(g155
S'206'
p162
F340.8639244928786
tp163
a(g162
S'160'
p164
F2977.933896935319
tp165
a(g164
S'195'
p166
F1654.504702992569
tp167
a(g166
S'323'
p168
F899.3736486026992
tp169
a(g168
S'371'
p170
F502.52151206068487
tp171
a(g170
S'1158'
p172
F343.4160234801613
tp173
a(g172
S'233'
p174
F505.9919712639641
tp175
a(g174
S'324'
p176
F522.2079091612247
tp177
a(g176
S'12'
p178
F348.33486400960794
tp179
a(g178
S'307'
p180
F336.87317808984017
tp181
a(g180
S'101'
p182
F516.3741780275716
tp183
a(g182
S'231'
p184
F2128.2368240663845
tp185
a(g184
S'37'
p186
F1230.1532257749107
tp187
a(g186
S'406'
p188
F709.895434390015
tp189
a(g188
S'463'
p190
F164.31520088737352
tp191
aF819.5778299594982
g157
S'2012-03-02 13:03:12'
p192
I75
F13659.630499324969
F868.9395534714903
tp193
a((lp194
(S'406'
p195
g195
F0.0
tp196
aF11.257228796632214
g192
S'2012-03-02 13:04:01'
p197
I55
F153.2233919541607
F153.31109477917047
tp198
a((lp199
(g195
g190
F534.2324096107839
tp200
a(g190
S'1303'
p201
F32.37625698277041
tp202
aF47.43700464504175
g197
S'2012-03-02 13:04:44'
p203
I37
F566.6086665935543
F502.42406896897194
tp204
a((lp205
(S'463'
p206
g201
F949.1216939266984
tp207
a(g201
S'1284'
p208
F393.0490934460226
tp209
a(g208
S'1382'
p210
F26.73313509558637
tp211
aF28.160309262205182
g203
S'2012-03-02 13:07:39'
p212
I0
F1368.9039224683074
F1312.3392261727051
tp213
a((lp214
(S'1284'
p215
g210
F296.26094863331497
tp216
a(g210
S'1384'
p217
F446.6556103196644
tp218
a(g217
S'1336'
p219
F270.0346910770018
tp220
a(g219
S'1268'
p221
F146.6122367301577
tp222
aF69.57380920560834
g212
S'2012-03-02 13:08:39'
p223
I29
F1159.5634867601389
F745.4105276653545
tp224
a((lp225
(S'1336'
p226
g221
F302.03783993241706
tp227
a(g221
S'1336'
p228
F155.42560320927745
tp229
a(g228
S'1384'
p230
F270.0346910770018
tp231
a(g230
g219
F16.35358088090275
tp232
aF205.98970571988897
g223
S'2012-03-02 13:08:52'
p233
I1
F743.8517150995991
F5.954138393452538
tp234
a((lp235
(S'1384'
p236
g219
F253.68111019754963
tp237
a(g219
g230
F270.0346910770018
tp238
a(g230
S'1382'
p239
F58.0427692589389
tp240
aF72.2183053076057
g233
S'2012-03-02 13:09:21'
p241
I0
F581.7585705334903
F128.38288019835113
tp242
a((lp243
(g236
g239
F504.69837957383413
tp244
a(g239
S'1264'
p245
F491.1492433133898
tp246
a(g245
S'1344'
p247
F368.4326560017038
tp248
a(g247
S'1240'
p249
F281.08875341763786
tp250
a(g249
S'1310'
p251
F388.8414992769568
tp252
a(g251
S'1389'
p253
F483.0612227966382
tp254
aF192.81230459082082
g241
S'2012-03-02 13:10:08'
p255
I0
F2517.2717543801605
F58.7906567568693
tp256
a((lp257
(S'1310'
p258
g253
F802.0852602463625
tp259
a(g253
S'1282'
p260
F262.3624076285935
tp261
a(g260
S'1389'
p262
F30.655866596441783
tp263
aF44.79969004655719
g255
S'2012-03-02 13:11:36'
p264
I31
F1095.1035344713978
F759.0144554918007
tp265
a((lp266
(S'1282'
p267
g262
F293.0182742250348
tp268
a(g262
S'1396'
p269
F373.4406550585352
tp270
aF27.264228925236957
g264
S'2012-03-02 13:13:04'
p271
I0
F666.45892928357
F412.78981694315644
tp272
a((lp273
(S'1389'
p274
g269
F295.1004100824018
tp275
a(g269
S'1389'
p276
F668.5410650565225
tp277
a(g276
S'1310'
p278
F296.6270378935005
tp279
aF378.0805539097275
g271
S'2012-03-02 13:13:16'
p280
I0
F1260.2685130324248
F55.068530447340564
tp281
a((lp282
(g274
g278
F615.6510754200712
tp283
a(g278
g253
F319.02403759519916
tp284
a(g253
S'1330'
p285
F389.4707510404453
tp286
a(g285
S'1345'
p287
F370.4300657050107
tp288
aF101.67455578564359
g280
S'2012-03-02 13:14:16'
p289
I33
F1694.5759297607265
F420.00048891485216
tp290
a((lp291
(S'1330'
p292
g287
F595.807795868985
tp293
a(g287
S'99'
p294
F384.78659929766803
tp295
a(g294
S'451'
p296
F228.87965033216162
tp297
aF37.21458601534815
g289
S'2012-03-02 13:16:13'
p298
I44
F1209.4740454988146
F1179.827178211327
tp299
a((lp300
(S'99'
p301
g296
F405.7669041768106
tp302
a(g296
S'268'
p303
F230.77345257950506
tp304
a(g303
S'128'
p305
F711.8157605305048
tp306
a(g305
S'172'
p307
F7.168571176554891
tp308
aF54.220987538535006
g298
S'2012-03-02 13:17:43'
p309
I72
F1355.5246884633752
F769.7704341891388
tp310
a((lp311
(S'128'
p312
g307
F666.7212206414872
tp313
a(g307
S'128'
p314
F673.8897918142452
tp315
a(g314
S'463'
p316
F3.2560136461253535
tp317
aF219.90551336212218
g309
S'2012-03-02 13:18:05'
p318
I0
F1343.8670261018578
F44.44354458429097
tp319
a((lp320
(g312
g316
F576.284663856018
tp321
a(g316
S'406'
p322
F36.2676627660075
tp323
aF38.687515365601605
g318
S'2012-03-02 13:19:02'
p324
I24
F612.5523266220255
F560.6408567858463
tp325
a((lp326
(g206
g322
F486.87293791213165
tp327
a(g322
S'37'
p328
F709.895434390015
tp329
a(g328
S'231'
p330
F1230.1532257749107
tp331
a(g330
S'101'
p332
F2128.2368240663845
tp333
a(g332
S'307'
p334
F516.3741780275716
tp335
a(g334
S'12'
p336
F336.87317808984017
tp337
a(g336
S'324'
p338
F348.33486400960794
tp339
a(g338
S'233'
p340
F522.2079091612247
tp341
a(g340
S'1158'
p342
F505.9919712639641
tp343
a(g342
g126
F343.4160234801613
tp344
a(g126
S'1'
p345
F725.2487623614271
tp346
a(g345
S'392'
p347
F303.4379598438591
tp348
aF81.57043268381098
g324
S'2012-03-02 13:25:02'
p349
I35
F8157.043268381098
F6748.383541931385
tp350
a((lp351
(g345
g347
F771.5769044304748
tp352
a(g347
S'270'
p353
F95.85961614434376
tp354
a(g353
S'433'
p355
F330.3168336032497
tp356
a(g355
S'372'
p357
F585.0976094380715
tp358
a(g357
S'97'
p359
F63.758701035611004
tp360
a(g359
S'413'
p361
F1079.6824743926077
tp362
a(g361
S'182'
p363
F27.2170238119225
tp364
aF88.60527488568843
g349
S'2012-03-02 13:27:02'
p365
I85
F2953.509162856281
F2071.053365976622
tp366
a((lp367
(S'413'
p368
g363
F474.463497290565
tp369
a(g363
S'58'
p370
F1050.0893319780932
tp371
a(g370
S'86'
p372
F905.5130865393613
tp373
a(g372
S'331'
p374
F697.8413564130648
tp375
a(g374
S'70'
p376
F250.6396728341363
tp377
a(g376
S'418'
p378
F4.176692520932413
tp379
aF9.726681386001719
g365
S'2012-03-02 13:47:54'
p380
I112
F3382.723637576153
F2535.0759036295876
tp381
a((lp382
(S'70'
p383
g378
F870.2367513672976
tp384
a(g378
S'287'
p385
F243.4398090468085
tp386
a(g385
S'331'
p387
F864.5492883262554
tp388
a(g387
S'86'
p389
F697.8413564130648
tp390
a(g389
S'132'
p391
F84.35136288995605
tp392
aF129.0585304539763
g380
S'2012-03-02 13:49:11'
p393
I0
F2760.418568043382
F771.6987568807656
tp394
a((lp395
(S'86'
p396
g396
F0.0
tp397
aF0.8186454932007634
g393
S'2012-03-02 14:23:33'
p398
I31
F468.90194638332616
F468.983129286078
tp399
a((lp400
(g396
g391
F792.7181581599978
tp401
a(g391
S'86'
p402
F408.1675747931264
tp403
a(g402
g374
F697.8413564130648
tp404
a(g374
g376
F84.18080311484812
tp405
aF118.97447354886222
g398
S'2012-03-02 14:24:33'
p406
I55
F1982.907892481037
F738.1352722673867
tp407
a((lp408
(S'331'
p409
g376
F334.82047594871005
tp410
a(g376
S'331'
p411
F250.6396728341363
tp412
a(g411
g389
F697.8413564130648
tp413
a(g389
S'58'
p414
F905.5130865393613
tp415
a(g414
S'182'
p416
F1050.0893319780932
tp417
a(g416
S'413'
p418
F501.6805211022033
tp419
a(g418
S'97'
p420
F1079.6824743926077
tp421
a(g420
S'372'
p422
F63.758701035611004
tp423
a(g422
S'433'
p424
F585.0976094380715
tp425
a(g424
S'270'
p426
F330.3168336032497
tp427
a(g426
S'392'
p428
F95.85961614434376
tp429
a(g428
S'431'
p430
F457.83618440901
tp431
a(g430
S'203'
p432
F369.98613606887915
tp433
a(g432
S'414'
p434
F110.55925503297553
tp435
a(g434
S'929'
p436
F303.12038890948725
tp437
a(g436
S'842'
p438
F138.91582185729666
tp439
a(g438
S'1027'
p440
F108.42347341772006
tp441
a(g440
S'887'
p442
F212.38992157543206
tp443
aF6.701178901867412
g406
S'2012-03-02 15:32:34'
p444
I53
F7596.530860700253
F5584.2829531210355
tp445
a((lp446
(S'1027'
p447
g442
F1186.7219723908163
tp448
a(g442
S'1189'
p449
F211.8840444636607
tp450
a(g449
S'987'
p451
F34.49369278437914
tp452
aF85.98598257833137
g444
S'2012-03-02 15:33:34'
p453
I66
F1433.0997096388562
F1361.0426143339457
tp454
a((lp455
(S'1189'
p456
g451
F575.5533730505713
tp457
a(g451
S'1073'
p458
F585.3164976896943
tp459
a(g458
S'1185'
p460
F401.933419412357
tp461
a(g460
S'777'
p462
F251.5271067977194
tp463
aF108.85982381702053
g453
S'2012-03-02 15:34:34'
p464
I87
F1814.330396950342
F1311.7334153641905
tp465
a((lp466
(S'1185'
p467
g462
F717.0916387999293
tp468
a(g462
S'988'
p469
F428.69502991180303
tp470
a(g469
g28
F152.49726409143645
tp471
a(g28
g30
F190.65766483400054
tp472
a(g30
g32
F217.51739317672622
tp473
a(g32
g47
F258.3227284005979
tp474
aF58.94345157643481
g464
S'2012-03-02 15:36:34'
p475
I70
F1964.7817192144935
F1848.8873402608147
tp476
a((lp477
(S'900'
p478
g47
F416.47151825115395
tp479
a(g47
S'1157'
p480
F755.0004704445299
tp481
a(g480
S'1075'
p482
F42.87757714138974
tp483
a(g482
S'1159'
p484
F653.229543764915
tp485
a(g484
S'763'
p486
F12.65872730361995
tp487
a(g486
S'793'
p488
F807.7571788598872
tp489
a(g488
S'893'
p490
F419.2134389543438
tp491
aF186.4325072831904
g475
S'2012-03-02 15:37:34'
p492
I46
F3107.20845471984
F887.7759154155071
tp493
a((lp494
(S'793'
p495
g490
F1516.3394370410324
tp496
a(g490
S'1117'
p497
F788.6003380783807
tp498
a(g497
S'1223'
p499
F9.445100254229827
tp500
a(g499
S'851'
p501
F332.6593684405945
tp502
a(g501
S'1022'
p503
F9.466048592386668
tp504
a(g503
S'764'
p505
F270.94464723307203
tp506
a(g505
S'1201'
p507
F389.69055138120564
tp508
a(g507
S'841'
p509
F404.0116437305662
tp510
a(g509
S'1026'
p511
F626.7879620953058
tp512
a(g511
S'828'
p513
F38.614359926515476
tp514
a(g513
S'910'
p515
F133.26943002905048
tp516
a(g515
S'1055'
p517
F86.53522993240091
tp518
a(g517
S'1134'
p519
F108.10349436699097
tp520
a(g519
S'1035'
p521
F205.6372669879012
tp522
a(g521
S'761'
p523
F250.99979661307464
tp524
a(g523
S'1156'
p525
F230.5019342328771
tp526
a(g525
S'1043'
p527
F231.04496056614346
tp528
a(g527
S'966'
p529
F32.97473740487848
tp530
a(g529
S'812'
p531
F46.97816078752045
tp532
a(g531
S'1230'
p533
F352.49757753977093
tp534
a(g533
S'989'
p535
F396.62742466432553
tp536
a(g535
S'1115'
p537
F1111.3964106739522
tp538
a(g537
S'842'
p539
F509.6129296096181
tp540
a(g539
S'929'
p541
F138.91582185729666
tp542
a(g541
S'414'
p543
F303.12038890948725
tp544
a(g543
S'371'
p545
F739.6760747221767
tp546
a(g545
g345
F725.2487623614271
tp547
a(g345
S'333'
p548
F975.8745201557714
tp549
a(g548
S'117'
p550
F172.715636685259
tp551
a(g550
S'132'
p552
F2691.837296797234
tp553
a(g552
S'117'
p554
F363.24314060582515
tp555
aF7.394520061967379
g492
S'2012-03-02 17:32:44'
p556
I51
F14193.370452276273
F9290.161628154403
tp557
a((lp558
(S'132'
p559
g554
F2328.5941562372727
tp560
a(g554
S'333'
p561
F172.715636685259
tp562
a(g561
g345
F975.8745201557714
tp563
a(g345
S'371'
p564
F725.2487623614271
tp565
a(g564
S'414'
p566
F739.6760747221767
tp567
a(g566
g436
F303.12038890948725
tp568
a(g436
g438
F138.91582185729666
tp569
a(g438
g440
F108.42347341772006
tp570
a(g440
g442
F974.3320508593303
tp571
a(g442
S'820'
p572
F124.6336513273707
tp573
aF3.53275633936567
g556
S'2012-03-02 19:24:41'
p574
I68
F6591.534536533112
F5895.52499377108
tp575
a((lp576
(S'887'
p577
g572
F1167.4133659027257
tp578
a(g572
S'887'
p579
F1042.7797147525323
tp580
a(g579
g449
F211.8840444636607
tp581
a(g449
g451
F541.0596802687863
tp582
a(g451
g458
F110.13741672828665
tp583
aF184.3964533269595
g574
S'2012-03-02 19:25:41'
p584
I61
F3073.2742221159915
F842.963016860862
tp585
a((lp586
(S'987'
p587
g458
F475.17908096856206
tp588
a(g458
g460
F401.933419412357
tp589
a(g460
g462
F465.5645320107461
tp590
a(g462
g122
F350.9006773558848
tp591
a(g122
S'1032'
p592
F30.39313628279756
tp593
aF103.43825076182087
g584
S'2012-03-02 19:26:41'
p594
I83
F1723.9708460303477
F1342.6583488188328
tp595
a((lp596
(S'903'
p597
g592
F535.8554770419781
tp598
a(g592
S'796'
p599
F361.8967412680692
tp600
a(g599
S'1082'
p601
F137.28505847111882
tp602
a(g601
S'900'
p603
F405.2662958943754
tp604
a(g603
g34
F182.6050851866105
tp605
aF97.37451947172913
g594
S'2012-03-02 19:27:41'
p606
I87
F1622.908657862152
F1161.443703823645
tp607
a((lp608
(g478
g34
F876.2191664594607
tp609
a(g34
g45
F1058.824251630271
tp610
a(g45
g72
F217.51739317672622
tp611
a(g72
g74
F633.0663908294133
tp612
a(g74
S'873'
p613
F220.61122342226597
tp614
aF180.37430553108825
g606
S'2012-03-02 19:28:41'
p615
I61
F3006.2384255181373
F410.7093445828212
tp616
a((lp617
(S'1154'
p618
g613
F880.2754213135441
tp619
a(g613
S'1292'
p620
F5581.023855259741
tp621
a(g620
S'1325'
p622
F492.46342613672925
tp623
aF83.44515243252017
g615
S'2012-03-02 19:33:41'
p624
I75
F6953.762702710014
F6456.2197766685895
tp625
a((lp626
(S'1292'
p627
g622
F32.66850187621953
tp628
a(g622
S'1235'
p629
F778.5383805800125
tp630
a(g629
S'1288'
p631
F12.597789093116122
tp632
aF37.54046604528675
g624
S'2012-03-02 19:35:00'
p633
I55
F823.8046715493482
F759.5060857072907
tp634
a.