(lp0
((lp1
(S'393'
p2
S'203'
p3
F59.2784639733709
tp4
a(g3
S'393'
p5
F61.692071460051
tp6
aF3.629116063002657
S'2012-03-02 07:01:33'
p7
S'2012-03-02 07:03:33'
p8
I0
F120.9705354334219
F3.3228602437529524
tp9
a((lp10
(S'203'
p11
g5
F65.1494401560453
tp12
a(g5
S'414'
p13
F82.01156142123234
tp14
a(g13
S'203'
p15
F212.26128169770024
tp16
aF21.565336996498672
g8
S'2012-03-02 07:04:33'
p17
I0
F359.4222832749779
F8.524256720233781
tp18
a((lp19
(S'414'
p20
g15
F101.70202666562555
tp21
a(g15
g5
F126.8415116158981
tp22
a(g5
g3
F61.23498081654159
tp23
aF5.795570381961304
g17
S'2012-03-02 07:07:33'
p24
I0
F289.7785190980652
F10.169827452012857
tp25
a((lp26
(g2
g3
F65.60653079955459
tp27
a(g3
g5
F126.8415116158981
tp28
a(g5
S'263'
p29
F445.7984204400668
tp30
a(g29
S'1115'
p31
F99.55158672069923
tp32
aF14.755960991524374
g24
S'2012-03-02 07:10:33'
p33
I0
F737.7980495762187
F1.3015304215414172
tp34
a((lp35
(S'263'
p36
g31
F571.9722435414411
tp37
a(g31
S'263'
p38
F472.4206568274532
tp39
a(g38
S'140'
p40
F435.87853113202175
tp41
a(g40
S'273'
p42
F400.30026269019606
tp43
aF22.4918873723854
g33
S'2012-03-02 07:15:34'
p44
I0
F1880.5716941911123
F13.439777769538447
tp45
a((lp46
(S'140'
p47
g42
F1286.9859597290542
tp48
a(g42
S'140'
p49
F886.6856976038888
tp50
a(g49
S'263'
p51
F435.87853113202175
tp52
a(g51
g31
F100.46200813222828
tp53
aF162.6007317958316
g44
S'2012-03-02 07:16:34'
p54
I0
F2710.012196597193
F11.938727968640334
tp55
a((lp56
(g36
g31
F572.8826649528979
tp57
a(g31
g38
F472.4206568274532
tp58
a(g38
g40
F435.87853113202175
tp59
a(g40
S'431'
p60
F334.7646258643055
tp61
a(g60
S'140'
p62
F11.750664231222066
tp63
aF36.55394286015801
g54
S'2012-03-02 07:19:34'
p64
I0
F1827.6971430079004
F2.935738416229206
tp65
a((lp66
(S'431'
p67
g62
F323.01396163460106
tp68
a(g62
g51
F274.7150799308629
tp69
aF35.86374249392784
g64
S'2012-03-02 07:20:34'
p70
I0
F597.729041565464
F1.1267821489788463
tp71
a((lp72
(g47
g47
F0.0
tp73
aF0.20001690852457982
g70
S'2012-03-02 07:21:34'
p74
I0
F3.3336151420763303
F5.014590864198983
tp75
a((lp76
(g47
g51
F157.82983606020056
tp77
a(g51
S'393'
p78
F445.7984204400668
tp79
a(g78
g3
F64.95993228290784
tp80
aF40.11529132699052
g74
S'2012-03-02 07:22:34'
p81
I0
F668.5881887831753
F6.643310655985338
tp82
a((lp83
(g2
g3
F61.8815793331885
tp84
a(g3
S'431'
p85
F147.98841244950628
tp86
aF12.592199506961688
g81
S'2012-03-02 07:23:34'
p87
I0
F209.8699917826948
F5.693180244219387
tp88
a((lp89
(g11
g85
F221.99772363190203
tp90
a(g85
g62
F334.7646258643055
tp91
a(g62
g51
F272.67163114971817
tp92
aF49.766038838755534
g87
S'2012-03-02 07:24:34'
p93
I0
F829.4339806459257
F4.994970341065588
tp94
a((lp95
(g47
g51
F163.2068999834224
tp96
a(g51
g78
F445.7984204400668
tp97
a(g78
g13
F82.01156142123234
tp98
a(g13
g15
F215.88530697413447
tp99
aF26.982213882213898
g93
S'2012-03-02 07:26:35'
p100
I0
F906.9021888188561
F4.487994312569897
tp101
a((lp102
(g20
g15
F105.32605194210791
tp103
a(g15
g5
F126.8415116158981
tp104
a(g5
g29
F445.7984204400668
tp105
a(g29
g78
F329.4660645771258
tp106
aF60.44592291451192
g100
S'2012-03-02 07:27:35'
p107
I0
F1007.4320485751987
F3.7980607025911843
tp108
a((lp109
(g36
g78
F116.33235588289479
tp110
a(g78
g3
F126.8415116158981
tp111
a(g3
S'414'
p112
F108.60087476445133
tp113
aF5.276621133948663
g107
S'2012-03-02 07:31:35'
p114
I0
F351.7747422632442
F8.223448278415944
tp115
a((lp116
(g11
g112
F219.16012979643352
tp117
a(g112
g15
F110.55925503297553
tp118
a(g15
g85
F369.98613606887915
tp119
a(g85
S'203'
p120
F217.01780272835057
tp121
aF55.003399417598324
g114
S'2012-03-02 07:32:35'
p122
I0
F916.7233236266387
F3.559984445685096
tp123
a((lp124
(g67
g120
F152.9683333531878
tp125
a(g120
g5
F60.16543236973809
tp126
aF6.3940129716877765
g122
S'2012-03-02 07:34:35'
p127
I0
F213.1337657229259
F2.0932799081181686
tp128
a((lp129
(g11
g5
F66.67607924635767
tp130
a(g5
g3
F68.37156663263302
tp131
aF8.102858752739442
g127
S'2012-03-02 07:35:35'
p132
I0
F135.0476458789907
F1.950836657753244
tp133
a((lp134
(g2
g2
F0.0
tp135
aF0.18781470783868173
g132
S'2012-03-02 07:37:35'
p136
I0
F6.260490261289391
F6.398717255087707
tp137
a((lp138
(g2
g3
F52.20945472217892
tp139
a(g3
g112
F106.8137078441069
tp140
aF4.770694876988574
g136
S'2012-03-02 07:39:35'
p141
I0
F159.0231625662858
F4.036920425374114
tp142
a((lp143
(g11
g112
F217.37296287611338
tp144
a(g112
g15
F110.55925503297553
tp145
a(g15
g85
F369.98613606887915
tp146
a(g85
g120
F218.15235069676368
tp147
aF10.956327364880513
g141
S'2012-03-02 07:44:36'
p148
I0
F916.0707046747318
F7.252217748400461
tp149
a((lp150
(g67
g120
F151.8337853847468
tp151
a(g120
g112
F110.55925503297553
tp152
a(g112
S'371'
p153
F199.08442545685855
tp154
aF27.688647952474852
g148
S'2012-03-02 07:45:36'
p155
I0
F461.47746587458084
F9.666531475319411
tp156
a((lp157
(g20
g153
F938.7605000127769
tp158
a(g153
S'414'
p159
F739.6760747221767
tp160
a(g159
S'393'
p161
F82.01156142123234
tp162
a(g161
g29
F445.7984204400668
tp163
a(g29
g78
F330.8070330504273
tp164
aF152.22321537880083
g155
S'2012-03-02 07:46:36'
p165
I0
F2537.0535896466804
F15.180896860177086
tp166
a((lp167
(g36
g78
F114.99138740944394
tp168
a(g78
g13
F82.01156142123234
tp169
a(g13
g153
F188.39857591409447
tp170
aF23.124091484686247
g165
S'2012-03-02 07:47:36'
p171
I0
F385.40152474477077
F19.224904782278156
tp172
a((lp173
(g20
g153
F928.0746504807252
tp174
a(g153
g159
F739.6760747221767
tp175
a(g159
g15
F110.55925503297553
tp176
a(g15
g85
F369.98613606887915
tp177
a(g85
S'392'
p178
F181.6859159234579
tp179
aF142.16839518680632
g171
S'2012-03-02 07:48:35'
p180
I0
F2329.9820322282144
F29.68856414606808
tp181
a((lp182
(g67
g178
F639.522100276199
tp183
a(g178
S'431'
p184
F457.83618440901
tp185
a(g184
g120
F369.98613606887915
tp186
a(g120
g5
F126.8415116158981
tp187
a(g5
g3
F75.83403596096383
tp188
aF16.075058518693638
g180
S'2012-03-02 07:54:49'
p189
I0
F1670.0199683309502
F34.68805746202947
tp190
a((lp191
(g2
g2
F0.0
tp192
aF0.0
g189
S'2012-03-02 07:55:49'
p193
I0
F0.0
F0.0
tp194
a((lp195
(g2
g2
F0.0
tp196
aF0.0
g193
S'2012-03-02 07:58:49'
p197
I0
F0.0
F0.0
tp198
a((lp199
(g2
g2
F0.0
tp200
aF0.0
g197
S'2012-03-02 08:00:49'
p201
I0
F0.0
F0.0
tp202
a((lp203
(g2
g2
F0.0
tp204
aF0.0
g201
S'2012-03-02 08:02:49'
p205
I0
F0.0
F0.0
tp206
a((lp207
(g2
g2
F0.0
tp208
aF0.0
g205
S'2012-03-02 08:05:49'
p209
I0
F0.0
F0.0
tp210
a((lp211
(g2
g2
F0.0
tp212
aF0.0
g209
S'2012-03-02 08:08:50'
p213
I0
F0.0
F0.0
tp214
a((lp215
(g2
g2
F0.0
tp216
aF0.0
g213
S'2012-03-02 08:09:50'
p217
I0
F0.0
F0.0
tp218
a((lp219
(g2
g2
F0.0
tp220
aF0.0
g217
S'2012-03-02 08:14:50'
p221
I0
F0.0
F0.0
tp222
a((lp223
(g2
g2
F0.0
tp224
aF0.0
g221
S'2012-03-02 08:17:50'
p225
I0
F0.0
F0.0
tp226
a((lp227
(g2
g2
F0.0
tp228
aF0.0
g225
S'2012-03-02 08:18:50'
p229
I0
F0.0
F0.0
tp230
a((lp231
(g2
g2
F0.0
tp232
aF0.0
g229
S'2012-03-02 08:20:50'
p233
I0
F0.0
F0.0
tp234
a((lp235
(g2
g2
F0.0
tp236
aF0.0
g233
S'2012-03-02 08:21:51'
p237
I0
F0.0
F0.0
tp238
a((lp239
(g2
g2
F0.0
tp240
aF0.0
g237
S'2012-03-02 08:24:51'
p241
I0
F0.0
F0.0
tp242
a((lp243
(g2
g2
F0.0
tp244
aF0.0
g241
S'2012-03-02 08:25:51'
p245
I0
F0.0
F0.0
tp246
a((lp247
(g2
g2
F0.0
tp248
aF0.0
g245
S'2012-03-02 08:29:51'
p249
I0
F0.0
F0.0
tp250
a((lp251
(g2
g2
F0.0
tp252
aF0.0
g249
S'2012-03-02 08:35:51'
p253
I0
F0.0
F0.0
tp254
a((lp255
(g2
g2
F0.0
tp256
aF0.0
g253
S'2012-03-02 08:36:52'
p257
I0
F0.0
F0.0
tp258
a((lp259
(g2
g2
F0.0
tp260
aF0.0
g257
S'2012-03-02 08:38:52'
p261
I0
F0.0
F0.0
tp262
a((lp263
(g2
g2
F0.0
tp264
aF0.0
g261
S'2012-03-02 08:39:52'
p265
I0
F0.0
F0.0
tp266
a((lp267
(g2
g2
F0.0
tp268
aF0.0
g265
S'2012-03-02 08:40:52'
p269
I0
F0.0
F0.0
tp270
a((lp271
(g2
g2
F0.0
tp272
aF0.0
g269
S'2012-03-02 08:46:52'
p273
I0
F0.0
F0.0
tp274
a((lp275
(g2
g2
F0.0
tp276
aF0.0
g273
S'2012-03-02 08:48:52'
p277
I0
F0.0
F0.0
tp278
a((lp279
(g2
g2
F0.0
tp280
aF0.0
g277
S'2012-03-02 08:49:52'
p281
I0
F0.0
F0.0
tp282
a((lp283
(g2
g2
F0.0
tp284
aF0.0
g281
S'2012-03-02 08:50:52'
p285
I0
F0.0
F0.0
tp286
a((lp287
(g2
g2
F0.0
tp288
aF0.0
g285
S'2012-03-02 08:52:53'
p289
I0
F0.0
F0.0
tp290
a((lp291
(g2
g2
F0.0
tp292
aF0.0
g289
S'2012-03-02 08:55:53'
p293
I0
F0.0
F0.0
tp294
a((lp295
(g2
g2
F0.0
tp296
aF0.0
g293
S'2012-03-02 09:02:53'
p297
I0
F0.0
F0.0
tp298
a((lp299
(g2
g2
F0.0
tp300
aF0.0
g297
S'2012-03-02 09:04:53'
p301
I0
F0.0
F0.0
tp302
a((lp303
(g2
g2
F0.0
tp304
aF0.0
g301
S'2012-03-02 09:05:54'
p305
I0
F0.0
F0.0
tp306
a((lp307
(g2
g2
F0.0
tp308
aF0.0
g305
S'2012-03-02 09:07:54'
p309
I0
F0.0
F0.0
tp310
a((lp311
(g2
g2
F0.0
tp312
aF0.0
g309
S'2012-03-02 09:08:54'
p313
I0
F0.0
F0.0
tp314
a((lp315
(g2
g2
F0.0
tp316
aF0.0
g313
S'2012-03-02 09:11:54'
p317
I0
F0.0
F0.0
tp318
a((lp319
(g2
g2
F0.0
tp320
aF0.0
g317
S'2012-03-02 09:13:54'
p321
I0
F0.0
F0.0
tp322
a((lp323
(g2
g2
F0.0
tp324
aF0.0
g321
S'2012-03-02 09:15:54'
p325
I0
F0.0
F0.0
tp326
a((lp327
(g2
g2
F0.0
tp328
aF0.0
g325
S'2012-03-02 09:16:54'
p329
I0
F0.0
F0.0
tp330
a((lp331
(g2
g2
F0.0
tp332
aF0.0
g329
S'2012-03-02 09:19:54'
p333
I0
F0.0
F0.0
tp334
a((lp335
(g2
g2
F0.0
tp336
aF0.0
g333
S'2012-03-02 09:22:55'
p337
I0
F0.0
F0.0
tp338
a((lp339
(g2
g2
F0.0
tp340
aF0.0
g337
S'2012-03-02 09:30:55'
p341
I0
F0.0
F0.0
tp342
a((lp343
(g2
g2
F0.0
tp344
aF0.0
g341
S'2012-03-02 09:32:55'
p345
I0
F0.0
F0.0
tp346
a((lp347
(g2
g2
F0.0
tp348
aF0.0
g345
S'2012-03-02 09:35:56'
p349
I0
F0.0
F0.0
tp350
a((lp351
(g2
g2
F0.0
tp352
aF0.0
g349
S'2012-03-02 09:36:56'
p353
I0
F0.0
F0.0
tp354
a((lp355
(g2
g3
F51.007475655122036
tp356
a(g3
g85
F369.98613606887915
tp357
a(g85
g120
F230.04288818008388
tp358
aF4.725264918658683
g353
S'2012-03-02 09:45:12'
p359
I0
F651.0364999040851
F15.589712790689271
tp360
a((lp361
(g67
g120
F139.9432479010748
tp362
a(g120
g112
F110.55925503297553
tp363
a(g112
g153
F739.6760747221767
tp364
a(g153
S'1'
p365
F725.2487623614271
tp366
a(g365
S'190'
p367
F73.9276602619757
tp368
aF5.888188300737356
g359
S'2012-03-02 10:03:26'
p369
I0
F1789.3550002796298
F1037.4425668962863
tp370
a((lp371
(g365
g367
F207.16728253754664
tp372
a(g367
S'200'
p373
F65.9676834156334
tp374
a(g373
S'35'
p375
F774.7867391124779
tp376
a(g375
S'290'
p377
F413.7189959181754
tp378
a(g377
S'286'
p379
F181.32466665662517
tp380
a(g379
S'349'
p381
F215.09626284539777
tp382
a(g381
S'141'
p383
F399.81874327309936
tp384
aF135.47282242553734
g369
S'2012-03-02 10:04:26'
p385
I72
F2257.8803737589556
F1159.6362310445513
tp386
a((lp387
(S'349'
p388
g383
F544.57647104437
tp389
a(g383
S'195'
p390
F288.679793805085
tp391
a(g390
S'323'
p392
F899.3736486026992
tp393
a(g392
S'371'
p394
F502.52151206068487
tp395
a(g394
S'1158'
p396
F343.4160234801613
tp397
a(g396
S'233'
p398
F505.9919712639641
tp399
a(g398
S'324'
p400
F522.2079091612247
tp401
a(g400
S'12'
p402
F348.33486400960794
tp403
a(g402
S'307'
p404
F336.87317808984017
tp405
a(g404
S'101'
p406
F516.3741780275716
tp407
a(g406
S'231'
p408
F181.22931043354825
tp409
aF299.3747315987255
g385
S'2012-03-02 10:05:26'
p410
I74
F4989.5788599787575
F1219.6447799416744
tp411
a((lp412
(S'101'
p413
g408
F2309.4661334522125
tp414
a(g408
S'101'
p415
F2128.2368240663845
tp416
a(g415
S'923'
p417
F307.6200619299165
tp418
aF299.70461175464294
g410
S'2012-03-02 10:06:23'
p419
I64
F4745.323019448513
F646.3432234714677
tp420
a((lp421
(g413
g413
F0.0
tp422
aF5.751722775146937
g419
S'2012-03-02 10:07:07'
p423
I0
F70.29883391846256
F70.30395908828324
tp424
a((lp425
(g413
g417
F552.4416442505121
tp426
a(g417
S'888'
p427
F318.05554901056104
tp428
a(g427
S'804'
p429
F304.7643338516193
tp430
aF25.798423765888373
g423
S'2012-03-02 10:09:51'
p431
I40
F1175.2615271126924
F589.1460515315028
tp432
a((lp433
(S'888'
p434
g429
F741.2141628203557
tp435
a(g429
S'888'
p436
F436.4498289725836
tp437
a(g436
S'1213'
p438
F398.42229143270566
tp439
a(g438
S'1066'
p440
F126.00604095646439
tp441
a(g440
S'1170'
p442
F134.29559832461862
tp443
a(g442
S'1020'
p444
F201.74042609344684
tp445
a(g444
S'1145'
p446
F138.3852165812993
tp447
a(g446
S'1028'
p448
F210.6065185280842
tp449
a(g448
S'772'
p450
F230.208379433524
tp451
a(g450
S'819'
p452
F232.03849592151013
tp453
a(g452
S'1233'
p454
F280.1051964205321
tp455
a(g454
S'886'
p456
F203.95830291726205
tp457
a(g456
S'1222'
p458
F182.50405412844628
tp459
aF26.151579018824382
g431
S'2012-03-02 10:17:55'
p460
I16
F3515.934512530833
F1868.0963468632388
tp461
a((lp462
(S'886'
p463
g458
F315.62704253807317
tp464
a(g458
S'233'
p465
F314.42150737049457
tp466
a(g465
S'1158'
p467
F505.9919712639641
tp468
a(g467
S'371'
p469
F449.09800161397953
tp470
aF41.95954913258413
g460
S'2012-03-02 10:20:11'
p471
I0
F1585.1385227865114
F1170.5454961365233
tp472
a((lp473
(S'1158'
p474
g469
F105.68197813629939
tp475
a(g469
g365
F725.2487623614271
tp476
a(g365
g367
F133.23962227802784
tp477
a(g367
g373
F65.9676834156334
tp478
a(g373
g375
F774.7867391124779
tp479
a(g375
S'395'
p480
F247.85930936070378
tp481
a(g480
S'286'
p482
F7.319575598993357
tp483
aF61.803110107906875
g471
S'2012-03-02 10:22:11'
p484
I57
F2060.1036702635624
F1115.3735600030557
tp485
a((lp486
(S'395'
p487
g482
F396.6647287758416
tp488
a(g482
S'290'
p489
F181.32466665662517
tp490
a(g489
S'234'
p491
F126.8531339355929
tp492
a(g491
S'416'
p493
F178.48635606766732
tp494
aF46.08672445751619
g484
S'2012-03-02 10:23:20'
p495
I27
F883.328885435727
F344.15072261507464
tp496
a((lp497
(S'234'
p498
g493
F457.2248752141724
tp499
a(g493
S'234'
p500
F278.7385191726647
tp501
a(g500
S'290'
p502
F126.8531339355929
tp503
a(g502
S'35'
p504
F413.7189959181754
tp505
a(g504
S'200'
p506
F330.4152230712938
tp507
aF96.41704483871396
g495
S'2012-03-02 10:24:20'
p508
I0
F1606.9507473118992
F7.677630234708218
tp509
a((lp510
(S'35'
p511
g506
F1105.2019618115387
tp512
a(g506
g375
F774.7867391124779
tp513
a(g375
g377
F413.7189959181754
tp514
a(g377
g491
F126.8531339355929
tp515
a(g491
S'141'
p516
F357.5535360155081
tp517
a(g516
S'234'
p518
F400.7244294018085
tp519
aF762.9213110868243
g508
S'2012-03-02 10:24:35'
p520
I1
F3178.838796195101
F29.883592406253033
tp521
a((lp522
(S'141'
p523
g518
F43.170893387259646
tp524
a(g518
g502
F126.8531339355929
tp525
a(g502
g504
F413.7189959181754
tp526
a(g504
g506
F774.7867391124779
tp527
a(g506
S'190'
p528
F65.9676834156334
tp529
a(g528
g365
F133.23962227802784
tp530
a(g365
S'392'
p531
F206.3176153562738
tp532
aF52.92164050210322
g520
S'2012-03-02 10:26:35'
p533
I3
F1764.0546834034408
F1030.092945630848
tp534
a((lp535
(g365
g531
F1281.332479013509
tp536
a(g531
g365
F1075.0148639845097
tp537
a(g365
g367
F133.23962227802784
tp538
a(g367
S'219'
p539
F337.4837702498824
tp540
aF169.62424413155574
g533
S'2012-03-02 10:27:35'
p541
I22
F2827.070735525929
F375.911726249874
tp542
a((lp543
(S'190'
p544
g539
F478.69591663905817
tp545
a(g539
S'117'
p546
F439.0234501785394
tp547
a(g546
S'333'
p548
F172.715636685259
tp549
a(g548
S'27'
p550
F212.4358627498881
tp551
aF65.14354331263723
g541
S'2012-03-02 10:28:47'
p552
I44
F1302.8708662527447
F371.3007023880478
tp553
a((lp554
(S'333'
p555
g550
F2817.875382811319
tp556
a(g550
S'333'
p557
F3030.311243427994
tp558
a(g557
S'117'
p559
F172.715636685259
tp560
a(g559
S'132'
p561
F171.0633423174555
tp562
aF152.6786039648719
g552
S'2012-03-02 10:31:13'
p563
I0
F6191.965605242028
F257.64808382972376
tp564
a((lp565
(S'117'
p566
g561
F2862.90063908816
tp567
a(g561
S'117'
p568
F2691.837296797234
tp569
a(g568
g548
F172.715636685259
tp570
a(g548
g559
F17.65614596099574
tp571
aF1149.02194370633
g563
S'2012-03-02 10:31:31'
p572
I0
F5745.109718531649
F62.251885553861285
tp573
a((lp574
(g555
g559
F190.37178264617182
tp575
a(g559
S'97'
p576
F31.713546277828854
tp577
aF13.325119735440042
g572
S'2012-03-02 10:32:31'
p578
I27
F222.0853289240007
F300.2381993477598
tp579
a((lp580
(g566
g576
F1129.1631714582454
tp581
a(g576
S'60'
p582
F210.58601861530096
tp583
aF80.38495140441279
g578
S'2012-03-02 10:33:31'
p584
I51
F1339.7491900735463
F914.1588604202768
tp585
a((lp586
(S'97'
p587
g582
F1230.9624475616313
tp588
a(g582
S'433'
p589
F1363.0660641900304
tp590
a(g589
S'270'
p591
F330.3168336032497
tp592
a(g591
S'392'
p593
F95.85961614434376
tp594
a(g593
g184
F457.83618440901
tp595
a(g184
g120
F369.98613606887915
tp596
a(g120
g112
F110.55925503297553
tp597
a(g112
S'929'
p598
F303.12038890948725
tp599
a(g598
S'842'
p600
F138.91582185729666
tp601
a(g600
S'1027'
p602
F108.42347341772006
tp603
a(g602
S'887'
p604
F106.70806310397872
tp605
aF1.8230077261080606
g584
S'2012-03-02 13:05:26'
p606
I64
F4615.754284298603
F2373.880719782334
tp607
a((lp608
(S'1027'
p609
g604
F1081.0401139432174
tp610
a(g604
S'820'
p611
F1042.7797147525323
tp612
a(g611
S'1233'
p613
F255.3750506846333
tp614
a(g613
S'819'
p615
F237.03327742943927
tp616
aF41.49084301548617
g606
S'2012-03-02 13:09:13'
p617
I38
F2616.2281568098224
F1621.181376057265
tp618
a((lp619
(S'1233'
p620
g615
F43.07191899433301
tp621
a(g615
S'790'
p622
F145.5823712882947
tp623
a(g622
S'860'
p624
F108.13434072706384
tp625
a(g624
S'1030'
p626
F230.54817177966603
tp627
a(g626
S'1215'
p628
F223.77095863075016
tp629
aF193.14199579374204
g617
S'2012-03-02 13:09:27'
p630
I0
F751.1077614201079
F60.84288973702341
tp631
a((lp632
(S'1030'
p633
g628
F453.41754462576756
tp634
a(g628
S'818'
p635
F104.64593136867637
tp636
a(g635
S'1203'
p637
F230.17736984156133
tp638
a(g637
S'772'
p639
F143.30202102050836
tp640
a(g639
g452
F232.03849592151013
tp641
a(g452
g454
F280.1051964205321
tp642
a(g454
g456
F194.08632274888916
tp643
aF196.5327458336934
g630
S'2012-03-02 13:09:57'
p644
I35
F1637.772881947445
F173.14474106815908
tp645
a((lp646
(g620
g456
F9.871980168415382
tp647
a(g456
S'1233'
p648
F203.95830291726205
tp649
a(g648
g615
F280.1051964205321
tp650
a(g615
S'772'
p651
F232.03849592151013
tp652
a(g651
S'1028'
p653
F230.208379433524
tp654
a(g653
S'1145'
p655
F210.6065185280842
tp656
a(g655
S'1207'
p657
F142.994246033289
tp658
a(g657
S'806'
p659
F433.1636236943111
tp660
aF369.0946044247612
g644
S'2012-03-02 13:10:14'
p661
I0
F1742.946743116928
F57.49003748230818
tp662
a((lp663
(S'1207'
p664
g659
F574.201360634729
tp665
a(g659
S'959'
p666
F197.56237677218394
tp667
a(g666
S'1213'
p668
F159.27354120793285
tp669
a(g668
g440
F100.12562076951791
tp670
aF43.16495857888033
g661
S'2012-03-02 13:11:40'
p671
I38
F1031.1628993843635
F476.0861460616423
tp672
a((lp673
(S'1213'
p674
g674
F0.0
tp675
aF0.06747575419872244
g671
S'2012-03-02 13:12:48'
p676
I0
F1.274542023753646
F8.520270224515135
tp677
a((lp678
(g674
g440
F24.605878163445084
tp679
a(g440
g442
F134.29559832461862
tp680
a(g442
S'959'
p681
F135.9977572931447
tp682
a(g681
g668
F103.42421194782466
tp683
aF23.899406743741984
g676
S'2012-03-02 13:13:48'
p684
I24
F398.3234457290331
F228.18239994424573
tp685
a((lp686
(S'959'
p687
g668
F262.6977531506772
tp688
a(g668
g440
F126.00604095646439
tp689
a(g440
S'1213'
p690
F147.78012891949115
tp691
aF49.5215928947661
g684
S'2012-03-02 13:14:27'
p692
I16
F536.4839230266327
F134.77303859868604
tp693
a((lp694
(S'1066'
p695
g690
F21.774087963190187
tp696
a(g690
S'959'
p697
F159.27354120793285
tp698
a(g697
S'927'
p699
F106.9390388791336
tp700
a(g699
S'921'
p701
F195.5482192140499
tp702
a(g701
S'813'
p703
F182.17650096521103
tp704
a(g703
S'955'
p705
F56.66466961496389
tp706
a(g705
S'844'
p707
F135.70247565144197
tp708
a(g707
S'1045'
p709
F195.2100430368221
tp710
aF223.04934561869908
g692
S'2012-03-02 13:14:44'
p711
I0
F1053.2885765327455
F70.05153800796745
tp712
a((lp713
(S'844'
p714
g709
F356.2681844322301
tp715
a(g709
S'844'
p716
F161.05814139702346
tp717
a(g716
S'955'
p718
F135.70247565144197
tp719
a(g718
S'813'
p720
F56.66466961496389
tp721
a(g720
S'921'
p722
F182.17650096521103
tp723
a(g722
S'927'
p724
F195.5482192140499
tp725
a(g724
S'959'
p726
F106.9390388791336
tp727
a(g726
S'1170'
p728
F135.9977572931447
tp729
a(g728
S'1066'
p730
F134.29559832461862
tp731
a(g730
S'923'
p732
F281.1914007319659
tp733
aF179.57231861181768
g711
S'2012-03-02 13:15:19'
p734
I33
F1745.8419865037831
F196.89720918838424
tp735
a((lp736
(g695
g732
F688.7257526829486
tp737
a(g732
S'1066'
p738
F407.53435205726896
tp739
a(g738
g442
F134.29559832461862
tp740
a(g442
g681
F135.9977572931447
tp741
a(g681
g668
F47.85385615040409
tp742
aF60.61745642178792
g734
S'2012-03-02 13:16:43'
p743
I0
F1414.4073165083848
F52.047064517854075
tp744
a((lp745
(g687
g668
F111.41968505873508
tp746
a(g668
g440
F65.3739353347761
tp747
aF5.174447426151547
g743
S'2012-03-02 13:18:46'
p748
I29
F176.7936203935112
F242.03074862696104
tp749
a((lp750
(g674
g440
F191.37997629043457
tp751
a(g440
g690
F126.00604095646439
tp752
a(g690
g697
F206.52967626806605
tp753
aF41.913255481197204
g748
S'2012-03-02 13:19:31'
p754
I0
F523.915693514965
F53.64391936262606
tp755
a((lp756
(g674
g697
F47.25613506185298
tp757
a(g697
g699
F106.9390388791336
tp758
a(g699
g701
F195.5482192140499
tp759
a(g701
g703
F182.17650096521103
tp760
a(g703
g705
F56.66466961496389
tp761
a(g705
g720
F289.0767318688821
tp762
aF61.95256204264191
g754
S'2012-03-02 13:20:22'
p763
I25
F877.6612956040937
F146.19113170370002
tp764
a((lp765
(S'955'
p766
g720
F232.41206225436676
tp767
a(g720
g722
F182.17650096521103
tp768
a(g722
S'806'
p769
F107.48268907765393
tp770
a(g769
S'1207'
p771
F169.1273270624045
tp772
aF3.816433873764862
g763
S'2012-03-02 13:31:14'
p773
I14
F691.1985793596361
F192.9869862513854
tp774
a((lp775
(S'806'
p776
g771
F28.089590081031474
tp777
a(g771
S'799'
p778
F101.1060544565955
tp779
a(g778
S'1215'
p780
F216.60117519723585
tp781
a(g780
S'1030'
p782
F229.64658602255514
tp783
a(g782
S'860'
p784
F230.54817177966603
tp785
a(g784
S'1069'
p786
F231.70867622577373
tp787
a(g786
S'970'
p788
F147.92514798976143
tp789
aF71.13752410515714
g773
S'2012-03-02 13:32:14'
p790
I29
F1185.6254017526192
F487.4079420159142
tp791
a((lp792
(S'1069'
p793
g788
F448.11532018069664
tp794
a(g788
S'1069'
p795
F313.88065202791734
tp796
aF45.71975833251683
g790
S'2012-03-02 13:33:14'
p797
I20
F761.9959722086139
F177.71958378044872
tp798
a((lp799
(S'970'
p800
g795
F13.690479814984144
tp801
a(g795
S'860'
p802
F231.70867622577373
tp803
a(g802
S'790'
p804
F108.13434072706384
tp805
a(g804
S'819'
p806
F145.5823712882947
tp807
a(g806
g454
F280.1051964205321
tp808
a(g454
S'820'
p809
F201.67790382427242
tp810
aF160.51074026742344
g797
S'2012-03-02 13:33:36'
p811
I3
F980.898968300921
F26.181724879974322
tp812
a((lp813
(g620
g809
F53.697146860365336
tp814
a(g809
g613
F255.3750506846333
tp815
a(g613
g456
F203.95830291726205
tp816
a(g456
g648
F431.9507641392365
tp817
aF13.084355971405346
g811
S'2012-03-02 13:37:56'
p818
I0
F944.9812646014972
F386.5722629074931
tp819
a((lp820
(g463
g648
F227.9924612246806
tp821
a(g648
g809
F255.3750506846333
tp822
a(g809
S'887'
p823
F1042.7797147525323
tp824
a(g823
S'989'
p825
F82.82417141001658
tp826
aF25.293873506806577
g818
S'2012-03-02 13:41:45'
p827
I33
F1608.9713980718627
F946.6219871600307
tp828
a((lp829
(S'887'
p830
g830
F0.0
tp831
aF9.59520059740515
g827
S'2012-03-02 13:41:55'
p832
I1
F26.653334992792082
F26.59832658970181
tp833
a((lp834
(g830
g825
F747.0871747366024
tp835
a(g825
S'887'
p836
F690.9163383539549
tp837
a(g836
S'1189'
p838
F211.8840444636607
tp839
a(g838
S'987'
p840
F541.0596802687863
tp841
a(g840
S'1073'
p842
F13.723031999304377
tp843
aF77.81189187608149
g832
S'2012-03-02 13:43:37'
p844
I9
F2204.670269822309
F755.3624736755456
tp845
a((lp846
(S'987'
p847
g842
F571.5934656914602
tp848
a(g842
S'1151'
p849
F753.8985985699695
tp850
a(g849
S'1232'
p851
F491.4504590709204
tp852
aF23.277555459062135
g844
S'2012-03-02 13:48:18'
p853
I29
F1816.94252333235
F1282.5250499610183
tp854
a.