(lp0
((lp1
(S'1031'
p2
S'1232'
p3
F463.75410752199014
tp4
a(g3
S'901'
p5
F500.4166198457959
tp6
a(g5
S'1157'
p7
F329.43858562166434
tp8
a(g7
S'809'
p9
F180.65390343622366
tp10
aF88.45579298554043
S'2012-03-02 10:36:31'
p11
S'2012-03-02 10:37:31'
p12
I48
F1474.2632164256738
F582.2740831264915
tp13
a((lp14
(S'1157'
p15
g9
F935.654373813142
tp16
a(g9
S'1157'
p17
F755.0004704445299
tp18
a(g17
S'901'
p19
F329.43858562166434
tp20
a(g19
S'1232'
p21
F500.4166198457959
tp22
a(g21
g5
F442.27253202538833
tp23
aF101.5811170885893
g12
S'2012-03-02 10:39:16'
p24
I3
F2962.782581750521
F102.93548433421614
tp25
a((lp26
(S'1232'
p27
g5
F58.14408782166557
tp28
a(g5
S'937'
p29
F654.3387647481585
tp30
a(g29
S'1061'
p31
F930.5990375079346
tp32
a(g31
S'1062'
p33
F91.58883828804406
tp34
aF29.04564940519484
g24
S'2012-03-02 10:42:51'
p35
I22
F1734.670728365803
F1003.2617248987956
tp36
a((lp37
(S'1061'
p38
g33
F534.4881363968481
tp39
a(g33
S'1061'
p40
F442.8992981334369
tp41
a(g40
S'1185'
p42
F265.3065235894435
tp43
aF74.5616374871837
g35
S'2012-03-02 10:43:51'
p44
I53
F1242.6939581197284
F324.4335671647576
tp45
a((lp46
(g38
g42
F638.580457170061
tp47
a(g42
S'777'
p48
F465.5645320107461
tp49
a(g48
S'903'
p50
F350.9006773558848
tp51
a(g50
S'1032'
p52
F174.47629245848117
tp53
aF97.77131753971038
g44
S'2012-03-02 10:44:51'
p54
I38
F1629.521958995173
F138.641966694654
tp55
a((lp56
(S'903'
p57
g52
F679.9386332168131
tp58
a(g52
S'796'
p59
F361.8967412680692
tp60
a(g59
S'988'
p61
F37.46020309095503
tp62
a(g61
S'937'
p63
F12.865367027623485
tp64
aF19.75768543001236
g54
S'2012-03-02 10:48:10'
p65
I3
F1092.1609446034608
F585.812222656234
tp66
a((lp67
(S'988'
p68
g68
F0.0
tp69
aF22.959606717604487
g65
S'2012-03-02 10:49:10'
p70
I22
F382.6601119600748
F520.6393016557631
tp71
a((lp72
(g68
g63
F284.9374500860876
tp73
a(g63
S'901'
p74
F654.3387647481585
tp75
a(g74
g7
F233.03169587868223
tp76
aF191.83220357120646
g70
S'2012-03-02 10:49:32'
p77
I59
F1172.3079107129283
F104.74773691765292
tp78
a((lp79
(S'901'
p80
g7
F562.4702814421959
tp81
a(g7
g19
F329.43858562166434
tp82
a(g19
g29
F313.51665326955464
tp83
aF127.63329038824392
g77
S'2012-03-02 10:50:06'
p84
I0
F1205.4255203334149
F56.0548740348633
tp85
a((lp86
(g80
g29
F340.82211155971794
tp87
a(g29
S'988'
p88
F84.85729485795852
tp89
a(g88
S'1127'
p90
F152.49726409143645
tp91
a(g90
S'967'
p92
F466.2810494809392
tp93
aF62.667463199403116
g84
S'2012-03-02 10:51:06'
p94
I48
F1044.457719990052
F684.554707224841
tp95
a.