(lp0
((lp1
(S'997'
p2
S'1172'
p3
F167.2013283731779
tp4
a(g3
S'1205'
p5
F289.366631695959
tp6
a(g5
S'969'
p7
F750.5078616257923
tp8
a(g7
S'1177'
p9
F333.6114330713036
tp10
aF0.943117516945832
S'2012-03-02 16:37:47'
p11
S'2012-03-02 18:15:48'
p12
I31
F1540.6872547662329
F471.0243201649281
tp13
a((lp14
(S'969'
p15
g9
F515.259652082864
tp16
a(g9
S'1133'
p17
F544.2648983785294
tp18
a(g17
S'960'
p19
F313.9016806177561
tp20
a(g19
S'821'
p21
F226.9149547309001
tp22
aF96.02047114860298
g12
S'2012-03-02 18:16:48'
p23
I35
F1600.3411858100496
F833.4907072419286
tp24
a((lp25
(S'960'
p26
g21
F527.6489075159981
tp27
a(g21
S'822'
p28
F318.9008064038488
tp29
a(g28
S'1182'
p30
F298.5349557647092
tp31
a(g30
S'1133'
p32
F81.85633284682326
tp33
aF29.844510872384905
g23
S'2012-03-02 18:19:16'
p34
I57
F1226.9410025313794
F334.01627646688496
tp35
a((lp36
(S'1182'
p37
g32
F94.5997378493812
tp38
a(g32
g19
F313.9016806177561
tp39
a(g19
g21
F300.73395278664674
tp40
a(g21
S'1141'
p41
F45.568100818932905
tp42
aF22.64410416218151
g34
S'2012-03-02 18:21:16'
p43
I0
F754.8034720727169
F126.66846308645007
tp44
a((lp45
(S'821'
p46
g41
F318.4877932511451
tp47
a(g41
S'821'
p48
F272.9196924326181
tp49
a(g48
g28
F318.9008064038488
tp50
a(g28
S'1188'
p51
F357.54804296426533
tp52
a(g51
S'1105'
p53
F40.61215720180896
tp54
aF79.83875545954696
g43
S'2012-03-02 18:22:15'
p55
I11
F1308.4684922536862
F168.4855666509976
tp56
a((lp57
(S'1188'
p58
g53
F258.64002562944603
tp59
a(g53
S'811'
p60
F197.68424745612614
tp61
a(g60
S'810'
p62
F139.00711405340928
tp63
a(g62
S'815'
p64
F185.33946276272223
tp65
a(g64
S'933'
p66
F264.6371495932836
tp67
a(g66
S'1187'
p68
F62.361946624317454
tp69
a(g68
S'793'
p70
F936.9634855721417
tp71
a(g70
S'763'
p72
F807.7571788598872
tp73
a(g72
S'1159'
p74
F12.65872730361995
tp75
a(g74
S'1075'
p76
F653.229543764915
tp77
a(g76
S'1157'
p78
F42.87757714138974
tp79
a(g78
S'901'
p80
F329.43858562166434
tp81
a(g80
S'1232'
p82
F500.4166198457959
tp83
a(g82
S'1151'
p84
F572.8013873462398
tp85
a(g84
S'1036'
p86
F499.30418929770127
tp87
a(g86
S'989'
p88
F786.7860140536283
tp89
a(g88
S'1115'
p90
F1111.3964106739522
tp91
a(g90
S'263'
p92
F472.4206568274532
tp93
a(g92
S'140'
p94
F435.87853113202175
tp95
a(g94
S'431'
p96
F334.7646258643055
tp97
a(g96
S'392'
p98
F457.83618440901
tp99
a(g98
S'270'
p100
F95.85961614434376
tp101
a(g100
S'433'
p102
F330.3168336032497
tp103
a(g102
S'372'
p104
F585.0976094380715
tp105
a(g104
S'97'
p106
F63.758701035611004
tp107
a(g106
S'413'
p108
F1079.6824743926077
tp109
a(g108
S'182'
p110
F501.6805211022033
tp111
a(g110
S'58'
p112
F1050.0893319780932
tp113
a(g112
S'86'
p114
F905.5130865393613
tp115
a(g114
S'331'
p116
F51.89929808589259
tp117
aF9.13719483915475
g55
S'2012-03-02 19:52:23'
p118
I0
F13726.097136152468
F11358.42274908075
tp119
a((lp120
(S'86'
p121
g121
F0.0
tp122
aF0.0
g118
S'2012-03-02 19:52:31'
p123
I0
F0.0
F0.0
tp124
a.